
New_Project.elf:     file format elf32-littlenios2
New_Project.elf
architecture: nios2, flags 0x00000112:
EXEC_P, HAS_SYMS, D_PAGED
start address 0x000001b8

Program Header:
    LOAD off    0x00001000 vaddr 0x00000000 paddr 0x00000000 align 2**12
         filesz 0x00000020 memsz 0x00000020 flags r-x
    LOAD off    0x00001020 vaddr 0x00000020 paddr 0x00000020 align 2**12
         filesz 0x00014004 memsz 0x00014004 flags r-x
    LOAD off    0x00015024 vaddr 0x00014024 paddr 0x000160b4 align 2**12
         filesz 0x00002090 memsz 0x00002090 flags rw-
    LOAD off    0x00017144 vaddr 0x00018144 paddr 0x00018144 align 2**12
         filesz 0x00000000 memsz 0x007a17f0 flags rw-

Sections:
Idx Name          Size      VMA       LMA       File off  Algn
  0 .entry        00000020  00000000  00000000  00001000  2**5
                  CONTENTS, ALLOC, LOAD, READONLY, CODE
  1 .exceptions   00000198  00000020  00000020  00001020  2**2
                  CONTENTS, ALLOC, LOAD, READONLY, CODE
  2 .text         00013614  000001b8  000001b8  000011b8  2**2
                  CONTENTS, ALLOC, LOAD, READONLY, CODE
  3 .rodata       00000858  000137cc  000137cc  000147cc  2**2
                  CONTENTS, ALLOC, LOAD, READONLY, DATA
  4 .rwdata       00002090  00014024  000160b4  00015024  2**2
                  CONTENTS, ALLOC, LOAD, DATA, SMALL_DATA
  5 .bss          007a1aca  00018144  00018144  00017144  2**2
                  ALLOC, SMALL_DATA
  6 .comment      00000026  00000000  00000000  000170b4  2**0
                  CONTENTS, READONLY
  7 .debug_aranges 00000f98  00000000  00000000  000170e0  2**3
                  CONTENTS, READONLY, DEBUGGING
  8 .debug_pubnames 000025fa  00000000  00000000  00018078  2**0
                  CONTENTS, READONLY, DEBUGGING
  9 .debug_info   0002f1dd  00000000  00000000  0001a672  2**0
                  CONTENTS, READONLY, DEBUGGING
 10 .debug_abbrev 0000982b  00000000  00000000  0004984f  2**0
                  CONTENTS, READONLY, DEBUGGING
 11 .debug_line   0001a00b  00000000  00000000  0005307a  2**0
                  CONTENTS, READONLY, DEBUGGING
 12 .debug_frame  00002704  00000000  00000000  0006d088  2**2
                  CONTENTS, READONLY, DEBUGGING
 13 .debug_str    00002c00  00000000  00000000  0006f78c  2**0
                  CONTENTS, READONLY, DEBUGGING
 14 .debug_loc    0000e360  00000000  00000000  0007238c  2**0
                  CONTENTS, READONLY, DEBUGGING
 15 .debug_alt_sim_info 00000050  00000000  00000000  000806ec  2**2
                  CONTENTS, READONLY, DEBUGGING
 16 .debug_ranges 00000b80  00000000  00000000  00080740  2**3
                  CONTENTS, READONLY, DEBUGGING
 17 .thread_model 00000003  00000000  00000000  0008603e  2**0
                  CONTENTS, READONLY
 18 .cpu          00000003  00000000  00000000  00086041  2**0
                  CONTENTS, READONLY
 19 .qsys         00000001  00000000  00000000  00086044  2**0
                  CONTENTS, READONLY
 20 .simulation_enabled 00000001  00000000  00000000  00086045  2**0
                  CONTENTS, READONLY
 21 .sysid_hash   00000004  00000000  00000000  00086046  2**0
                  CONTENTS, READONLY
 22 .sysid_base   00000004  00000000  00000000  0008604a  2**0
                  CONTENTS, READONLY
 23 .sysid_time   00000004  00000000  00000000  0008604e  2**0
                  CONTENTS, READONLY
 24 .stderr_dev   00000009  00000000  00000000  00086052  2**0
                  CONTENTS, READONLY
 25 .stdin_dev    00000009  00000000  00000000  0008605b  2**0
                  CONTENTS, READONLY
 26 .stdout_dev   00000009  00000000  00000000  00086064  2**0
                  CONTENTS, READONLY
 27 .sopc_system_name 0000000b  00000000  00000000  0008606d  2**0
                  CONTENTS, READONLY
 28 .quartus_project_dir 00000024  00000000  00000000  00086078  2**0
                  CONTENTS, READONLY
 29 .jdi          00006320  00000000  00000000  0008609c  2**0
                  CONTENTS, READONLY
 30 .sopcinfo     00105fb5  00000000  00000000  0008c3bc  2**0
                  CONTENTS, READONLY
SYMBOL TABLE:
00000000 l    d  .entry	00000000 .entry
00000020 l    d  .exceptions	00000000 .exceptions
000001b8 l    d  .text	00000000 .text
000137cc l    d  .rodata	00000000 .rodata
00014024 l    d  .rwdata	00000000 .rwdata
00018144 l    d  .bss	00000000 .bss
00000000 l    d  .comment	00000000 .comment
00000000 l    d  .debug_aranges	00000000 .debug_aranges
00000000 l    d  .debug_pubnames	00000000 .debug_pubnames
00000000 l    d  .debug_info	00000000 .debug_info
00000000 l    d  .debug_abbrev	00000000 .debug_abbrev
00000000 l    d  .debug_line	00000000 .debug_line
00000000 l    d  .debug_frame	00000000 .debug_frame
00000000 l    d  .debug_str	00000000 .debug_str
00000000 l    d  .debug_loc	00000000 .debug_loc
00000000 l    d  .debug_alt_sim_info	00000000 .debug_alt_sim_info
00000000 l    d  .debug_ranges	00000000 .debug_ranges
000001f0 l       .text	00000000 alt_after_alt_main
00000000 l    df *ABS*	00000000 alt_irq_handler.c
00000000 l    df *ABS*	00000000 PS2_ISR.c
00000000 l    df *ABS*	00000000 amplitude_calculation.c
00000000 l    df *ABS*	00000000 audio_ISR.c
00000000 l    df *ABS*	00000000 globals.c
00000000 l    df *ABS*	00000000 interval_timer_ISR.c
00000000 l    df *ABS*	00000000 media_interrupt_HAL.c
00013b54 l     O .rodata	00000010 C.37.3429
00000000 l    df *ABS*	00000000 pushbutton_ISR.c
00000000 l    df *ABS*	00000000 libgcc2.c
00000000 l    df *ABS*	00000000 libgcc2.c
00000000 l    df *ABS*	00000000 fp-bit.c
00000000 l    df *ABS*	00000000 fp-bit.c
00000000 l    df *ABS*	00000000 dp-bit.c
00000000 l    df *ABS*	00000000 lib2-divmod.c
0000336c l     F .text	0000007c udivmodsi4
00000000 l    df *ABS*	00000000 libgcc2.c
00000000 l    df *ABS*	00000000 libgcc2.c
00000000 l    df *ABS*	00000000 fp-bit.c
00000000 l    df *ABS*	00000000 fp-bit.c
00000000 l    df *ABS*	00000000 dp-bit.c
00000000 l    df *ABS*	00000000 memcpy.c
00000000 l    df *ABS*	00000000 memset.c
00000000 l    df *ABS*	00000000 printf.c
00000000 l    df *ABS*	00000000 vfprintf.c
00003c24 l     F .text	00000058 __sprint_r
00013cd2 l     O .rodata	00000010 blanks.3452
00013cc2 l     O .rodata	00000010 zeroes.3453
00000000 l    df *ABS*	00000000 wsetup.c
00000000 l    df *ABS*	00000000 dtoa.c
00005c88 l     F .text	00000218 quorem
00000000 l    df *ABS*	00000000 fflush.c
00000000 l    df *ABS*	00000000 findfp.c
00007684 l     F .text	00000058 std
00007790 l     F .text	00000008 __fp_lock
00007798 l     F .text	00000008 __fp_unlock
00000000 l    df *ABS*	00000000 mallocr.c
00000000 l    df *ABS*	00000000 fvwrite.c
00000000 l    df *ABS*	00000000 fwalk.c
00000000 l    df *ABS*	00000000 impure.c
000142a4 l     O .rwdata	00000400 impure_data
00000000 l    df *ABS*	00000000 locale.c
00016080 l     O .rwdata	00000004 charset
00013d08 l     O .rodata	00000030 lconv
00000000 l    df *ABS*	00000000 makebuf.c
00000000 l    df *ABS*	00000000 mallocr.c
00000000 l    df *ABS*	00000000 memchr.c
00000000 l    df *ABS*	00000000 memmove.c
00000000 l    df *ABS*	00000000 mprec.c
00013e50 l     O .rodata	0000000c p05.2458
00000000 l    df *ABS*	00000000 mallocr.c
00000000 l    df *ABS*	00000000 s_isinfd.c
00000000 l    df *ABS*	00000000 s_isnand.c
00000000 l    df *ABS*	00000000 sbrkr.c
00000000 l    df *ABS*	00000000 stdio.c
00000000 l    df *ABS*	00000000 strcmp.c
00000000 l    df *ABS*	00000000 strlen.c
00000000 l    df *ABS*	00000000 writer.c
00000000 l    df *ABS*	00000000 mallocr.c
00000000 l    df *ABS*	00000000 closer.c
00000000 l    df *ABS*	00000000 fclose.c
00000000 l    df *ABS*	00000000 fstatr.c
00000000 l    df *ABS*	00000000 int_errno.c
00000000 l    df *ABS*	00000000 isattyr.c
00000000 l    df *ABS*	00000000 lseekr.c
00000000 l    df *ABS*	00000000 readr.c
00000000 l    df *ABS*	00000000 libgcc2.c
00000000 l    df *ABS*	00000000 libgcc2.c
00000000 l    df *ABS*	00000000 dp-bit.c
0000b860 l     F .text	00000410 _fpadd_parts
00000000 l    df *ABS*	00000000 dp-bit.c
00000000 l    df *ABS*	00000000 dp-bit.c
00000000 l    df *ABS*	00000000 dp-bit.c
00000000 l    df *ABS*	00000000 dp-bit.c
00000000 l    df *ABS*	00000000 dp-bit.c
00000000 l    df *ABS*	00000000 dp-bit.c
00000000 l    df *ABS*	00000000 dp-bit.c
00000000 l    df *ABS*	00000000 dp-bit.c
00000000 l    df *ABS*	00000000 dp-bit.c
00000000 l    df *ABS*	00000000 dp-bit.c
00000000 l    df *ABS*	00000000 dp-bit.c
00000000 l    df *ABS*	00000000 dp-bit.c
00000000 l    df *ABS*	00000000 dp-bit.c
00000000 l    df *ABS*	00000000 alt_close.c
0000cc88 l     F .text	00000060 alt_get_errno
00000000 l    df *ABS*	00000000 alt_dev.c
0000cce8 l     F .text	0000002c alt_dev_null_write
00000000 l    df *ABS*	00000000 alt_errno.c
00000000 l    df *ABS*	00000000 alt_fstat.c
0000cde8 l     F .text	00000060 alt_get_errno
00000000 l    df *ABS*	00000000 alt_irq_register.c
00000000 l    df *ABS*	00000000 alt_irq_vars.c
00000000 l    df *ABS*	00000000 alt_isatty.c
0000d0c8 l     F .text	00000060 alt_get_errno
00000000 l    df *ABS*	00000000 alt_load.c
0000d1a8 l     F .text	0000006c alt_load_section
00000000 l    df *ABS*	00000000 alt_lseek.c
0000d304 l     F .text	00000060 alt_get_errno
00000000 l    df *ABS*	00000000 alt_main.c
00000000 l    df *ABS*	00000000 alt_malloc_lock.c
00000000 l    df *ABS*	00000000 alt_printf.c
00000000 l    df *ABS*	00000000 alt_putchar.c
00000000 l    df *ABS*	00000000 alt_read.c
0000d7c8 l     F .text	00000060 alt_get_errno
00000000 l    df *ABS*	00000000 alt_release_fd.c
00000000 l    df *ABS*	00000000 alt_sbrk.c
000160a8 l     O .rwdata	00000004 heap_end
00000000 l    df *ABS*	00000000 alt_write.c
0000da64 l     F .text	00000060 alt_get_errno
00000000 l    df *ABS*	00000000 alt_sys_init.c
00014c60 l     O .rwdata	00001060 JTAG_UART
00015cc0 l     O .rwdata	00000030 AV_Config
00015cf0 l     O .rwdata	00000030 Audio
00015d20 l     O .rwdata	0000002c Char_LCD_16x2
00015d4c l     O .rwdata	0000003c Ethernet
00015d88 l     O .rwdata	0000002c IrDA_UART
00015db4 l     O .rwdata	0000002c Expansion_JP1
00015de0 l     O .rwdata	0000002c Expansion_JP2
00015e0c l     O .rwdata	0000002c Green_LEDs
00015e38 l     O .rwdata	0000002c HEX3_HEX0
00015e64 l     O .rwdata	0000002c HEX7_HEX4
00015e90 l     O .rwdata	0000002c Pushbuttons
00015ebc l     O .rwdata	0000002c Red_LEDs
00015ee8 l     O .rwdata	0000002c Slider_Switches
00015f14 l     O .rwdata	00000038 PS2_Port
00015f4c l     O .rwdata	0000002c Serial_Port
00015f78 l     O .rwdata	00000034 USB
00015fac l     O .rwdata	00000048 VGA_Char_Buffer
00015ff4 l     O .rwdata	00000054 VGA_Pixel_Buffer
00016048 l     O .rwdata	0000002c SD_Card
0000df08 l     F .text	00000038 alt_dev_reg
00000000 l    df *ABS*	00000000 altera_avalon_jtag_uart_fd.c
00000000 l    df *ABS*	00000000 altera_avalon_jtag_uart_init.c
0000e140 l     F .text	0000022c altera_avalon_jtag_uart_irq
0000e36c l     F .text	000000b0 altera_avalon_jtag_uart_timeout
00000000 l    df *ABS*	00000000 altera_avalon_jtag_uart_ioctl.c
00000000 l    df *ABS*	00000000 altera_avalon_jtag_uart_read.c
00000000 l    df *ABS*	00000000 altera_avalon_jtag_uart_write.c
00000000 l    df *ABS*	00000000 altera_avalon_timer_ts.c
00000000 l    df *ABS*	00000000 altera_avalon_timer_vars.c
00000000 l    df *ABS*	00000000 altera_up_avalon_audio.c
00000000 l    df *ABS*	00000000 altera_up_avalon_character_lcd.c
00000000 l    df *ABS*	00000000 altera_up_avalon_ethernet.c
00000000 l    df *ABS*	00000000 altera_up_avalon_ethernet_low_level_driver.c
00000000 l    df *ABS*	00000000 altera_up_avalon_irda.c
00000000 l    df *ABS*	00000000 altera_up_avalon_parallel_port.c
00000000 l    df *ABS*	00000000 altera_up_avalon_ps2.c
00000000 l    df *ABS*	00000000 altera_up_avalon_rs232.c
00000000 l    df *ABS*	00000000 altera_up_avalon_video_character_buffer_with_dma.c
00000000 l    df *ABS*	00000000 altera_up_avalon_video_pixel_buffer_dma.c
00000000 l    df *ABS*	00000000 alt_alarm_start.c
00000000 l    df *ABS*	00000000 alt_dcache_flush_all.c
00000000 l    df *ABS*	00000000 alt_dev_llist_insert.c
00012514 l     F .text	00000060 alt_get_errno
00000000 l    df *ABS*	00000000 alt_do_ctors.c
00000000 l    df *ABS*	00000000 alt_do_dtors.c
00000000 l    df *ABS*	00000000 alt_find_dev.c
00000000 l    df *ABS*	00000000 alt_icache_flush_all.c
00000000 l    df *ABS*	00000000 alt_io_redirect.c
00012700 l     F .text	000000c4 alt_open_fd
00000000 l    df *ABS*	00000000 alt_open.c
0001283c l     F .text	000000dc alt_file_locked
00012aa0 l     F .text	00000060 alt_get_errno
00000000 l    df *ABS*	00000000 alt_tick.c
00000000 l    df *ABS*	00000000 alt_usleep.c
00000000 l    df *ABS*	00000000 altera_nios2_qsys_irq.c
00000000 l    df *ABS*	00000000 alt_busy_sleep.c
00000000 l    df *ABS*	00000000 alt_find_file.c
00000000 l    df *ABS*	00000000 alt_get_fd.c
00000000 l    df *ABS*	00000000 alt_icache_flush.c
00000000 l    df *ABS*	00000000 atexit.c
00000000 l    df *ABS*	00000000 exit.c
00000000 l    df *ABS*	00000000 memcmp.c
00000000 l    df *ABS*	00000000 putc.c
00000000 l    df *ABS*	00000000 wbuf.c
00000000 l    df *ABS*	00000000 __atexit.c
00000000 l    df *ABS*	00000000 __call_atexit.c
000135b4 l     F .text	00000004 register_fini
00000000 l    df *ABS*	00000000 alt_exit.c
00013768 l     F .text	00000040 alt_sim_halt
00009308 g     F .text	00000094 _mprec_log10
000093f4 g     F .text	00000088 __any_on
0000ab74 g     F .text	00000070 _isatty_r
00013e28 g     O .rodata	00000028 __mprec_tinytens
0000d364 g     F .text	0000006c alt_main
000119f0 g     F .text	000003d0 alt_up_pixel_buffer_dma_draw_vline
00000adc g     F .text	00000060 interval_timer_ISR
00010234 g     F .text	00000058 alt_up_ps2_disable_read_interrupt
007b96a4 g     O .bss	00000100 alt_irq
0000abe4 g     F .text	00000078 _lseek_r
000160b4 g       *ABS*	00000000 __flash_rwdata_start
0000f3d8 g     F .text	00000034 alt_up_character_lcd_send_cmd
0000c380 g     F .text	00000088 __eqdf2
00018154 g     O .bss	00000001 byte2
00002ba0 g     F .text	00000680 __divdi3
0000edc8 g     F .text	00000070 alt_up_audio_read_fifo_avail
007b9934 g       *ABS*	00000000 __alt_heap_start
00003bac g     F .text	00000044 printf
0000ee38 g     F .text	00000070 alt_up_audio_record_r
00018155 g     O .bss	00000001 byte3
0000a5cc g     F .text	00000068 __sseek
000076ec g     F .text	000000a4 __sinit
00013334 g     F .text	00000130 __swbuf_r
00010c14 g     F .text	00000114 alt_up_char_buffer_string
0001004c g     F .text	00000034 read_CE_bit
00018158 g     O .bss	00000004 Play_Index
000083c4 g     F .text	00000084 _setlocale_r
000077ec g     F .text	00000068 __sfmoreglue
0000d3f0 g     F .text	00000020 __malloc_unlock
000103e0 g     F .text	000000b0 alt_up_ps2_read_data_byte_timeout
0001091c g     F .text	00000090 alt_up_rs232_read_fd
000024cc g     F .text	000002b8 Audio_Average
00010b44 g     F .text	000000d0 alt_up_char_buffer_draw
0000ed40 g     F .text	00000088 alt_up_audio_reset_audio_core
0000033c g     F .text	00000074 amplitude_operation
000181f8 g     O .bss	00000004 altera_avalon_timer_ts_freq
00008e1c g     F .text	000000e0 memmove
0001815c g     O .bss	00000001 byte1
000077dc g     F .text	00000010 _cleanup
0000947c g     F .text	000000bc _Balloc
00010dc4 g     F .text	000001a0 alt_up_pixel_buffer_dma_draw
0000c490 g     F .text	00000088 __gtdf2
00000000  w      *UND*	00000000 __errno
0000f35c g     F .text	0000007c get_DDRAM_addr
00010d84 g     F .text	00000040 alt_up_pixel_buffer_dma_open_dev
00000000 g     F .entry	0000001c __reset
00000020 g       *ABS*	00000000 __flash_exceptions_start
0000ab00 g     F .text	00000074 _fstat_r
000181e0 g     O .bss	00000004 errno
00003334 g     F .text	00000038 __make_dp
000028dc g     F .text	00000174 Calculate_Avrage
00018148 g     O .bss	00000004 Read_Data
0000ed04 g     F .text	0000003c alt_up_audio_write_interrupt_pending
000181ec g     O .bss	00000004 alt_argv
0001e074 g       *ABS*	00000000 _gp
00012ca4 g     F .text	00000030 usleep
00010f64 g     F .text	00000058 alt_up_pixel_buffer_dma_change_back_buffer_address
00014ae0 g     O .rwdata	00000180 alt_fd_list
0001819c g     O .bss	00000004 XoverFlow
00014024 g     O .rwdata	00000080 coeff
0001263c g     F .text	00000094 alt_find_dev
00003a74 g     F .text	000000a0 memcpy
0000f570 g     F .text	0000004c alt_up_character_lcd_write_fd
00010d28 g     F .text	0000005c alt_up_char_buffer_clear
000077d0 g     F .text	0000000c _cleanup_r
0000c628 g     F .text	000000f8 __floatsidf
000127c4 g     F .text	00000078 alt_io_redirect
0000c5a0 g     F .text	00000088 __ltdf2
000137cc g       *ABS*	00000000 __DTOR_END__
00000428 g     F .text	00000070 amplitude_circute_set_size
0000fed8 g     F .text	00000090 alt_up_irda_write_fd
000003b0 g     F .text	00000078 amplitude_circute_stop
000108a8 g     F .text	00000074 alt_up_rs232_read_data
000181a0 g     O .bss	00000004 MiddleBtn
00009258 g     F .text	000000b0 __ratio
0000f29c g     F .text	00000060 alt_up_audio_read_fifo_head
00011014 g     F .text	00000034 alt_up_pixel_buffer_dma_check_swap_buffers_status
007b944c g     O .bss	00000078 Out_Ram
0000fcc0 g     F .text	0000003c alt_up_irda_get_used_space_in_read_FIFO
0000e584 g     F .text	00000224 altera_avalon_jtag_uart_read
00000000  w      *UND*	00000000 malloc
00003bf0 g     F .text	00000034 _printf_r
000034a8 g     F .text	00000008 __udivsi3
0000d008 g     F .text	000000c0 isatty
0001815d g     O .bss	00000001 local_b2
00018198 g     O .bss	00000004 anita2
0000fa18 g     F .text	00000044 alt_up_ethernet_reg_write
00013d38 g     O .rodata	000000c8 __mprec_tens
000181a4 g     O .bss	00000004 index_Echo
0001815e g     O .bss	00000001 local_b1
000116a0 g     F .text	00000350 alt_up_pixel_buffer_dma_draw_hline
000083a0 g     F .text	00000008 __locale_charset
0000fc68 g     F .text	00000058 alt_up_irda_disable_read_interrupt
00012ff8 g     F .text	00000090 alt_icache_flush
000181d4 g     O .bss	00000004 __malloc_top_pad
00000498 g     F .text	00000058 amplitude_circute_set_num
0001607c g     O .rwdata	00000004 __mb_cur_max
000083a8 g     F .text	0000000c _localeconv_r
0000219c g     F .text	000001a4 Do_Soft_Echo
00009b74 g     F .text	0000003c __i2b
00007d84 g     F .text	0000049c __sfvwrite_r
0000a554 g     F .text	00000070 _sbrk_r
0001822c g     O .bss	00000020 up_dev
00011e84 g     F .text	000000d0 helper_plot_pixel
0000ac5c g     F .text	00000078 _read_r
00018160 g     O .bss	00000004 Echo_End
000146a4 g     O .rwdata	0000000c __lc_ctype
0001609c g     O .rwdata	00000004 alt_max_fd
00010810 g     F .text	00000050 alt_up_rs232_check_parity
0000f2fc g     F .text	00000060 alt_up_audio_write_fifo_head
0000f88c g     F .text	00000110 alt_up_ethernet_init
0000c98c g     F .text	00000138 __unpack_d
0000a9dc g     F .text	00000110 _fclose_r
00010080 g     F .text	00000034 read_num_bytes_available
00007650 g     F .text	00000034 fflush
000181d8 g     O .bss	00000004 __malloc_max_sbrked_mem
0000ce48 g     F .text	000001c0 alt_irq_register
0000ffe8 g     F .text	00000034 read_RI_bit
00003220 g     F .text	00000054 __extendsfdf2
0000bcf0 g     F .text	00000074 __adddf3
00009138 g     F .text	00000120 __b2d
007b94c4 g     O .bss	000000f0 Avrage_Hardware
00011048 g     F .text	00000164 alt_up_pixel_buffer_dma_clear_screen
0000b2b0 g     F .text	000005b0 __umoddi3
0000d214 g     F .text	000000f0 lseek
0001814c g     O .bss	00000004 Read_Reg0
00016078 g     O .rwdata	00000004 _global_impure_ptr
00009ef0 g     F .text	000005f4 _realloc_r
007b9934 g       *ABS*	00000000 __bss_end
000111ac g     F .text	000004f4 alt_up_pixel_buffer_dma_draw_box
00012b98 g     F .text	0000010c alt_tick
0000acd4 g     F .text	000005dc __udivdi3
00013e00 g     O .rodata	00000028 __mprec_bigtens
00009dd0 g     F .text	00000120 __s2b
0000c7f8 g     F .text	00000194 __floatunsidf
00009058 g     F .text	00000060 __mcmp
0c000000 g       *ABS*	00000000 __alt_mem_Flash_flash_data
0000eb50 g     F .text	00000040 alt_up_audio_open_dev
000100e8 g     F .text	0000002c read_data_byte
000077b8 g     F .text	00000018 __fp_lock_all
0001824c g     O .bss	001e8480 Echo_buf_l
0000ef8c g     F .text	00000070 alt_up_audio_play_r
00012b00 g     F .text	00000098 alt_alarm_stop
0001001c g     F .text	00000030 read_RE_bit
000181e4 g     O .bss	00000004 alt_irq_active
00018164 g     O .bss	00000004 Echo_complete
0000fcfc g     F .text	00000040 alt_up_irda_get_available_space_in_write_FIFO
000000ec g     F .exceptions	000000cc alt_irq_handler
00014ab8 g     O .rwdata	00000028 alt_dev_null
00003698 g     F .text	000000c8 __unpack_f
0000f858 g     F .text	00000034 alt_up_character_lcd_cursor_blink_on
0000ffa8 g     F .text	00000040 alt_up_parallel_port_open_dev
0001818c g     O .bss	00000004 Echo
0001028c g     F .text	00000078 alt_up_ps2_write_data_byte
00000520 g     F .text	00000030 amplitude_circute_set_lbuff_addr
00012444 g     F .text	0000001c alt_dcache_flush_all
00008f24 g     F .text	00000070 __hi0bits
000181a8 g     O .bss	00000004 nibble_TempY
000181ac g     O .bss	00000004 nibble_TempX
00011dc0 g     F .text	000000c4 alt_up_pixel_buffer_dma_draw_rectangle
0000c720 g     F .text	000000d8 __fixdfsi
007b95b4 g     O .bss	000000f0 Average
00018168 g     O .bss	00000004 Play_Flag
000160b4 g       *ABS*	00000000 __ram_rwdata_end
00016094 g     O .rwdata	00000008 alt_dev_list
0000d944 g     F .text	00000120 write
0001324c g     F .text	000000e8 _putc_r
0000eb28 g     F .text	00000028 alt_timestamp_freq
00011f54 g     F .text	0000039c alt_up_pixel_buffer_dma_draw_line
00014024 g       *ABS*	00000000 __ram_rodata_end
0000cd14 g     F .text	000000d4 fstat
000109ac g     F .text	00000094 alt_up_rs232_write_fd
000005dc g     F .text	00000070 amplitude_circute_get_status
000140a4 g     O .rwdata	00000200 Mouse_Icon
00000000 g       *ABS*	00000000 __alt_mem_SDRAM
000181b0 g     O .bss	00000004 RightBtn
00009cb0 g     F .text	00000120 __pow5mult
000181c8 g     O .bss	00000004 __nlocale_changed
000034b0 g     F .text	00000008 __umodsi3
007b9934 g       *ABS*	00000000 end
00010600 g     F .text	000000a8 alt_up_ps2_write_fd
00003538 g     F .text	00000160 __pack_f
0000fd3c g     F .text	00000050 alt_up_irda_check_parity
00010a80 g     F .text	00000084 alt_up_char_buffer_init
002006cc g     O .bss	001e8480 r_buf
0000e088 g     F .text	000000b8 altera_avalon_jtag_uart_init
000137c8 g       *ABS*	00000000 __CTOR_LIST__
00800000 g       *ABS*	00000000 __alt_stack_pointer
000034b8 g     F .text	00000080 __clzsi2
0000e7a8 g     F .text	00000240 altera_avalon_jtag_uart_write
000076dc g     F .text	00000004 __sfp_lock_acquire
00008d38 g     F .text	000000e4 memchr
0000f480 g     F .text	00000078 alt_up_character_lcd_write
00003c7c g     F .text	00001eac ___vfprintf_internal_r
000004f0 g     F .text	00000030 amplitude_circute_set_rbuff_addr
00007a70 g     F .text	00000314 _free_r
0000d410 g     F .text	00000258 alt_printf
000135b8 g     F .text	000001b0 __call_exitprocs
00002784 g     F .text	0000010c Plot_Play_Audio
000181cc g     O .bss	00000004 __mlocale_changed
00016088 g     O .rwdata	00000004 __malloc_sbrk_base
000001b8 g     F .text	0000003c _start
000181fc g     O .bss	00000004 _alt_tick_rate
0000f170 g     F .text	0000012c alt_up_audio_write_fifo
00009840 g     F .text	0000014c __lshift
00018200 g     O .bss	00000004 _alt_nticks
0000d6a8 g     F .text	00000120 read
0000daf8 g     F .text	00000410 alt_sys_init
0000f6e4 g     F .text	000000b0 alt_up_character_lcd_shift_display
0000f06c g     F .text	00000104 alt_up_audio_read_fifo
00013480 g     F .text	00000134 __register_exitproc
0000ec78 g     F .text	00000050 alt_up_audio_disable_write_interrupt
0001050c g     F .text	00000058 alt_up_ps2_clear_fifo
000107d0 g     F .text	00000040 alt_up_rs232_get_available_space_in_write_FIFO
0000998c g     F .text	000001e8 __multiply
0000f794 g     F .text	00000090 alt_up_character_lcd_erase_pos
0000e41c g     F .text	00000074 altera_avalon_jtag_uart_close
00014024 g       *ABS*	00000000 __ram_rwdata_start
000137cc g       *ABS*	00000000 __ram_rodata_start
00018204 g     O .bss	00000028 __malloc_current_mallinfo
00009538 g     F .text	0000017c __d2b
0000df40 g     F .text	00000058 altera_avalon_jtag_uart_read_fd
00012f40 g     F .text	000000b8 alt_get_fd
00012cf4 g     F .text	0000012c alt_busy_sleep
0000cac4 g     F .text	000000c8 __fpcmp_parts_d
0000a96c g     F .text	00000070 _close_r
000181b4 g     O .bss	00000004 Xsign
0000ec2c g     F .text	0000004c alt_up_audio_enable_write_interrupt
003e8b4c g     O .bss	001e8480 Echo_buf_r
000130d4 g     F .text	00000074 memcmp
0000dff0 g     F .text	00000048 altera_avalon_jtag_uart_close_fd
007b9934 g       *ABS*	00000000 __alt_stack_base
0000e038 g     F .text	00000050 altera_avalon_jtag_uart_ioctl_fd
0000fc14 g     F .text	00000054 alt_up_irda_enable_read_interrupt
00005b4c g     F .text	0000013c __swsetup_r
0000c128 g     F .text	00000258 __divdf3
0000ebdc g     F .text	00000050 alt_up_audio_disable_read_interrupt
00007854 g     F .text	000000f0 __sfp
0000939c g     F .text	00000058 __copybits
000146b0 g     O .rwdata	00000408 __malloc_av_
000076e8 g     F .text	00000004 __sinit_lock_release
0000bd64 g     F .text	000003c4 __muldf3
0000a6b0 g     F .text	00000060 __sread
0001073c g     F .text	00000058 alt_up_rs232_disable_read_interrupt
00012e20 g     F .text	00000120 alt_find_file
00012460 g     F .text	000000b4 alt_dev_llist_insert
0000d3d0 g     F .text	00000020 __malloc_lock
0000d888 g     F .text	000000bc sbrk
00007454 g     F .text	000001fc _fflush_r
0000a8b8 g     F .text	000000b4 _calloc_r
00018144 g       *ABS*	00000000 __bss_start
00003b14 g     F .text	00000098 memset
0001816c g     O .bss	00000004 Clear_Play_Plot
00000b3c g     F .text	00001354 main
0000ef18 g     F .text	00000074 alt_up_audio_write_fifo_space
000181f0 g     O .bss	00000004 alt_envp
000181dc g     O .bss	00000004 __malloc_max_total_mem
00010fbc g     F .text	00000058 alt_up_pixel_buffer_dma_swap_buffers
00010b04 g     F .text	00000040 alt_up_char_buffer_open_dev
0000df98 g     F .text	00000058 altera_avalon_jtag_uart_write_fd
00018170 g     O .bss	00000004 End_Record
00013464 g     F .text	0000001c __swbuf
0000f634 g     F .text	000000b0 alt_up_character_lcd_shift_cursor
0000a5c4 g     F .text	00000008 __sclose
00800000 g       *ABS*	00000000 __alt_heap_limit
0000aaec g     F .text	00000014 fclose
00010490 g     F .text	0000007c alt_up_ps2_read_data_byte
00018174 g     O .bss	00000004 timeout
0000e9e8 g     F .text	000000a4 alt_timestamp_start
007b97a4 g     O .bss	00000190 _atexit0
00005ea0 g     F .text	000015b4 _dtoa_r
000085f8 g     F .text	00000740 _malloc_r
000160a0 g     O .rwdata	00000004 alt_errno
000082e8 g     F .text	000000b8 _fwalk
00018150 g     O .bss	00000004 Done_Bit
0000fd8c g     F .text	00000048 alt_up_irda_write_data
000106a8 g     F .text	00000040 alt_up_ps2_open_dev
00013148 g     F .text	00000104 putc
000033e8 g     F .text	00000060 __divsi3
00013e5c g     O .rodata	00000014 __thenan_df
0000f440 g     F .text	00000040 alt_up_character_lcd_open_dev
00007944 g     F .text	0000012c _malloc_trim_r
000101e0 g     F .text	00000054 alt_up_ps2_enable_read_interrupt
000137cc g       *ABS*	00000000 __CTOR_END__
0000f40c g     F .text	00000034 alt_up_character_lcd_init
0000a710 g     F .text	000000bc strcmp
000137cc g       *ABS*	00000000 __flash_rodata_start
000137cc g       *ABS*	00000000 __DTOR_LIST__
00010a40 g     F .text	00000040 alt_up_rs232_open_dev
00018178 g     O .bss	00000004 count
0000c408 g     F .text	00000088 __nedf2
0000dac4 g     F .text	00000034 alt_irq_init
0000d828 g     F .text	00000060 alt_release_fd
000100b4 g     F .text	00000034 read_data_valid
0000f824 g     F .text	00000034 alt_up_character_lcd_cursor_off
00013b64 g     O .rodata	00000100 __clz_tab
000181d0 g     O .bss	00000004 _PathLocale
00010374 g     F .text	0000006c alt_up_ps2_write_data_byte_with_ack
00013088 g     F .text	00000014 atexit
000181b8 g     O .bss	00000004 Temp_Sign
0000a840 g     F .text	00000078 _write_r
00008448 g     F .text	0000001c setlocale
00002a50 g     F .text	000000b8 pushbutton_ISR
000001f4 g     F .text	00000148 PS2_ISR
00016074 g     O .rwdata	00000004 _impure_ptr
0001817c g     O .bss	00000004 buf_index_play
000181e8 g     O .bss	00000004 alt_argc
000181f4 g     O .bss	00000004 altera_avalon_timer_ts_base
000125d8 g     F .text	00000064 _do_dtors
00000020 g       .exceptions	00000000 alt_irq_entry
000090b8 g     F .text	00000080 __ulp
0000a4e4 g     F .text	00000040 __isinfd
000077a0 g     F .text	00000018 __fp_unlock_all
0001608c g     O .rwdata	00000008 alt_fs_list
000106e8 g     F .text	00000054 alt_up_rs232_enable_read_interrupt
0000eea8 g     F .text	00000070 alt_up_audio_record_l
00018190 g     O .bss	00000004 anita0
00010860 g     F .text	00000048 alt_up_rs232_write_data
0000fa5c g     F .text	000000e0 alt_up_ethernet_phy_reg_read
00000020 g       *ABS*	00000000 __ram_exceptions_start
000083b4 g     F .text	00000010 localeconv
0000ea8c g     F .text	0000009c alt_timestamp
00001e90 g     F .text	0000030c HEXxy_PS2
000160b4 g       *ABS*	00000000 _edata
007b9934 g       *ABS*	00000000 _end
000001b8 g       *ABS*	00000000 __ram_exceptions_end
0000e490 g     F .text	000000f4 altera_avalon_jtag_uart_ioctl
000006a4 g     F .text	00000438 audio_ISR
005d0fcc g     O .bss	001e8480 l_buf
0000effc g     F .text	00000070 alt_up_audio_play_l
00018180 g     O .bss	00000001 local_b3
0000a634 g     F .text	0000007c __swrite
00016084 g     O .rwdata	00000004 __malloc_trim_threshold
00012cd4 g     F .text	00000020 altera_nios2_qsys_irq_init
0001309c g     F .text	00000038 exit
0000fdd4 g     F .text	00000074 alt_up_irda_read_data
00008220 g     F .text	000000c8 _fwalk_reent
00003274 g     F .text	000000c0 __floatunsisf
00010114 g     F .text	000000cc alt_up_ps2_init
000096b4 g     F .text	0000018c __mdiff
00003448 g     F .text	00000060 __modsi3
000181bc g     O .bss	00000004 LeftBtn
00800000 g       *ABS*	00000000 __alt_data_end
00000020 g     F .exceptions	00000000 alt_exception
000076e0 g     F .text	00000004 __sfp_lock_release
0000f4f8 g     F .text	00000078 alt_up_character_lcd_string
00002890 g     F .text	0000004c Do_Hardware_Calculate
0000ff68 g     F .text	00000040 alt_up_irda_open_dev
00018144 g     O .bss	00000004 Base_Data
0000064c g     F .text	00000058 amplitude_circute_get_size
00018194 g     O .bss	00000004 anita1
000137a8 g     F .text	00000020 _exit
0000a524 g     F .text	00000030 __isnand
000122f0 g     F .text	00000154 alt_alarm_start
00002340 g     F .text	0000018c Plot_AudioRecord
00002b08 g     F .text	00000098 __muldi3
00008464 g     F .text	00000194 __smakebuf_r
00010304 g     F .text	00000070 alt_up_ps2_wait_for_ack
0000a7cc g     F .text	00000074 strlen
0000f99c g     F .text	00000040 alt_up_ethernet_open_dev
00012918 g     F .text	00000188 open
0000c518 g     F .text	00000088 __gedf2
0000d668 g     F .text	00000040 alt_putchar
00018184 g     O .bss	00000004 buf_index_record
000126d0 g     F .text	00000030 alt_icache_flush_all
0000fb3c g     F .text	000000d8 alt_up_ethernet_phy_reg_write
0000f5bc g     F .text	00000078 alt_up_character_lcd_set_cursor_pos
000160a4 g     O .rwdata	00000004 alt_priority_mask
00005b28 g     F .text	00000024 __vfprintf_internal
00010564 g     F .text	0000009c alt_up_ps2_read_fd
00000580 g     F .text	0000005c amplitude_circute_start
0000bc70 g     F .text	00000080 __subdf3
0000fe48 g     F .text	00000090 alt_up_irda_read_fd
00008f94 g     F .text	000000c4 __lo0bits
000160ac g     O .rwdata	00000008 alt_alarm_list
00012574 g     F .text	00000064 _do_ctors
00010794 g     F .text	0000003c alt_up_rs232_get_used_space_in_read_FIFO
000181c0 g     O .bss	00000004 YoverFlow
0000cb8c g     F .text	000000fc close
00018188 g     O .bss	00000004 Click_Echo
000181c4 g     O .bss	00000004 Ysign
0000d128 g     F .text	00000080 alt_load
0000f9dc g     F .text	0000003c alt_up_ethernet_reg_read
0000eb90 g     F .text	0000004c alt_up_audio_enable_read_interrupt
00003760 g     F .text	00000314 __pack_d
00000550 g     F .text	00000030 amplitude_circute_set_dest_addr
00000000  w      *UND*	00000000 free
000076e4 g     F .text	00000004 __sinit_lock_acquire
00009bb0 g     F .text	00000100 __multadd
00008efc g     F .text	00000028 _Bfree
0000ecc8 g     F .text	0000003c alt_up_audio_read_interrupt_pending



Disassembly of section .entry:

00000000 <__reset>:
#if NIOS2_ICACHE_SIZE > 0 && defined(ALT_ALLOW_CODE_AT_RESET) && !defined(ALT_SIM_OPTIMIZE)
    /* Assume the instruction cache size is always a power of two. */
#if NIOS2_ICACHE_SIZE > 0x8000
    movhi r2, %hi(NIOS2_ICACHE_SIZE)
#else
    movui r2, NIOS2_ICACHE_SIZE
   0:	00840014 	movui	r2,4096
#endif

0:
    initi r2
   4:	1001483a 	initi	r2
    addi r2, r2, -NIOS2_ICACHE_LINE_SIZE
   8:	10bff804 	addi	r2,r2,-32
    bgt r2, zero, 0b
   c:	00bffd16 	blt	zero,r2,4 <__reset+0x4>
 * Jump to the _start entry point in the .text section if reset code
 * is allowed or if optimizing for RTL simulation.
 */
#if defined(ALT_ALLOW_CODE_AT_RESET) || defined(ALT_SIM_OPTIMIZE)
    /* Jump to the _start entry point in the .text section. */
    movhi r1, %hi(_start)
  10:	00400034 	movhi	at,0
    ori r1, r1, %lo(_start)
  14:	08406e14 	ori	at,at,440
    jmp r1
  18:	0800683a 	jmp	at
  1c:	00000000 	call	0 <__reset>

Disassembly of section .exceptions:

00000020 <alt_exception>:
         * Process an exception.  For all exceptions we must preserve all
         * caller saved registers on the stack (See the Nios2 ABI
         * documentation for details).
         */

        addi  sp, sp, -76
  20:	deffed04 	addi	sp,sp,-76

#endif

#endif

        stw   ra,  0(sp)
  24:	dfc00015 	stw	ra,0(sp)
        /*
         * Leave a gap in the stack frame at 4(sp) for the muldiv handler to
         * store zero into.
         */

        stw   r1,   8(sp)
  28:	d8400215 	stw	at,8(sp)
        stw   r2,  12(sp)
  2c:	d8800315 	stw	r2,12(sp)
        stw   r3,  16(sp)
  30:	d8c00415 	stw	r3,16(sp)
        stw   r4,  20(sp)
  34:	d9000515 	stw	r4,20(sp)
        stw   r5,  24(sp)
  38:	d9400615 	stw	r5,24(sp)
        stw   r6,  28(sp)
  3c:	d9800715 	stw	r6,28(sp)
        stw   r7,  32(sp)
  40:	d9c00815 	stw	r7,32(sp)

        rdctl r5, estatus
  44:	000b307a 	rdctl	r5,estatus

        stw   r8,  36(sp)
  48:	da000915 	stw	r8,36(sp)
        stw   r9,  40(sp)
  4c:	da400a15 	stw	r9,40(sp)
        stw   r10, 44(sp)
  50:	da800b15 	stw	r10,44(sp)
        stw   r11, 48(sp)
  54:	dac00c15 	stw	r11,48(sp)
        stw   r12, 52(sp)
  58:	db000d15 	stw	r12,52(sp)
        stw   r13, 56(sp)
  5c:	db400e15 	stw	r13,56(sp)
        stw   r14, 60(sp)
  60:	db800f15 	stw	r14,60(sp)
        stw   r15, 64(sp)
  64:	dbc01015 	stw	r15,64(sp)
        /*
         * ea-4 contains the address of the instruction being executed
         * when the exception occured. For interrupt exceptions, we will
         * will be re-issue the isntruction. Store it in 72(sp)
         */
        stw   r5,  68(sp)  /* estatus */
  68:	d9401115 	stw	r5,68(sp)
        addi  r15, ea, -4  /* instruction that caused exception */
  6c:	ebffff04 	addi	r15,ea,-4
        stw   r15,  72(sp)
  70:	dbc01215 	stw	r15,72(sp)
#else
        /*
         * Test to see if the exception was a software exception or caused 
         * by an external interrupt, and vector accordingly.
         */
        rdctl r4, ipending
  74:	0009313a 	rdctl	r4,ipending
        andi  r2, r5, 1
  78:	2880004c 	andi	r2,r5,1
        beq   r2, zero, .Lnot_irq
  7c:	10000326 	beq	r2,zero,8c <alt_exception+0x6c>
        beq   r4, zero, .Lnot_irq
  80:	20000226 	beq	r4,zero,8c <alt_exception+0x6c>
        /*
         * Now that all necessary registers have been preserved, call 
         * alt_irq_handler() to process the interrupts.
         */

        call alt_irq_handler
  84:	00000ec0 	call	ec <alt_irq_handler>

        .section .exceptions.irqreturn, "xa"

        br    .Lexception_exit
  88:	00000306 	br	98 <alt_exception+0x78>
         * upon completion, so we write ea (address of instruction *after*
         * the one where the exception occured) into 72(sp). The actual
         * instruction that caused the exception is written in r2, which these
         * handlers will utilize.
         */
        stw   ea,  72(sp)  /* Don't re-issue */
  8c:	df401215 	stw	ea,72(sp)
        ldw   r2, -4(ea)   /* Instruction that caused exception */
  90:	e8bfff17 	ldw	r2,-4(ea)
#ifdef NIOS2_HAS_DEBUG_STUB
       /*
        *  Either tell the user now (if there is a debugger attached) or go into
        *  the debug monitor which will loop until a debugger is attached.
        */
        break
  94:	003da03a 	break	0
        /* 
         * Restore the saved registers, so that all general purpose registers 
         * have been restored to their state at the time the interrupt occured.
         */

        ldw   r5,  68(sp)
  98:	d9401117 	ldw	r5,68(sp)
        ldw   ea,  72(sp)  /* This becomes the PC once eret is executed */
  9c:	df401217 	ldw	ea,72(sp)
        ldw   ra,   0(sp)
  a0:	dfc00017 	ldw	ra,0(sp)

        wrctl estatus, r5
  a4:	2801707a 	wrctl	estatus,r5

        ldw   r1,   8(sp)
  a8:	d8400217 	ldw	at,8(sp)
        ldw   r2,  12(sp)
  ac:	d8800317 	ldw	r2,12(sp)
        ldw   r3,  16(sp)
  b0:	d8c00417 	ldw	r3,16(sp)
        ldw   r4,  20(sp)
  b4:	d9000517 	ldw	r4,20(sp)
        ldw   r5,  24(sp)
  b8:	d9400617 	ldw	r5,24(sp)
        ldw   r6,  28(sp)
  bc:	d9800717 	ldw	r6,28(sp)
        ldw   r7,  32(sp)
  c0:	d9c00817 	ldw	r7,32(sp)
#ifdef ALT_STACK_CHECK
        ldw   et, %gprel(alt_exception_old_stack_limit)(gp)
#endif
#endif

        ldw   r8,  36(sp)
  c4:	da000917 	ldw	r8,36(sp)
        ldw   r9,  40(sp)
  c8:	da400a17 	ldw	r9,40(sp)
        ldw   r10, 44(sp)
  cc:	da800b17 	ldw	r10,44(sp)
        ldw   r11, 48(sp)
  d0:	dac00c17 	ldw	r11,48(sp)
        ldw   r12, 52(sp)
  d4:	db000d17 	ldw	r12,52(sp)
        ldw   r13, 56(sp)
  d8:	db400e17 	ldw	r13,56(sp)
        ldw   r14, 60(sp)
  dc:	db800f17 	ldw	r14,60(sp)
        ldw   r15, 64(sp)
  e0:	dbc01017 	ldw	r15,64(sp)
#endif

        ldw   sp,  76(sp)

#else
        addi  sp, sp, 76
  e4:	dec01304 	addi	sp,sp,76

        /*
         * Return to the interrupted instruction.
         */

        eret
  e8:	ef80083a 	eret

000000ec <alt_irq_handler>:
 * instruction is present if the macro ALT_CI_INTERRUPT_VECTOR defined.
 */

void alt_irq_handler (void) __attribute__ ((section (".exceptions")));
void alt_irq_handler (void)
{
  ec:	defff904 	addi	sp,sp,-28
  f0:	dfc00615 	stw	ra,24(sp)
  f4:	df000515 	stw	fp,20(sp)
  f8:	df000504 	addi	fp,sp,20
#ifndef NIOS2_EIC_PRESENT
static ALT_INLINE alt_u32 ALT_ALWAYS_INLINE alt_irq_pending (void)
{
  alt_u32 active;

  NIOS2_READ_IPENDING (active);
  fc:	0005313a 	rdctl	r2,ipending
 100:	e0bffc15 	stw	r2,-16(fp)

  return active;
 104:	e0bffc17 	ldw	r2,-16(fp)
   * Consider the case where the high priority interupt is asserted during
   * the interrupt entry sequence for a lower priority interrupt to see why
   * this is the case.
   */

  active = alt_irq_pending ();
 108:	e0bfff15 	stw	r2,-4(fp)

  do
  {
    i = 0;
 10c:	e03ffd15 	stw	zero,-12(fp)
    mask = 1;
 110:	00800044 	movi	r2,1
 114:	e0bffe15 	stw	r2,-8(fp)
     * called to clear the interrupt condition.
     */

    do
    {
      if (active & mask)
 118:	e0ffff17 	ldw	r3,-4(fp)
 11c:	e0bffe17 	ldw	r2,-8(fp)
 120:	1884703a 	and	r2,r3,r2
 124:	1005003a 	cmpeq	r2,r2,zero
 128:	1000171e 	bne	r2,zero,188 <alt_irq_handler+0x9c>
      { 
#ifdef ALT_ENHANCED_INTERRUPT_API_PRESENT
        alt_irq[i].handler(alt_irq[i].context); 
#else
        alt_irq[i].handler(alt_irq[i].context, i); 
 12c:	e0bffd17 	ldw	r2,-12(fp)
 130:	00c01f34 	movhi	r3,124
 134:	18e5a904 	addi	r3,r3,-26972
 138:	100490fa 	slli	r2,r2,3
 13c:	10c5883a 	add	r2,r2,r3
 140:	11800017 	ldw	r6,0(r2)
 144:	e0bffd17 	ldw	r2,-12(fp)
 148:	00c01f34 	movhi	r3,124
 14c:	18e5a904 	addi	r3,r3,-26972
 150:	100490fa 	slli	r2,r2,3
 154:	10c5883a 	add	r2,r2,r3
 158:	10800104 	addi	r2,r2,4
 15c:	11000017 	ldw	r4,0(r2)
 160:	e17ffd17 	ldw	r5,-12(fp)
 164:	303ee83a 	callr	r6
#ifndef NIOS2_EIC_PRESENT
static ALT_INLINE alt_u32 ALT_ALWAYS_INLINE alt_irq_pending (void)
{
  alt_u32 active;

  NIOS2_READ_IPENDING (active);
 168:	0005313a 	rdctl	r2,ipending
 16c:	e0bffb15 	stw	r2,-20(fp)

  return active;
 170:	e0bffb17 	ldw	r2,-20(fp)
      mask <<= 1;
      i++;

    } while (1);

    active = alt_irq_pending ();
 174:	e0bfff15 	stw	r2,-4(fp)
    
  } while (active);
 178:	e0bfff17 	ldw	r2,-4(fp)
 17c:	1004c03a 	cmpne	r2,r2,zero
 180:	103fe21e 	bne	r2,zero,10c <alt_irq_handler+0x20>
 184:	00000706 	br	1a4 <alt_irq_handler+0xb8>
#else
        alt_irq[i].handler(alt_irq[i].context, i); 
#endif
        break;
      }
      mask <<= 1;
 188:	e0bffe17 	ldw	r2,-8(fp)
 18c:	1085883a 	add	r2,r2,r2
 190:	e0bffe15 	stw	r2,-8(fp)
      i++;
 194:	e0bffd17 	ldw	r2,-12(fp)
 198:	10800044 	addi	r2,r2,1
 19c:	e0bffd15 	stw	r2,-12(fp)

    } while (1);
 1a0:	003fdd06 	br	118 <alt_irq_handler+0x2c>
  /*
   * Notify the operating system that interrupt processing is complete.
   */ 

  ALT_OS_INT_EXIT();
}
 1a4:	e037883a 	mov	sp,fp
 1a8:	dfc00117 	ldw	ra,4(sp)
 1ac:	df000017 	ldw	fp,0(sp)
 1b0:	dec00204 	addi	sp,sp,8
 1b4:	f800283a 	ret

Disassembly of section .text:

000001b8 <_start>:
#if (NIOS2_NUM_OF_SHADOW_REG_SETS == 0)    
    /*
     * Now that the caches are initialized, set up the stack pointer.
     * The value provided by the linker is assumed to be correctly aligned.
     */
    movhi sp, %hi(__alt_stack_pointer)
     1b8:	06c02034 	movhi	sp,128
    ori sp, sp, %lo(__alt_stack_pointer)
     1bc:	dec00014 	ori	sp,sp,0

    /* Set up the global pointer. */
    movhi gp, %hi(_gp)
     1c0:	06800074 	movhi	gp,1
    ori gp, gp, %lo(_gp)
     1c4:	d6b81d14 	ori	gp,gp,57460
 */
#ifndef ALT_SIM_OPTIMIZE
    /* Log that the BSS is about to be cleared. */
    ALT_LOG_PUTS(alt_log_msg_bss)

    movhi r2, %hi(__bss_start)
     1c8:	00800074 	movhi	r2,1
    ori r2, r2, %lo(__bss_start)
     1cc:	10a05114 	ori	r2,r2,33092

    movhi r3, %hi(__bss_end)
     1d0:	00c01ef4 	movhi	r3,123
    ori r3, r3, %lo(__bss_end)
     1d4:	18e64d14 	ori	r3,r3,39220

    beq r2, r3, 1f
     1d8:	10c00326 	beq	r2,r3,1e8 <_start+0x30>

0:
    stw zero, (r2)
     1dc:	10000015 	stw	zero,0(r2)
    addi r2, r2, 4
     1e0:	10800104 	addi	r2,r2,4
    bltu r2, r3, 0b
     1e4:	10fffd36 	bltu	r2,r3,1dc <_start+0x24>
     * section aren't defined until alt_load() has been called).
     */
    mov   et, zero
#endif

    call alt_load
     1e8:	000d1280 	call	d128 <alt_load>

    /* Log that alt_main is about to be called. */
    ALT_LOG_PUTS(alt_log_msg_alt_main)

    /* Call the C entry point. It should never return. */
    call alt_main
     1ec:	000d3640 	call	d364 <alt_main>

000001f0 <alt_after_alt_main>:

    /* Wait in infinite loop in case alt_main does return. */
alt_after_alt_main:
    br alt_after_alt_main
     1f0:	003fff06 	br	1f0 <alt_after_alt_main>

000001f4 <PS2_ISR>:
 * value to the global variable key_pressed. If it is KEY3 then it loads the SW switch 
 * values and stores in the variable pattern
****************************************************************************************/

void PS2_ISR(struct alt_up_dev *up_dev, unsigned int id)
{
     1f4:	defffb04 	addi	sp,sp,-20
     1f8:	dfc00415 	stw	ra,16(sp)
     1fc:	df000315 	stw	fp,12(sp)
     200:	df000304 	addi	fp,sp,12
     204:	e13ffe15 	stw	r4,-8(fp)
     208:	e17fff15 	stw	r5,-4(fp)

	unsigned char PS2_data;


	/* check for PS/2 data--display on HEX displays */
	if (alt_up_ps2_read_data_byte (up_dev->PS2_dev, &PS2_data) == 0)
     20c:	e0bffe17 	ldw	r2,-8(fp)
     210:	11000317 	ldw	r4,12(r2)
     214:	e17ffd04 	addi	r5,fp,-12
     218:	00104900 	call	10490 <alt_up_ps2_read_data_byte>
     21c:	1004c03a 	cmpne	r2,r2,zero
     220:	1000411e 	bne	r2,zero,328 <PS2_ISR+0x134>
	{
		count++;
     224:	008000b4 	movhi	r2,2
     228:	10a05e04 	addi	r2,r2,-32392
     22c:	10800017 	ldw	r2,0(r2)
     230:	10c00044 	addi	r3,r2,1
     234:	008000b4 	movhi	r2,2
     238:	10a05e04 	addi	r2,r2,-32392
     23c:	10c00015 	stw	r3,0(r2)
		local_b1 = local_b2;
     240:	008000b4 	movhi	r2,2
     244:	10a05744 	addi	r2,r2,-32419
     248:	10c00003 	ldbu	r3,0(r2)
     24c:	008000b4 	movhi	r2,2
     250:	10a05784 	addi	r2,r2,-32418
     254:	10c00005 	stb	r3,0(r2)
		local_b2 = local_b3;
     258:	008000b4 	movhi	r2,2
     25c:	10a06004 	addi	r2,r2,-32384
     260:	10c00003 	ldbu	r3,0(r2)
     264:	008000b4 	movhi	r2,2
     268:	10a05744 	addi	r2,r2,-32419
     26c:	10c00005 	stb	r3,0(r2)
		local_b3 = PS2_data;
     270:	e0fffd03 	ldbu	r3,-12(fp)
     274:	008000b4 	movhi	r2,2
     278:	10a06004 	addi	r2,r2,-32384
     27c:	10c00005 	stb	r3,0(r2)
		if(count == 3){
     280:	008000b4 	movhi	r2,2
     284:	10a05e04 	addi	r2,r2,-32392
     288:	10800017 	ldw	r2,0(r2)
     28c:	108000d8 	cmpnei	r2,r2,3
     290:	1000151e 	bne	r2,zero,2e8 <PS2_ISR+0xf4>
			byte1 = local_b1;
     294:	008000b4 	movhi	r2,2
     298:	10a05784 	addi	r2,r2,-32418
     29c:	10c00003 	ldbu	r3,0(r2)
     2a0:	008000b4 	movhi	r2,2
     2a4:	10a05704 	addi	r2,r2,-32420
     2a8:	10c00005 	stb	r3,0(r2)
			byte2 = local_b2;
     2ac:	008000b4 	movhi	r2,2
     2b0:	10a05744 	addi	r2,r2,-32419
     2b4:	10c00003 	ldbu	r3,0(r2)
     2b8:	008000b4 	movhi	r2,2
     2bc:	10a05504 	addi	r2,r2,-32428
     2c0:	10c00005 	stb	r3,0(r2)
			byte3 = local_b3;
     2c4:	008000b4 	movhi	r2,2
     2c8:	10a06004 	addi	r2,r2,-32384
     2cc:	10c00003 	ldbu	r3,0(r2)
     2d0:	008000b4 	movhi	r2,2
     2d4:	10a05544 	addi	r2,r2,-32427
     2d8:	10c00005 	stb	r3,0(r2)
			count = 0;
     2dc:	008000b4 	movhi	r2,2
     2e0:	10a05e04 	addi	r2,r2,-32392
     2e4:	10000015 	stw	zero,0(r2)
		}
		/* allows save the last three bytes of data */
//		byte1 = byte2;
//		byte2 = byte3;
//		byte3 = PS2_data;
		if ( (local_b2 == (unsigned char) 0xAA) && (local_b3 == (unsigned char) 0x00) )
     2e8:	008000b4 	movhi	r2,2
     2ec:	10a05744 	addi	r2,r2,-32419
     2f0:	10800003 	ldbu	r2,0(r2)
     2f4:	10803fcc 	andi	r2,r2,255
     2f8:	10802a98 	cmpnei	r2,r2,170
     2fc:	10000a1e 	bne	r2,zero,328 <PS2_ISR+0x134>
     300:	008000b4 	movhi	r2,2
     304:	10a06004 	addi	r2,r2,-32384
     308:	10800003 	ldbu	r2,0(r2)
     30c:	10803fcc 	andi	r2,r2,255
     310:	1004c03a 	cmpne	r2,r2,zero
     314:	1000041e 	bne	r2,zero,328 <PS2_ISR+0x134>
			// mouse inserted; initialize sending of data
			(void) alt_up_ps2_write_data_byte (up_dev->PS2_dev, (unsigned char) 0xF4);
     318:	e0bffe17 	ldw	r2,-8(fp)
     31c:	11000317 	ldw	r4,12(r2)
     320:	01403d04 	movi	r5,244
     324:	001028c0 	call	1028c <alt_up_ps2_write_data_byte>
	}

	return;
}
     328:	e037883a 	mov	sp,fp
     32c:	dfc00117 	ldw	ra,4(sp)
     330:	df000017 	ldw	fp,0(sp)
     334:	dec00204 	addi	sp,sp,8
     338:	f800283a 	ret

0000033c <amplitude_operation>:
#include "amplitude_calculation.h"

void amplitude_operation(int size, int num, int rbuff_addr, int lbuff_addr, int dest_addr)
{
     33c:	defffa04 	addi	sp,sp,-24
     340:	dfc00515 	stw	ra,20(sp)
     344:	df000415 	stw	fp,16(sp)
     348:	df000404 	addi	fp,sp,16
     34c:	e13ffc15 	stw	r4,-16(fp)
     350:	e17ffd15 	stw	r5,-12(fp)
     354:	e1bffe15 	stw	r6,-8(fp)
     358:	e1ffff15 	stw	r7,-4(fp)
	amplitude_circute_stop();
     35c:	00003b00 	call	3b0 <amplitude_circute_stop>
	amplitude_circute_set_size(size);
     360:	e13ffc17 	ldw	r4,-16(fp)
     364:	00004280 	call	428 <amplitude_circute_set_size>
	amplitude_circute_get_size();
     368:	000064c0 	call	64c <amplitude_circute_get_size>
	amplitude_circute_set_num(num);
     36c:	e13ffd17 	ldw	r4,-12(fp)
     370:	00004980 	call	498 <amplitude_circute_set_num>
	// also for your debugging make int amplitude_circute_get_num(); (optional)
	amplitude_circute_set_rbuff_addr(rbuff_addr);
     374:	e13ffe17 	ldw	r4,-8(fp)
     378:	00004f00 	call	4f0 <amplitude_circute_set_rbuff_addr>
	// also for your debugging make int amplitude_circute_get_lbuff_addr(); (optional)
	amplitude_circute_set_lbuff_addr(lbuff_addr);
     37c:	e13fff17 	ldw	r4,-4(fp)
     380:	00005200 	call	520 <amplitude_circute_set_lbuff_addr>
	// also for your debugging make int amplitude_circute_get_rbuff_addr(); (optional)
	amplitude_circute_set_dest_addr(dest_addr);
     384:	e1000217 	ldw	r4,8(fp)
     388:	00005500 	call	550 <amplitude_circute_set_dest_addr>
	// also for your debugging make int amplitude_circute_get_dest_addr(); (optional)
	amplitude_circute_start();
     38c:	00005800 	call	580 <amplitude_circute_start>
	while(amplitude_circute_get_status() == 0);
     390:	00005dc0 	call	5dc <amplitude_circute_get_status>
     394:	1005003a 	cmpeq	r2,r2,zero
     398:	103ffd1e 	bne	r2,zero,390 <amplitude_operation+0x54>
	return;
}
     39c:	e037883a 	mov	sp,fp
     3a0:	dfc00117 	ldw	ra,4(sp)
     3a4:	df000017 	ldw	fp,0(sp)
     3a8:	dec00204 	addi	sp,sp,8
     3ac:	f800283a 	ret

000003b0 <amplitude_circute_stop>:
int Base_Data = 0;
int Read_Data;
int Read_Reg0;
int Done_Bit;

void amplitude_circute_stop(){
     3b0:	deffff04 	addi	sp,sp,-4
     3b4:	df000015 	stw	fp,0(sp)
     3b8:	d839883a 	mov	fp,sp
	Read_Reg0 = IORD_32DIRECT(0x10004000,0);
     3bc:	00840034 	movhi	r2,4096
     3c0:	10900004 	addi	r2,r2,16384
     3c4:	10800037 	ldwio	r2,0(r2)
     3c8:	d0a83615 	stw	r2,-24360(gp)
	Done_Bit = Read_Reg0 >> 31;
     3cc:	d0a83617 	ldw	r2,-24360(gp)
     3d0:	1005d7fa 	srai	r2,r2,31
     3d4:	d0a83715 	stw	r2,-24356(gp)
	if(Done_Bit == 1){
     3d8:	d0a83717 	ldw	r2,-24356(gp)
     3dc:	10800058 	cmpnei	r2,r2,1
     3e0:	1000061e 	bne	r2,zero,3fc <amplitude_circute_stop+0x4c>
		IOWR_32DIRECT(0x10004000,0,Base_Data | 1 << 31);
     3e4:	d0a83417 	ldw	r2,-24368(gp)
     3e8:	10e00034 	orhi	r3,r2,32768
     3ec:	00840034 	movhi	r2,4096
     3f0:	10900004 	addi	r2,r2,16384
     3f4:	10c00035 	stwio	r3,0(r2)
     3f8:	00000706 	br	418 <amplitude_circute_stop+0x68>
	}
	else if (Done_Bit == 0){
     3fc:	d0a83717 	ldw	r2,-24356(gp)
     400:	1004c03a 	cmpne	r2,r2,zero
     404:	1000041e 	bne	r2,zero,418 <amplitude_circute_stop+0x68>
		IOWR_32DIRECT(0x10004000,0,Base_Data);
     408:	d0e83417 	ldw	r3,-24368(gp)
     40c:	00840034 	movhi	r2,4096
     410:	10900004 	addi	r2,r2,16384
     414:	10c00035 	stwio	r3,0(r2)
	}
}
     418:	e037883a 	mov	sp,fp
     41c:	df000017 	ldw	fp,0(sp)
     420:	dec00104 	addi	sp,sp,4
     424:	f800283a 	ret

00000428 <amplitude_circute_set_size>:

void amplitude_circute_set_size(int size){
     428:	defffd04 	addi	sp,sp,-12
     42c:	df000215 	stw	fp,8(sp)
     430:	df000204 	addi	fp,sp,8
     434:	e13fff15 	stw	r4,-4(fp)
	Base_Data = size;
     438:	e0bfff17 	ldw	r2,-4(fp)
     43c:	d0a83415 	stw	r2,-24368(gp)
	Read_Reg0 = IORD_32DIRECT(0x10004000,0);
     440:	00840034 	movhi	r2,4096
     444:	10900004 	addi	r2,r2,16384
     448:	10800037 	ldwio	r2,0(r2)
     44c:	d0a83615 	stw	r2,-24360(gp)
	Read_Reg0 = Read_Reg0 & 0x80000FFF;
     450:	d0e83617 	ldw	r3,-24360(gp)
     454:	00a00034 	movhi	r2,32768
     458:	1083ffc4 	addi	r2,r2,4095
     45c:	1884703a 	and	r2,r3,r2
     460:	d0a83615 	stw	r2,-24360(gp)
	int Data = Read_Reg0 | (Base_Data << 12);
     464:	d0a83417 	ldw	r2,-24368(gp)
     468:	1006933a 	slli	r3,r2,12
     46c:	d0a83617 	ldw	r2,-24360(gp)
     470:	1884b03a 	or	r2,r3,r2
     474:	e0bffe15 	stw	r2,-8(fp)
	IOWR_32DIRECT(0x10004000,0,Data);
     478:	00c40034 	movhi	r3,4096
     47c:	18d00004 	addi	r3,r3,16384
     480:	e0bffe17 	ldw	r2,-8(fp)
     484:	18800035 	stwio	r2,0(r3)
}
     488:	e037883a 	mov	sp,fp
     48c:	df000017 	ldw	fp,0(sp)
     490:	dec00104 	addi	sp,sp,4
     494:	f800283a 	ret

00000498 <amplitude_circute_set_num>:

void amplitude_circute_set_num(int num){
     498:	defffe04 	addi	sp,sp,-8
     49c:	df000115 	stw	fp,4(sp)
     4a0:	df000104 	addi	fp,sp,4
     4a4:	e13fff15 	stw	r4,-4(fp)
	Base_Data = num;
     4a8:	e0bfff17 	ldw	r2,-4(fp)
     4ac:	d0a83415 	stw	r2,-24368(gp)
	Read_Reg0 = IORD_32DIRECT(0x10004000,0);
     4b0:	00840034 	movhi	r2,4096
     4b4:	10900004 	addi	r2,r2,16384
     4b8:	10800037 	ldwio	r2,0(r2)
     4bc:	d0a83615 	stw	r2,-24360(gp)
	IOWR_32DIRECT(0x10004000,0,Read_Reg0 | (Base_Data << 1));
     4c0:	d0a83417 	ldw	r2,-24368(gp)
     4c4:	1085883a 	add	r2,r2,r2
     4c8:	1007883a 	mov	r3,r2
     4cc:	d0a83617 	ldw	r2,-24360(gp)
     4d0:	1886b03a 	or	r3,r3,r2
     4d4:	00840034 	movhi	r2,4096
     4d8:	10900004 	addi	r2,r2,16384
     4dc:	10c00035 	stwio	r3,0(r2)
}
     4e0:	e037883a 	mov	sp,fp
     4e4:	df000017 	ldw	fp,0(sp)
     4e8:	dec00104 	addi	sp,sp,4
     4ec:	f800283a 	ret

000004f0 <amplitude_circute_set_rbuff_addr>:

void amplitude_circute_set_rbuff_addr(int Right_Address){
     4f0:	defffe04 	addi	sp,sp,-8
     4f4:	df000115 	stw	fp,4(sp)
     4f8:	df000104 	addi	fp,sp,4
     4fc:	e13fff15 	stw	r4,-4(fp)
	IOWR_32DIRECT(0x10004000,4, Right_Address);
     500:	00c40034 	movhi	r3,4096
     504:	18d00104 	addi	r3,r3,16388
     508:	e0bfff17 	ldw	r2,-4(fp)
     50c:	18800035 	stwio	r2,0(r3)
}
     510:	e037883a 	mov	sp,fp
     514:	df000017 	ldw	fp,0(sp)
     518:	dec00104 	addi	sp,sp,4
     51c:	f800283a 	ret

00000520 <amplitude_circute_set_lbuff_addr>:

void amplitude_circute_set_lbuff_addr(int Left_Address){
     520:	defffe04 	addi	sp,sp,-8
     524:	df000115 	stw	fp,4(sp)
     528:	df000104 	addi	fp,sp,4
     52c:	e13fff15 	stw	r4,-4(fp)
	IOWR_32DIRECT(0x10004000,8, Left_Address);
     530:	00c40034 	movhi	r3,4096
     534:	18d00204 	addi	r3,r3,16392
     538:	e0bfff17 	ldw	r2,-4(fp)
     53c:	18800035 	stwio	r2,0(r3)
}
     540:	e037883a 	mov	sp,fp
     544:	df000017 	ldw	fp,0(sp)
     548:	dec00104 	addi	sp,sp,4
     54c:	f800283a 	ret

00000550 <amplitude_circute_set_dest_addr>:

void amplitude_circute_set_dest_addr(int Dest_Address){
     550:	defffe04 	addi	sp,sp,-8
     554:	df000115 	stw	fp,4(sp)
     558:	df000104 	addi	fp,sp,4
     55c:	e13fff15 	stw	r4,-4(fp)
	IOWR_32DIRECT(0x10004000,12, Dest_Address);
     560:	00c40034 	movhi	r3,4096
     564:	18d00304 	addi	r3,r3,16396
     568:	e0bfff17 	ldw	r2,-4(fp)
     56c:	18800035 	stwio	r2,0(r3)
}
     570:	e037883a 	mov	sp,fp
     574:	df000017 	ldw	fp,0(sp)
     578:	dec00104 	addi	sp,sp,4
     57c:	f800283a 	ret

00000580 <amplitude_circute_start>:

void amplitude_circute_start(){
     580:	deffff04 	addi	sp,sp,-4
     584:	df000015 	stw	fp,0(sp)
     588:	d839883a 	mov	fp,sp
	Read_Reg0 = IORD_32DIRECT(0x10004000,0);
     58c:	00840034 	movhi	r2,4096
     590:	10900004 	addi	r2,r2,16384
     594:	10800037 	ldwio	r2,0(r2)
     598:	d0a83615 	stw	r2,-24360(gp)
	Base_Data = 1;
     59c:	00800044 	movi	r2,1
     5a0:	d0a83415 	stw	r2,-24368(gp)
	Read_Reg0 = Read_Reg0 & 0xFFFFFFFE;
     5a4:	d0e83617 	ldw	r3,-24360(gp)
     5a8:	00bfff84 	movi	r2,-2
     5ac:	1884703a 	and	r2,r3,r2
     5b0:	d0a83615 	stw	r2,-24360(gp)
	IOWR_32DIRECT(0x10004000,0,Read_Reg0 | Base_Data);
     5b4:	d0e83617 	ldw	r3,-24360(gp)
     5b8:	d0a83417 	ldw	r2,-24368(gp)
     5bc:	1886b03a 	or	r3,r3,r2
     5c0:	00840034 	movhi	r2,4096
     5c4:	10900004 	addi	r2,r2,16384
     5c8:	10c00035 	stwio	r3,0(r2)
}
     5cc:	e037883a 	mov	sp,fp
     5d0:	df000017 	ldw	fp,0(sp)
     5d4:	dec00104 	addi	sp,sp,4
     5d8:	f800283a 	ret

000005dc <amplitude_circute_get_status>:

int amplitude_circute_get_status(){
     5dc:	defffe04 	addi	sp,sp,-8
     5e0:	df000115 	stw	fp,4(sp)
     5e4:	df000104 	addi	fp,sp,4
	Read_Reg0 = IORD_32DIRECT(0x10004000,0);
     5e8:	00840034 	movhi	r2,4096
     5ec:	10900004 	addi	r2,r2,16384
     5f0:	10800037 	ldwio	r2,0(r2)
     5f4:	d0a83615 	stw	r2,-24360(gp)
	Done_Bit = Read_Reg0 >> 31;
     5f8:	d0a83617 	ldw	r2,-24360(gp)
     5fc:	1005d7fa 	srai	r2,r2,31
     600:	d0a83715 	stw	r2,-24356(gp)
	if(Done_Bit == 1){
     604:	d0a83717 	ldw	r2,-24356(gp)
     608:	10800058 	cmpnei	r2,r2,1
     60c:	1000021e 	bne	r2,zero,618 <amplitude_circute_get_status+0x3c>
		return 0;
     610:	e03fff15 	stw	zero,-4(fp)
     614:	00000806 	br	638 <amplitude_circute_get_status+0x5c>
	}
	if(Done_Bit == 0){
     618:	d0a83717 	ldw	r2,-24356(gp)
     61c:	1004c03a 	cmpne	r2,r2,zero
     620:	1000031e 	bne	r2,zero,630 <amplitude_circute_get_status+0x54>
		return 1;
     624:	00800044 	movi	r2,1
     628:	e0bfff15 	stw	r2,-4(fp)
     62c:	00000206 	br	638 <amplitude_circute_get_status+0x5c>
	}
	return 2;
     630:	00800084 	movi	r2,2
     634:	e0bfff15 	stw	r2,-4(fp)
     638:	e0bfff17 	ldw	r2,-4(fp)
}
     63c:	e037883a 	mov	sp,fp
     640:	df000017 	ldw	fp,0(sp)
     644:	dec00104 	addi	sp,sp,4
     648:	f800283a 	ret

0000064c <amplitude_circute_get_size>:


//Debug Functions
int amplitude_circute_get_size(){
     64c:	defffd04 	addi	sp,sp,-12
     650:	df000215 	stw	fp,8(sp)
     654:	df000204 	addi	fp,sp,8
	int Anita;
	Base_Data = Size;
     658:	00904684 	movi	r2,16666
     65c:	d0a83415 	stw	r2,-24368(gp)
	Anita = IORD_32DIRECT(0x10004000,0);
     660:	00840034 	movhi	r2,4096
     664:	10900004 	addi	r2,r2,16384
     668:	10800037 	ldwio	r2,0(r2)
     66c:	e0bfff15 	stw	r2,-4(fp)
	int Size_Test = Anita & Base_Data << 12;
     670:	d0a83417 	ldw	r2,-24368(gp)
     674:	1006933a 	slli	r3,r2,12
     678:	e0bfff17 	ldw	r2,-4(fp)
     67c:	1884703a 	and	r2,r3,r2
     680:	e0bffe15 	stw	r2,-8(fp)
	Size_Test = Size_Test >> 12;
     684:	e0bffe17 	ldw	r2,-8(fp)
     688:	1005d33a 	srai	r2,r2,12
     68c:	e0bffe15 	stw	r2,-8(fp)
	return Size_Test;
     690:	e0bffe17 	ldw	r2,-8(fp)
}
     694:	e037883a 	mov	sp,fp
     698:	df000017 	ldw	fp,0(sp)
     69c:	dec00104 	addi	sp,sp,4
     6a0:	f800283a 	ret

000006a4 <audio_ISR>:
 *                                                                          
 * This interrupt service routine records or plays back audio, depending on which type
 * interrupt (read or write) is pending in the audio device.
****************************************************************************************/
void audio_ISR(struct alt_up_dev *up_dev, unsigned int id)
{
     6a4:	defff904 	addi	sp,sp,-28
     6a8:	dfc00615 	stw	ra,24(sp)
     6ac:	df000515 	stw	fp,20(sp)
     6b0:	df000504 	addi	fp,sp,20
     6b4:	e13ffe15 	stw	r4,-8(fp)
     6b8:	e17fff15 	stw	r5,-4(fp)
	int num_read; int num_written;

	unsigned int fifospace;
		
	if (alt_up_audio_read_interrupt_pending(up_dev->audio_dev))	// check for read interrupt
     6bc:	e0bffe17 	ldw	r2,-8(fp)
     6c0:	11000517 	ldw	r4,20(r2)
     6c4:	000ecc80 	call	ecc8 <alt_up_audio_read_interrupt_pending>
     6c8:	1005003a 	cmpeq	r2,r2,zero
     6cc:	10004a1e 	bne	r2,zero,7f8 <audio_ISR+0x154>
	{
		alt_up_parallel_port_write_data (up_dev->green_LEDs_dev, 0x1); // set LEDG[0] on
     6d0:	e0bffe17 	ldw	r2,-8(fp)
     6d4:	10800117 	ldw	r2,4(r2)
     6d8:	10800a17 	ldw	r2,40(r2)
     6dc:	1007883a 	mov	r3,r2
     6e0:	00800044 	movi	r2,1
     6e4:	18800035 	stwio	r2,0(r3)
		Echo_End = 0;
     6e8:	008000b4 	movhi	r2,2
     6ec:	10a05804 	addi	r2,r2,-32416
     6f0:	10000015 	stw	zero,0(r2)

		// store data until the buffer is full
		if (buf_index_record < BUF_SIZE)
     6f4:	008000b4 	movhi	r2,2
     6f8:	10a06104 	addi	r2,r2,-32380
     6fc:	10c00017 	ldw	r3,0(r2)
     700:	00800234 	movhi	r2,8
     704:	10a847c4 	addi	r2,r2,-24289
     708:	10c03b16 	blt	r2,r3,7f8 <audio_ISR+0x154>
		{
			num_read = alt_up_audio_record_r (up_dev->audio_dev, &(r_buf[buf_index_record]), 
     70c:	e0bffe17 	ldw	r2,-8(fp)
     710:	11000517 	ldw	r4,20(r2)
     714:	008000b4 	movhi	r2,2
     718:	10a06104 	addi	r2,r2,-32380
     71c:	10800017 	ldw	r2,0(r2)
     720:	1085883a 	add	r2,r2,r2
     724:	1085883a 	add	r2,r2,r2
     728:	1007883a 	mov	r3,r2
     72c:	00800834 	movhi	r2,32
     730:	1081b304 	addi	r2,r2,1740
     734:	1885883a 	add	r2,r3,r2
     738:	100b883a 	mov	r5,r2
     73c:	008000b4 	movhi	r2,2
     740:	10a06104 	addi	r2,r2,-32380
     744:	10c00017 	ldw	r3,0(r2)
     748:	00800234 	movhi	r2,8
     74c:	10a84804 	addi	r2,r2,-24288
     750:	10cdc83a 	sub	r6,r2,r3
     754:	000ee380 	call	ee38 <alt_up_audio_record_r>
     758:	e0bffd15 	stw	r2,-12(fp)
				BUF_SIZE - buf_index_record);
//			Temp_r_buf[buf_index_record] = r_buf[buf_index_record];
			/* assume we can read same # words from the left and right */
			(void) alt_up_audio_record_l (up_dev->audio_dev, &(l_buf[buf_index_record]), 
     75c:	e0bffe17 	ldw	r2,-8(fp)
     760:	11000517 	ldw	r4,20(r2)
     764:	008000b4 	movhi	r2,2
     768:	10a06104 	addi	r2,r2,-32380
     76c:	10800017 	ldw	r2,0(r2)
     770:	1085883a 	add	r2,r2,r2
     774:	1085883a 	add	r2,r2,r2
     778:	1007883a 	mov	r3,r2
     77c:	00801774 	movhi	r2,93
     780:	1083f304 	addi	r2,r2,4044
     784:	1885883a 	add	r2,r3,r2
     788:	100b883a 	mov	r5,r2
     78c:	e1bffd17 	ldw	r6,-12(fp)
     790:	000eea80 	call	eea8 <alt_up_audio_record_l>
				num_read);
//			Temp_l_buf[buf_index_record] = l_buf[buf_index_record];
			buf_index_record += num_read;
     794:	008000b4 	movhi	r2,2
     798:	10a06104 	addi	r2,r2,-32380
     79c:	10c00017 	ldw	r3,0(r2)
     7a0:	e0bffd17 	ldw	r2,-12(fp)
     7a4:	1887883a 	add	r3,r3,r2
     7a8:	008000b4 	movhi	r2,2
     7ac:	10a06104 	addi	r2,r2,-32380
     7b0:	10c00015 	stw	r3,0(r2)

			if (buf_index_record == BUF_SIZE)
     7b4:	008000b4 	movhi	r2,2
     7b8:	10a06104 	addi	r2,r2,-32380
     7bc:	10c00017 	ldw	r3,0(r2)
     7c0:	00800234 	movhi	r2,8
     7c4:	10a84804 	addi	r2,r2,-24288
     7c8:	18800b1e 	bne	r3,r2,7f8 <audio_ISR+0x154>
			{
				// done recording
				End_Record = 1;
     7cc:	00c000b4 	movhi	r3,2
     7d0:	18e05c04 	addi	r3,r3,-32400
     7d4:	00800044 	movi	r2,1
     7d8:	18800015 	stw	r2,0(r3)
				alt_up_parallel_port_write_data (up_dev->green_LEDs_dev, 0); // turn off LEDG
     7dc:	e0bffe17 	ldw	r2,-8(fp)
     7e0:	10800117 	ldw	r2,4(r2)
     7e4:	10800a17 	ldw	r2,40(r2)
     7e8:	10000035 	stwio	zero,0(r2)
				alt_up_audio_disable_read_interrupt(up_dev->audio_dev);
     7ec:	e0bffe17 	ldw	r2,-8(fp)
     7f0:	11000517 	ldw	r4,20(r2)
     7f4:	000ebdc0 	call	ebdc <alt_up_audio_disable_read_interrupt>
			}
		}
	}
	if (alt_up_audio_write_interrupt_pending(up_dev->audio_dev))	// check for write interrupt
     7f8:	e0bffe17 	ldw	r2,-8(fp)
     7fc:	11000517 	ldw	r4,20(r2)
     800:	000ed040 	call	ed04 <alt_up_audio_write_interrupt_pending>
     804:	1005003a 	cmpeq	r2,r2,zero
     808:	1000af1e 	bne	r2,zero,ac8 <audio_ISR+0x424>
	{

		// output data until the buffer is empty //Echo
		if (buf_index_play < BUF_SIZE && Echo_complete == 1 && Click_Echo == 1)
     80c:	008000b4 	movhi	r2,2
     810:	10a05f04 	addi	r2,r2,-32388
     814:	10c00017 	ldw	r3,0(r2)
     818:	00800234 	movhi	r2,8
     81c:	10a847c4 	addi	r2,r2,-24289
     820:	10c04816 	blt	r2,r3,944 <audio_ISR+0x2a0>
     824:	008000b4 	movhi	r2,2
     828:	10a05904 	addi	r2,r2,-32412
     82c:	10800017 	ldw	r2,0(r2)
     830:	10800058 	cmpnei	r2,r2,1
     834:	1000431e 	bne	r2,zero,944 <audio_ISR+0x2a0>
     838:	008000b4 	movhi	r2,2
     83c:	10a06204 	addi	r2,r2,-32376
     840:	10800017 	ldw	r2,0(r2)
     844:	10800058 	cmpnei	r2,r2,1
     848:	10003e1e 	bne	r2,zero,944 <audio_ISR+0x2a0>
		{
			alt_up_parallel_port_write_data (up_dev->green_LEDs_dev, 0x4); // set LEDG[1] on
     84c:	e0bffe17 	ldw	r2,-8(fp)
     850:	10800117 	ldw	r2,4(r2)
     854:	10800a17 	ldw	r2,40(r2)
     858:	1007883a 	mov	r3,r2
     85c:	00800104 	movi	r2,4
     860:	18800035 	stwio	r2,0(r3)
				num_written = alt_up_audio_play_r (up_dev->audio_dev, &(Echo_buf_r[buf_index_play]),
     864:	e0bffe17 	ldw	r2,-8(fp)
     868:	11000517 	ldw	r4,20(r2)
     86c:	008000b4 	movhi	r2,2
     870:	10a05f04 	addi	r2,r2,-32388
     874:	10800017 	ldw	r2,0(r2)
     878:	1085883a 	add	r2,r2,r2
     87c:	1085883a 	add	r2,r2,r2
     880:	1007883a 	mov	r3,r2
     884:	00800ff4 	movhi	r2,63
     888:	10a2d304 	addi	r2,r2,-29876
     88c:	1885883a 	add	r2,r3,r2
     890:	100b883a 	mov	r5,r2
     894:	008000b4 	movhi	r2,2
     898:	10a05f04 	addi	r2,r2,-32388
     89c:	10c00017 	ldw	r3,0(r2)
     8a0:	00800234 	movhi	r2,8
     8a4:	10a84804 	addi	r2,r2,-24288
     8a8:	10cdc83a 	sub	r6,r2,r3
     8ac:	000ef8c0 	call	ef8c <alt_up_audio_play_r>
     8b0:	e0bffc15 	stw	r2,-16(fp)
					BUF_SIZE - buf_index_play);
				/* assume that we can write the same # words to the left and right */
				(void) alt_up_audio_play_l (up_dev->audio_dev, &(Echo_buf_l[buf_index_play]),
     8b4:	e0bffe17 	ldw	r2,-8(fp)
     8b8:	11000517 	ldw	r4,20(r2)
     8bc:	008000b4 	movhi	r2,2
     8c0:	10a05f04 	addi	r2,r2,-32388
     8c4:	10800017 	ldw	r2,0(r2)
     8c8:	1085883a 	add	r2,r2,r2
     8cc:	1085883a 	add	r2,r2,r2
     8d0:	1007883a 	mov	r3,r2
     8d4:	008000b4 	movhi	r2,2
     8d8:	10a09304 	addi	r2,r2,-32180
     8dc:	1885883a 	add	r2,r3,r2
     8e0:	100b883a 	mov	r5,r2
     8e4:	e1bffc17 	ldw	r6,-16(fp)
     8e8:	000effc0 	call	effc <alt_up_audio_play_l>
					num_written);
				buf_index_play += num_written;
     8ec:	008000b4 	movhi	r2,2
     8f0:	10a05f04 	addi	r2,r2,-32388
     8f4:	10c00017 	ldw	r3,0(r2)
     8f8:	e0bffc17 	ldw	r2,-16(fp)
     8fc:	1887883a 	add	r3,r3,r2
     900:	008000b4 	movhi	r2,2
     904:	10a05f04 	addi	r2,r2,-32388
     908:	10c00015 	stw	r3,0(r2)

				if (buf_index_play >= BUF_SIZE)
     90c:	008000b4 	movhi	r2,2
     910:	10a05f04 	addi	r2,r2,-32388
     914:	10c00017 	ldw	r3,0(r2)
     918:	00800234 	movhi	r2,8
     91c:	10a847c4 	addi	r2,r2,-24289
     920:	10c0690e 	bge	r2,r3,ac8 <audio_ISR+0x424>
				{
					// done playback
					alt_up_parallel_port_write_data (up_dev->green_LEDs_dev, 0); // turn off LEDG
     924:	e0bffe17 	ldw	r2,-8(fp)
     928:	10800117 	ldw	r2,4(r2)
     92c:	10800a17 	ldw	r2,40(r2)
     930:	10000035 	stwio	zero,0(r2)
					alt_up_audio_disable_write_interrupt(up_dev->audio_dev);
     934:	e0bffe17 	ldw	r2,-8(fp)
     938:	11000517 	ldw	r4,20(r2)
     93c:	000ec780 	call	ec78 <alt_up_audio_disable_write_interrupt>
	}
	if (alt_up_audio_write_interrupt_pending(up_dev->audio_dev))	// check for write interrupt
	{

		// output data until the buffer is empty //Echo
		if (buf_index_play < BUF_SIZE && Echo_complete == 1 && Click_Echo == 1)
     940:	00006106 	br	ac8 <audio_ISR+0x424>
					alt_up_audio_disable_write_interrupt(up_dev->audio_dev);
				}
		}

		// output data until the buffer is empty //Play
		else if (buf_index_play < BUF_SIZE && Click_Echo == 0)
     944:	008000b4 	movhi	r2,2
     948:	10a05f04 	addi	r2,r2,-32388
     94c:	10c00017 	ldw	r3,0(r2)
     950:	00800234 	movhi	r2,8
     954:	10a847c4 	addi	r2,r2,-24289
     958:	10c05216 	blt	r2,r3,aa4 <audio_ISR+0x400>
     95c:	008000b4 	movhi	r2,2
     960:	10a06204 	addi	r2,r2,-32376
     964:	10800017 	ldw	r2,0(r2)
     968:	1004c03a 	cmpne	r2,r2,zero
     96c:	10004d1e 	bne	r2,zero,aa4 <audio_ISR+0x400>
		{

			alt_up_parallel_port_write_data (up_dev->green_LEDs_dev, 0x2); // set LEDG[2] on
     970:	e0bffe17 	ldw	r2,-8(fp)
     974:	10800117 	ldw	r2,4(r2)
     978:	10800a17 	ldw	r2,40(r2)
     97c:	1007883a 	mov	r3,r2
     980:	00800084 	movi	r2,2
     984:	18800035 	stwio	r2,0(r3)
			num_written = alt_up_audio_play_r (up_dev->audio_dev, &(r_buf[buf_index_play]), 
     988:	e0bffe17 	ldw	r2,-8(fp)
     98c:	11000517 	ldw	r4,20(r2)
     990:	008000b4 	movhi	r2,2
     994:	10a05f04 	addi	r2,r2,-32388
     998:	10800017 	ldw	r2,0(r2)
     99c:	1085883a 	add	r2,r2,r2
     9a0:	1085883a 	add	r2,r2,r2
     9a4:	1007883a 	mov	r3,r2
     9a8:	00800834 	movhi	r2,32
     9ac:	1081b304 	addi	r2,r2,1740
     9b0:	1885883a 	add	r2,r3,r2
     9b4:	100b883a 	mov	r5,r2
     9b8:	008000b4 	movhi	r2,2
     9bc:	10a05f04 	addi	r2,r2,-32388
     9c0:	10c00017 	ldw	r3,0(r2)
     9c4:	00800234 	movhi	r2,8
     9c8:	10a84804 	addi	r2,r2,-24288
     9cc:	10cdc83a 	sub	r6,r2,r3
     9d0:	000ef8c0 	call	ef8c <alt_up_audio_play_r>
     9d4:	e0bffc15 	stw	r2,-16(fp)
			 	BUF_SIZE - buf_index_play);
			/* assume that we can write the same # words to the left and right */
			(void) alt_up_audio_play_l (up_dev->audio_dev, &(l_buf[buf_index_play]), 
     9d8:	e0bffe17 	ldw	r2,-8(fp)
     9dc:	11000517 	ldw	r4,20(r2)
     9e0:	008000b4 	movhi	r2,2
     9e4:	10a05f04 	addi	r2,r2,-32388
     9e8:	10800017 	ldw	r2,0(r2)
     9ec:	1085883a 	add	r2,r2,r2
     9f0:	1085883a 	add	r2,r2,r2
     9f4:	1007883a 	mov	r3,r2
     9f8:	00801774 	movhi	r2,93
     9fc:	1083f304 	addi	r2,r2,4044
     a00:	1885883a 	add	r2,r3,r2
     a04:	100b883a 	mov	r5,r2
     a08:	e1bffc17 	ldw	r6,-16(fp)
     a0c:	000effc0 	call	effc <alt_up_audio_play_l>
				num_written);
			buf_index_play += num_written;
     a10:	008000b4 	movhi	r2,2
     a14:	10a05f04 	addi	r2,r2,-32388
     a18:	10c00017 	ldw	r3,0(r2)
     a1c:	e0bffc17 	ldw	r2,-16(fp)
     a20:	1887883a 	add	r3,r3,r2
     a24:	008000b4 	movhi	r2,2
     a28:	10a05f04 	addi	r2,r2,-32388
     a2c:	10c00015 	stw	r3,0(r2)

			if(buf_index_play >= ((BUF_SIZE / N)*Play_Index)){
     a30:	008000b4 	movhi	r2,2
     a34:	10a05604 	addi	r2,r2,-32424
     a38:	10800017 	ldw	r2,0(r2)
     a3c:	10d046a4 	muli	r3,r2,16666
     a40:	008000b4 	movhi	r2,2
     a44:	10a05f04 	addi	r2,r2,-32388
     a48:	10800017 	ldw	r2,0(r2)
     a4c:	10c00416 	blt	r2,r3,a60 <audio_ISR+0x3bc>
				Play_Flag = 1;
     a50:	00c000b4 	movhi	r3,2
     a54:	18e05a04 	addi	r3,r3,-32408
     a58:	00800044 	movi	r2,1
     a5c:	18800015 	stw	r2,0(r3)
			}
	
			if (buf_index_play >= BUF_SIZE)
     a60:	008000b4 	movhi	r2,2
     a64:	10a05f04 	addi	r2,r2,-32388
     a68:	10c00017 	ldw	r3,0(r2)
     a6c:	00800234 	movhi	r2,8
     a70:	10a847c4 	addi	r2,r2,-24289
     a74:	10c0140e 	bge	r2,r3,ac8 <audio_ISR+0x424>
			{
				// done playback
				Play_Index = 0;
     a78:	008000b4 	movhi	r2,2
     a7c:	10a05604 	addi	r2,r2,-32424
     a80:	10000015 	stw	zero,0(r2)
				alt_up_parallel_port_write_data (up_dev->green_LEDs_dev, 0); // turn off LEDG
     a84:	e0bffe17 	ldw	r2,-8(fp)
     a88:	10800117 	ldw	r2,4(r2)
     a8c:	10800a17 	ldw	r2,40(r2)
     a90:	10000035 	stwio	zero,0(r2)
				alt_up_audio_disable_write_interrupt(up_dev->audio_dev);
     a94:	e0bffe17 	ldw	r2,-8(fp)
     a98:	11000517 	ldw	r4,20(r2)
     a9c:	000ec780 	call	ec78 <alt_up_audio_disable_write_interrupt>
					alt_up_audio_disable_write_interrupt(up_dev->audio_dev);
				}
		}

		// output data until the buffer is empty //Play
		else if (buf_index_play < BUF_SIZE && Click_Echo == 0)
     aa0:	00000906 	br	ac8 <audio_ISR+0x424>
				alt_up_parallel_port_write_data (up_dev->green_LEDs_dev, 0); // turn off LEDG
				alt_up_audio_disable_write_interrupt(up_dev->audio_dev);
			}
		}
		else {
			alt_up_parallel_port_write_data (up_dev->green_LEDs_dev, 0x80); //  LEDG
     aa4:	e0bffe17 	ldw	r2,-8(fp)
     aa8:	10800117 	ldw	r2,4(r2)
     aac:	10800a17 	ldw	r2,40(r2)
     ab0:	1007883a 	mov	r3,r2
     ab4:	00802004 	movi	r2,128
     ab8:	18800035 	stwio	r2,0(r3)
			alt_up_audio_disable_write_interrupt(up_dev->audio_dev);
     abc:	e0bffe17 	ldw	r2,-8(fp)
     ac0:	11000517 	ldw	r4,20(r2)
     ac4:	000ec780 	call	ec78 <alt_up_audio_disable_write_interrupt>
		}

	}
	return;
}
     ac8:	e037883a 	mov	sp,fp
     acc:	dfc00117 	ldw	ra,4(sp)
     ad0:	df000017 	ldw	fp,0(sp)
     ad4:	dec00204 	addi	sp,sp,8
     ad8:	f800283a 	ret

00000adc <interval_timer_ISR>:
 * Shifts a PATTERN being displayed on the LCD character display. The shift 
 * direction is determined by the external variable KEY_PRESSED.
 * 
******************************************************************************/
void interval_timer_ISR(struct alt_up_dev *up_dev, unsigned int id)
{
     adc:	defffb04 	addi	sp,sp,-20
     ae0:	dfc00415 	stw	ra,16(sp)
     ae4:	df000315 	stw	fp,12(sp)
     ae8:	df000304 	addi	fp,sp,12
     aec:	e13ffe15 	stw	r4,-8(fp)
     af0:	e17fff15 	stw	r5,-4(fp)
	volatile int *interval_timer_ptr = (int *) 0x10002000;
     af4:	00840034 	movhi	r2,4096
     af8:	10880004 	addi	r2,r2,8192
     afc:	e0bffd15 	stw	r2,-12(fp)

	*(interval_timer_ptr) = 0; 										// clear the interrupt
     b00:	e0bffd17 	ldw	r2,-12(fp)
     b04:	10000015 	stw	zero,0(r2)
	timeout = 1;															// set global variable
     b08:	00c000b4 	movhi	r3,2
     b0c:	18e05d04 	addi	r3,r3,-32396
     b10:	00800044 	movi	r2,1
     b14:	18800015 	stw	r2,0(r3)

	/* shift the LCD display to the left */
	alt_up_character_lcd_shift_display (up_dev->lcd_dev, -1);
     b18:	e0bffe17 	ldw	r2,-8(fp)
     b1c:	11000417 	ldw	r4,16(r2)
     b20:	017fffc4 	movi	r5,-1
     b24:	000f6e40 	call	f6e4 <alt_up_character_lcd_shift_display>

	return;
}
     b28:	e037883a 	mov	sp,fp
     b2c:	dfc00117 	ldw	ra,4(sp)
     b30:	df000017 	ldw	fp,0(sp)
     b34:	dec00204 	addi	sp,sp,8
     b38:	f800283a 	ret

00000b3c <main>:
 * 	   interrupts
 * 	6. The speed of scrolling the LCD display and of refreshing the VGA screen
 * 	   are controlled by interrupts from the interval timer
********************************************************************************/
int main(void)
{
     b3c:	deffb404 	addi	sp,sp,-304
     b40:	dfc04b15 	stw	ra,300(sp)
     b44:	df004a15 	stw	fp,296(sp)
     b48:	dc004915 	stw	r16,292(sp)
     b4c:	df004904 	addi	fp,sp,292
	alt_up_character_lcd_dev *lcd_dev;
	alt_up_audio_dev *audio_dev;
	alt_up_char_buffer_dev *char_buffer_dev;
	alt_up_pixel_buffer_dma_dev *pixel_buffer_dev;
	/* declare volatile pointer for interval timer, which does not have HAL functions */
	volatile int * interval_timer_ptr = (int *) 0x10002000;	// interal timer base address
     b50:	00840034 	movhi	r2,4096
     b54:	10880004 	addi	r2,r2,8192
     b58:	e0bfce15 	stw	r2,-200(fp)

	/* initialize some variables */
	byte1 = 0; byte2 = 0; byte3 = 0; 			// used to hold PS/2 data
     b5c:	008000b4 	movhi	r2,2
     b60:	10a05704 	addi	r2,r2,-32420
     b64:	10000005 	stb	zero,0(r2)
     b68:	008000b4 	movhi	r2,2
     b6c:	10a05504 	addi	r2,r2,-32428
     b70:	10000005 	stb	zero,0(r2)
     b74:	008000b4 	movhi	r2,2
     b78:	10a05544 	addi	r2,r2,-32427
     b7c:	10000005 	stb	zero,0(r2)
	count = 0;
     b80:	008000b4 	movhi	r2,2
     b84:	10a05e04 	addi	r2,r2,-32392
     b88:	10000015 	stw	zero,0(r2)
	timeout = 0;										// synchronize with the timer
     b8c:	008000b4 	movhi	r2,2
     b90:	10a05d04 	addi	r2,r2,-32396
     b94:	10000015 	stw	zero,0(r2)
	int blue_x1; int blue_y1; int blue_x2; int blue_y2; 
	int screen_x; int screen_y; int char_buffer_x; int char_buffer_y;
	short color;

	/* set the interval timer period for scrolling the HEX displays */
	int counter = 0x960000;				// 1/(50 MHz) x (0x960000) ~= 200 msec
     b98:	008025b4 	movhi	r2,150
     b9c:	e0bfc015 	stw	r2,-256(fp)
	*(interval_timer_ptr + 0x2) = (counter & 0xFFFF);
     ba0:	e0bfce17 	ldw	r2,-200(fp)
     ba4:	10c00204 	addi	r3,r2,8
     ba8:	e0bfc017 	ldw	r2,-256(fp)
     bac:	10bfffcc 	andi	r2,r2,65535
     bb0:	18800015 	stw	r2,0(r3)
	*(interval_timer_ptr + 0x3) = (counter >> 16) & 0xFFFF;
     bb4:	e0bfce17 	ldw	r2,-200(fp)
     bb8:	10c00304 	addi	r3,r2,12
     bbc:	e0bfc017 	ldw	r2,-256(fp)
     bc0:	1005d43a 	srai	r2,r2,16
     bc4:	10bfffcc 	andi	r2,r2,65535
     bc8:	18800015 	stw	r2,0(r3)

	/* start interval timer, enable its interrupts */
	*(interval_timer_ptr + 1) = 0x7;	// STOP = 0, START = 1, CONT = 1, ITO = 1 
     bcc:	e0bfce17 	ldw	r2,-200(fp)
     bd0:	10c00104 	addi	r3,r2,4
     bd4:	008001c4 	movi	r2,7
     bd8:	18800015 	stw	r2,0(r3)
	
	// open the pushbuttom KEY parallel port
	KEY_dev = alt_up_parallel_port_open_dev ("/dev/Pushbuttons");
     bdc:	01000074 	movhi	r4,1
     be0:	210df304 	addi	r4,r4,14284
     be4:	000ffa80 	call	ffa8 <alt_up_parallel_port_open_dev>
     be8:	e0bfd615 	stw	r2,-168(fp)
	if ( KEY_dev == NULL)
     bec:	e0bfd617 	ldw	r2,-168(fp)
     bf0:	1004c03a 	cmpne	r2,r2,zero
     bf4:	1000061e 	bne	r2,zero,c10 <main+0xd4>
	{
		alt_printf ("Error: could not open pushbutton KEY device\n");
     bf8:	01000074 	movhi	r4,1
     bfc:	210df804 	addi	r4,r4,14304
     c00:	000d4100 	call	d410 <alt_printf>
		return -1;
     c04:	00bfffc4 	movi	r2,-1
     c08:	e0bfff15 	stw	r2,-4(fp)
     c0c:	00049906 	br	1e74 <main+0x1338>
	}
	else
	{
		alt_printf ("Opened pushbutton KEY device\n");
     c10:	01000074 	movhi	r4,1
     c14:	210e0404 	addi	r4,r4,14352
     c18:	000d4100 	call	d410 <alt_printf>
		up_dev.KEY_dev = KEY_dev;	// store for use by ISRs
     c1c:	00c000b4 	movhi	r3,2
     c20:	18e08b04 	addi	r3,r3,-32212
     c24:	e0bfd617 	ldw	r2,-168(fp)
     c28:	18800015 	stw	r2,0(r3)
	}
	/* write to the pushbutton interrupt mask register, and set 3 mask bits to 1 
	 * (bit 0 is Nios II reset) */
	alt_up_parallel_port_set_interrupt_mask (KEY_dev, 0xE);
     c2c:	e0bfd617 	ldw	r2,-168(fp)
     c30:	10800a17 	ldw	r2,40(r2)
     c34:	10800204 	addi	r2,r2,8
     c38:	1007883a 	mov	r3,r2
     c3c:	00800384 	movi	r2,14
     c40:	18800035 	stwio	r2,0(r3)

	// open the green LEDs parallel port
	green_LEDs_dev = alt_up_parallel_port_open_dev ("/dev/Green_LEDs");
     c44:	01000074 	movhi	r4,1
     c48:	210e0c04 	addi	r4,r4,14384
     c4c:	000ffa80 	call	ffa8 <alt_up_parallel_port_open_dev>
     c50:	e0bfd515 	stw	r2,-172(fp)
	if ( green_LEDs_dev == NULL)
     c54:	e0bfd517 	ldw	r2,-172(fp)
     c58:	1004c03a 	cmpne	r2,r2,zero
     c5c:	1000061e 	bne	r2,zero,c78 <main+0x13c>
	{
		alt_printf ("Error: could not open green LEDs device\n");
     c60:	01000074 	movhi	r4,1
     c64:	210e1004 	addi	r4,r4,14400
     c68:	000d4100 	call	d410 <alt_printf>
		return -1;
     c6c:	00bfffc4 	movi	r2,-1
     c70:	e0bfff15 	stw	r2,-4(fp)
     c74:	00047f06 	br	1e74 <main+0x1338>
	}
	else
	{
		alt_printf ("Opened green LEDs device\n");
     c78:	01000074 	movhi	r4,1
     c7c:	210e1b04 	addi	r4,r4,14444
     c80:	000d4100 	call	d410 <alt_printf>
		up_dev.green_LEDs_dev = green_LEDs_dev;	// store for use by ISRs
     c84:	00c000b4 	movhi	r3,2
     c88:	18e08b04 	addi	r3,r3,-32212
     c8c:	e0bfd517 	ldw	r2,-172(fp)
     c90:	18800115 	stw	r2,4(r3)
	}

	// open the red LEDs parallel port
	green_LEDs_dev = alt_up_parallel_port_open_dev ("/dev/Red_LEDs");
     c94:	01000074 	movhi	r4,1
     c98:	210e2204 	addi	r4,r4,14472
     c9c:	000ffa80 	call	ffa8 <alt_up_parallel_port_open_dev>
     ca0:	e0bfd515 	stw	r2,-172(fp)
	if ( green_LEDs_dev == NULL)
     ca4:	e0bfd517 	ldw	r2,-172(fp)
     ca8:	1004c03a 	cmpne	r2,r2,zero
     cac:	1000061e 	bne	r2,zero,cc8 <main+0x18c>
	{
		alt_printf ("Error: could not open red LEDs device\n");
     cb0:	01000074 	movhi	r4,1
     cb4:	210e2604 	addi	r4,r4,14488
     cb8:	000d4100 	call	d410 <alt_printf>
		return -1;
     cbc:	00bfffc4 	movi	r2,-1
     cc0:	e0bfff15 	stw	r2,-4(fp)
     cc4:	00046b06 	br	1e74 <main+0x1338>
	}
	else
	{
		alt_printf ("Opened red LEDs device\n");
     cc8:	01000074 	movhi	r4,1
     ccc:	210e3004 	addi	r4,r4,14528
     cd0:	000d4100 	call	d410 <alt_printf>
		up_dev.red_LEDs_dev = red_LEDs_dev;	// store for use by ISRs
     cd4:	00c000b4 	movhi	r3,2
     cd8:	18e08b04 	addi	r3,r3,-32212
     cdc:	e0bfd417 	ldw	r2,-176(fp)
     ce0:	18800215 	stw	r2,8(r3)
	}

	// open the PS2 port
	PS2_dev = alt_up_ps2_open_dev ("/dev/PS2_Port");
     ce4:	01000074 	movhi	r4,1
     ce8:	210e3604 	addi	r4,r4,14552
     cec:	00106a80 	call	106a8 <alt_up_ps2_open_dev>
     cf0:	e0bfd315 	stw	r2,-180(fp)
	if ( PS2_dev == NULL)
     cf4:	e0bfd317 	ldw	r2,-180(fp)
     cf8:	1004c03a 	cmpne	r2,r2,zero
     cfc:	1000061e 	bne	r2,zero,d18 <main+0x1dc>
	{
		alt_printf ("Error: could not open PS2 device\n");
     d00:	01000074 	movhi	r4,1
     d04:	210e3a04 	addi	r4,r4,14568
     d08:	000d4100 	call	d410 <alt_printf>
		return -1;
     d0c:	00bfffc4 	movi	r2,-1
     d10:	e0bfff15 	stw	r2,-4(fp)
     d14:	00045706 	br	1e74 <main+0x1338>
	}
	else
	{
		alt_printf ("Opened PS2 device\n");
     d18:	01000074 	movhi	r4,1
     d1c:	210e4304 	addi	r4,r4,14604
     d20:	000d4100 	call	d410 <alt_printf>
		up_dev.PS2_dev = PS2_dev;	// store for use by ISRs
     d24:	00c000b4 	movhi	r3,2
     d28:	18e08b04 	addi	r3,r3,-32212
     d2c:	e0bfd317 	ldw	r2,-180(fp)
     d30:	18800315 	stw	r2,12(r3)
	}
	(void) alt_up_ps2_write_data_byte (PS2_dev, 0xFF);		// reset
     d34:	e13fd317 	ldw	r4,-180(fp)
     d38:	01403fc4 	movi	r5,255
     d3c:	001028c0 	call	1028c <alt_up_ps2_write_data_byte>
	alt_up_ps2_enable_read_interrupt (PS2_dev); // enable interrupts from PS/2 port
     d40:	e13fd317 	ldw	r4,-180(fp)
     d44:	00101e00 	call	101e0 <alt_up_ps2_enable_read_interrupt>

	// open the audio port
	audio_dev = alt_up_audio_open_dev ("/dev/Audio");
     d48:	01000074 	movhi	r4,1
     d4c:	210e4804 	addi	r4,r4,14624
     d50:	000eb500 	call	eb50 <alt_up_audio_open_dev>
     d54:	e0bfd115 	stw	r2,-188(fp)
	if ( audio_dev == NULL)
     d58:	e0bfd117 	ldw	r2,-188(fp)
     d5c:	1004c03a 	cmpne	r2,r2,zero
     d60:	1000061e 	bne	r2,zero,d7c <main+0x240>
	{
		alt_printf ("Error: could not open audio device\n");
     d64:	01000074 	movhi	r4,1
     d68:	210e4b04 	addi	r4,r4,14636
     d6c:	000d4100 	call	d410 <alt_printf>
		return -1;
     d70:	00bfffc4 	movi	r2,-1
     d74:	e0bfff15 	stw	r2,-4(fp)
     d78:	00043e06 	br	1e74 <main+0x1338>
	}
	else
	{
		alt_printf ("Opened audio device\n");
     d7c:	01000074 	movhi	r4,1
     d80:	210e5404 	addi	r4,r4,14672
     d84:	000d4100 	call	d410 <alt_printf>
		up_dev.audio_dev = audio_dev;	// store for use by ISRs
     d88:	00c000b4 	movhi	r3,2
     d8c:	18e08b04 	addi	r3,r3,-32212
     d90:	e0bfd117 	ldw	r2,-188(fp)
     d94:	18800515 	stw	r2,20(r3)
	}

	// open the 16x2 character display port
	lcd_dev = alt_up_character_lcd_open_dev ("/dev/Char_LCD_16x2");
     d98:	01000074 	movhi	r4,1
     d9c:	210e5a04 	addi	r4,r4,14696
     da0:	000f4400 	call	f440 <alt_up_character_lcd_open_dev>
     da4:	e0bfd215 	stw	r2,-184(fp)
	if ( lcd_dev == NULL)
     da8:	e0bfd217 	ldw	r2,-184(fp)
     dac:	1004c03a 	cmpne	r2,r2,zero
     db0:	1000061e 	bne	r2,zero,dcc <main+0x290>
	{
		alt_printf ("Error: could not open character LCD device\n");
     db4:	01000074 	movhi	r4,1
     db8:	210e5f04 	addi	r4,r4,14716
     dbc:	000d4100 	call	d410 <alt_printf>
		return -1;
     dc0:	00bfffc4 	movi	r2,-1
     dc4:	e0bfff15 	stw	r2,-4(fp)
     dc8:	00042a06 	br	1e74 <main+0x1338>
	}
	else
	{
		alt_printf ("Opened character LCD device\n");
     dcc:	01000074 	movhi	r4,1
     dd0:	210e6a04 	addi	r4,r4,14760
     dd4:	000d4100 	call	d410 <alt_printf>
		up_dev.lcd_dev = lcd_dev;	// store for use by ISRs
     dd8:	00c000b4 	movhi	r3,2
     ddc:	18e08b04 	addi	r3,r3,-32212
     de0:	e0bfd217 	ldw	r2,-184(fp)
     de4:	18800415 	stw	r2,16(r3)
	/* use the HAL facility for registering interrupt service routines. */
	/* Note: we are passsing a pointer to up_dev to each ISR (using the context argument) as 
	 * a way of giving the ISR a pointer to every open device. This is useful because some of the
	 * ISRs need to access more than just one device (e.g. the pushbutton ISR accesses both
	 * the pushbutton device and the audio device) */
	alt_irq_register (0, (void *) &up_dev, (void *) interval_timer_ISR);
     de8:	01800034 	movhi	r6,0
     dec:	3182b704 	addi	r6,r6,2780
     df0:	0009883a 	mov	r4,zero
     df4:	014000b4 	movhi	r5,2
     df8:	29608b04 	addi	r5,r5,-32212
     dfc:	000ce480 	call	ce48 <alt_irq_register>
	alt_irq_register (1, (void *) &up_dev, (void *) pushbutton_ISR);
     e00:	01800034 	movhi	r6,0
     e04:	318a9404 	addi	r6,r6,10832
     e08:	01000044 	movi	r4,1
     e0c:	014000b4 	movhi	r5,2
     e10:	29608b04 	addi	r5,r5,-32212
     e14:	000ce480 	call	ce48 <alt_irq_register>
	alt_irq_register (6, (void *) &up_dev, (void *) audio_ISR);
     e18:	01800034 	movhi	r6,0
     e1c:	3181a904 	addi	r6,r6,1700
     e20:	01000184 	movi	r4,6
     e24:	014000b4 	movhi	r5,2
     e28:	29608b04 	addi	r5,r5,-32212
     e2c:	000ce480 	call	ce48 <alt_irq_register>
	alt_irq_register (7, (void *) &up_dev, (void *) PS2_ISR);
     e30:	01800034 	movhi	r6,0
     e34:	31807d04 	addi	r6,r6,500
     e38:	010001c4 	movi	r4,7
     e3c:	014000b4 	movhi	r5,2
     e40:	29608b04 	addi	r5,r5,-32212
     e44:	000ce480 	call	ce48 <alt_irq_register>

	/* create a messages to be displayed on the VGA and LCD displays */
	char text_top_LCD[80] = "Welcome to the DE2 Media Computer...\0";
     e48:	00c00074 	movhi	r3,1
     e4c:	18cead04 	addi	r3,r3,15028
     e50:	18800017 	ldw	r2,0(r3)
     e54:	e0bfd715 	stw	r2,-164(fp)
     e58:	18800117 	ldw	r2,4(r3)
     e5c:	e0bfd815 	stw	r2,-160(fp)
     e60:	18800217 	ldw	r2,8(r3)
     e64:	e0bfd915 	stw	r2,-156(fp)
     e68:	18800317 	ldw	r2,12(r3)
     e6c:	e0bfda15 	stw	r2,-152(fp)
     e70:	18800417 	ldw	r2,16(r3)
     e74:	e0bfdb15 	stw	r2,-148(fp)
     e78:	18800517 	ldw	r2,20(r3)
     e7c:	e0bfdc15 	stw	r2,-144(fp)
     e80:	18800617 	ldw	r2,24(r3)
     e84:	e0bfdd15 	stw	r2,-140(fp)
     e88:	18800717 	ldw	r2,28(r3)
     e8c:	e0bfde15 	stw	r2,-136(fp)
     e90:	18800817 	ldw	r2,32(r3)
     e94:	e0bfdf15 	stw	r2,-132(fp)
     e98:	1880090b 	ldhu	r2,36(r3)
     e9c:	e0bfe00d 	sth	r2,-128(fp)
     ea0:	e13fe084 	addi	r4,fp,-126
     ea4:	01800a84 	movi	r6,42
     ea8:	000b883a 	mov	r5,zero
     eac:	0003b140 	call	3b14 <memset>
	char text_Record[20] = "Record\0";
     eb0:	00c00074 	movhi	r3,1
     eb4:	18cec104 	addi	r3,r3,15108
     eb8:	18800017 	ldw	r2,0(r3)
     ebc:	e0bfeb15 	stw	r2,-84(fp)
     ec0:	18800117 	ldw	r2,4(r3)
     ec4:	e0bfec15 	stw	r2,-80(fp)
     ec8:	e03fed15 	stw	zero,-76(fp)
     ecc:	e03fee15 	stw	zero,-72(fp)
     ed0:	e03fef15 	stw	zero,-68(fp)
	char text_Play[20] = "Play\0";
     ed4:	00c00074 	movhi	r3,1
     ed8:	18cec604 	addi	r3,r3,15128
     edc:	18800017 	ldw	r2,0(r3)
     ee0:	e0bff015 	stw	r2,-64(fp)
     ee4:	1880010b 	ldhu	r2,4(r3)
     ee8:	e0bff10d 	sth	r2,-60(fp)
     eec:	e03ff18d 	sth	zero,-58(fp)
     ef0:	e03ff20d 	sth	zero,-56(fp)
     ef4:	e03ff28d 	sth	zero,-54(fp)
     ef8:	e03ff30d 	sth	zero,-52(fp)
     efc:	e03ff38d 	sth	zero,-50(fp)
     f00:	e03ff40d 	sth	zero,-48(fp)
     f04:	e03ff48d 	sth	zero,-46(fp)
	char text_Echo[20] = "Echo\0";
     f08:	00c00074 	movhi	r3,1
     f0c:	18cecb04 	addi	r3,r3,15148
     f10:	18800017 	ldw	r2,0(r3)
     f14:	e0bff515 	stw	r2,-44(fp)
     f18:	1880010b 	ldhu	r2,4(r3)
     f1c:	e0bff60d 	sth	r2,-40(fp)
     f20:	e03ff68d 	sth	zero,-38(fp)
     f24:	e03ff70d 	sth	zero,-36(fp)
     f28:	e03ff78d 	sth	zero,-34(fp)
     f2c:	e03ff80d 	sth	zero,-32(fp)
     f30:	e03ff88d 	sth	zero,-30(fp)
     f34:	e03ff90d 	sth	zero,-28(fp)
     f38:	e03ff98d 	sth	zero,-26(fp)
	char test_Audio[20] = "Audio Plot\0";
     f3c:	00c00074 	movhi	r3,1
     f40:	18ced004 	addi	r3,r3,15168
     f44:	18800017 	ldw	r2,0(r3)
     f48:	e0bffa15 	stw	r2,-24(fp)
     f4c:	18800117 	ldw	r2,4(r3)
     f50:	e0bffb15 	stw	r2,-20(fp)
     f54:	18800217 	ldw	r2,8(r3)
     f58:	e0bffc15 	stw	r2,-16(fp)
     f5c:	e03ffd15 	stw	zero,-12(fp)
     f60:	e03ffe15 	stw	zero,-8(fp)

	/* output text message to the LCD */
	alt_up_character_lcd_set_cursor_pos (lcd_dev, 0, 0);	// set LCD cursor location to top row
     f64:	e13fd217 	ldw	r4,-184(fp)
     f68:	000b883a 	mov	r5,zero
     f6c:	000d883a 	mov	r6,zero
     f70:	000f5bc0 	call	f5bc <alt_up_character_lcd_set_cursor_pos>
	alt_up_character_lcd_string (lcd_dev, text_top_LCD);
     f74:	e17fd704 	addi	r5,fp,-164
     f78:	e13fd217 	ldw	r4,-184(fp)
     f7c:	000f4f80 	call	f4f8 <alt_up_character_lcd_string>
	alt_up_character_lcd_cursor_off (lcd_dev);				// turn off the LCD cursor 
     f80:	e13fd217 	ldw	r4,-184(fp)
     f84:	000f8240 	call	f824 <alt_up_character_lcd_cursor_off>

	/* open the pixel buffer */
	pixel_buffer_dev = alt_up_pixel_buffer_dma_open_dev ("/dev/VGA_Pixel_Buffer");
     f88:	01000074 	movhi	r4,1
     f8c:	210e7204 	addi	r4,r4,14792
     f90:	0010d840 	call	10d84 <alt_up_pixel_buffer_dma_open_dev>
     f94:	e0bfcf15 	stw	r2,-196(fp)
	if ( pixel_buffer_dev == NULL)
     f98:	e0bfcf17 	ldw	r2,-196(fp)
     f9c:	1004c03a 	cmpne	r2,r2,zero
     fa0:	1000041e 	bne	r2,zero,fb4 <main+0x478>
		alt_printf ("Error: could not open pixel buffer device\n");
     fa4:	01000074 	movhi	r4,1
     fa8:	210e7804 	addi	r4,r4,14816
     fac:	000d4100 	call	d410 <alt_printf>
     fb0:	00000306 	br	fc0 <main+0x484>
	else
		alt_printf ("Opened pixel buffer device\n");
     fb4:	01000074 	movhi	r4,1
     fb8:	210e8304 	addi	r4,r4,14860
     fbc:	000d4100 	call	d410 <alt_printf>

	/* output text message in the middle of the VGA monitor */
	char_buffer_dev = alt_up_char_buffer_open_dev ("/dev/VGA_Char_Buffer");
     fc0:	01000074 	movhi	r4,1
     fc4:	210e8a04 	addi	r4,r4,14888
     fc8:	0010b040 	call	10b04 <alt_up_char_buffer_open_dev>
     fcc:	e0bfd015 	stw	r2,-192(fp)
	if ( char_buffer_dev == NULL)
     fd0:	e0bfd017 	ldw	r2,-192(fp)
     fd4:	1004c03a 	cmpne	r2,r2,zero
     fd8:	1000041e 	bne	r2,zero,fec <main+0x4b0>
		alt_printf ("Error: could not open character buffer device\n");
     fdc:	01000074 	movhi	r4,1
     fe0:	210e9004 	addi	r4,r4,14912
     fe4:	000d4100 	call	d410 <alt_printf>
     fe8:	00000306 	br	ff8 <main+0x4bc>
	else
		alt_printf ("Opened character buffer device\n");
     fec:	01000074 	movhi	r4,1
     ff0:	210e9c04 	addi	r4,r4,14960
     ff4:	000d4100 	call	d410 <alt_printf>


	/* the following variables give the size of the pixel buffer */
	screen_x = 319; screen_y = 239;
     ff8:	00804fc4 	movi	r2,319
     ffc:	e0bfc515 	stw	r2,-236(fp)
    1000:	00803bc4 	movi	r2,239
    1004:	e0bfc415 	stw	r2,-240(fp)
	color = 0x1863;		// a dark grey color
    1008:	008618c4 	movi	r2,6243
    100c:	e0bfc10d 	sth	r2,-252(fp)
	alt_up_pixel_buffer_dma_draw_box (pixel_buffer_dev, 0, 0, screen_x, 
    1010:	e0ffc10f 	ldh	r3,-252(fp)
    1014:	e0bfc417 	ldw	r2,-240(fp)
    1018:	d8800015 	stw	r2,0(sp)
    101c:	d8c00115 	stw	r3,4(sp)
    1020:	d8000215 	stw	zero,8(sp)
    1024:	e13fcf17 	ldw	r4,-196(fp)
    1028:	000b883a 	mov	r5,zero
    102c:	000d883a 	mov	r6,zero
    1030:	e1ffc517 	ldw	r7,-236(fp)
    1034:	00111ac0 	call	111ac <alt_up_pixel_buffer_dma_draw_box>
		screen_y, color, 0); // fill the screen
	
	// draw a medium-blue box in the middle of the screen, using character buffer coordinates
	blue_x1 = 0; blue_x2 = 100; blue_y1 = 0; blue_y2 = 20;
    1038:	e03fc915 	stw	zero,-220(fp)
    103c:	00801904 	movi	r2,100
    1040:	e0bfc715 	stw	r2,-228(fp)
    1044:	e03fc815 	stw	zero,-224(fp)
    1048:	00800504 	movi	r2,20
    104c:	e0bfc615 	stw	r2,-232(fp)
	// character coords * 4 since characters are 4 x 4 pixel buffer coords (8 x 8 VGA coords)
	color = 0x0360;		// a medium blue color
    1050:	0080d804 	movi	r2,864
    1054:	e0bfc10d 	sth	r2,-252(fp)
	alt_up_pixel_buffer_dma_draw_box (pixel_buffer_dev, blue_x1 * 4, blue_y1 * 4, blue_x2 * 4, 
    1058:	e0bfc917 	ldw	r2,-220(fp)
    105c:	1085883a 	add	r2,r2,r2
    1060:	1085883a 	add	r2,r2,r2
    1064:	100b883a 	mov	r5,r2
    1068:	e0bfc817 	ldw	r2,-224(fp)
    106c:	1085883a 	add	r2,r2,r2
    1070:	1085883a 	add	r2,r2,r2
    1074:	100d883a 	mov	r6,r2
    1078:	e0bfc717 	ldw	r2,-228(fp)
    107c:	1085883a 	add	r2,r2,r2
    1080:	1085883a 	add	r2,r2,r2
    1084:	100f883a 	mov	r7,r2
    1088:	e0bfc617 	ldw	r2,-232(fp)
    108c:	1085883a 	add	r2,r2,r2
    1090:	1085883a 	add	r2,r2,r2
    1094:	e0ffc10f 	ldh	r3,-252(fp)
    1098:	d8800015 	stw	r2,0(sp)
    109c:	d8c00115 	stw	r3,4(sp)
    10a0:	d8000215 	stw	zero,8(sp)
    10a4:	e13fcf17 	ldw	r4,-196(fp)
    10a8:	00111ac0 	call	111ac <alt_up_pixel_buffer_dma_draw_box>
		blue_y2 * 4, color, 0);

	//Green Box For Record //Record ******************
	blue_x1 = 15; blue_x2 = 25; blue_y1 = 4; blue_y2 = 14;
    10ac:	008003c4 	movi	r2,15
    10b0:	e0bfc915 	stw	r2,-220(fp)
    10b4:	00800644 	movi	r2,25
    10b8:	e0bfc715 	stw	r2,-228(fp)
    10bc:	00800104 	movi	r2,4
    10c0:	e0bfc815 	stw	r2,-224(fp)
    10c4:	00800384 	movi	r2,14
    10c8:	e0bfc615 	stw	r2,-232(fp)
	// character coords * 4 since characters are 4 x 4 pixel buffer coords (8 x 8 VGA coords)
	color = 0x100F;		// a medium blue color
    10cc:	008403c4 	movi	r2,4111
    10d0:	e0bfc10d 	sth	r2,-252(fp)
	alt_up_pixel_buffer_dma_draw_box (pixel_buffer_dev, blue_x1 * 4, blue_y1 * 4, blue_x2 * 4,
    10d4:	e0bfc917 	ldw	r2,-220(fp)
    10d8:	1085883a 	add	r2,r2,r2
    10dc:	1085883a 	add	r2,r2,r2
    10e0:	100b883a 	mov	r5,r2
    10e4:	e0bfc817 	ldw	r2,-224(fp)
    10e8:	1085883a 	add	r2,r2,r2
    10ec:	1085883a 	add	r2,r2,r2
    10f0:	100d883a 	mov	r6,r2
    10f4:	e0bfc717 	ldw	r2,-228(fp)
    10f8:	1085883a 	add	r2,r2,r2
    10fc:	1085883a 	add	r2,r2,r2
    1100:	100f883a 	mov	r7,r2
    1104:	e0bfc617 	ldw	r2,-232(fp)
    1108:	1085883a 	add	r2,r2,r2
    110c:	1085883a 	add	r2,r2,r2
    1110:	e0ffc10f 	ldh	r3,-252(fp)
    1114:	d8800015 	stw	r2,0(sp)
    1118:	d8c00115 	stw	r3,4(sp)
    111c:	d8000215 	stw	zero,8(sp)
    1120:	e13fcf17 	ldw	r4,-196(fp)
    1124:	00111ac0 	call	111ac <alt_up_pixel_buffer_dma_draw_box>
		blue_y2 * 4, color, 0);
	alt_up_char_buffer_string (char_buffer_dev, text_Record, blue_x1 + 2, blue_y1 + 4);
    1128:	e0bfc917 	ldw	r2,-220(fp)
    112c:	10800084 	addi	r2,r2,2
    1130:	100d883a 	mov	r6,r2
    1134:	e0bfc817 	ldw	r2,-224(fp)
    1138:	10800104 	addi	r2,r2,4
    113c:	100f883a 	mov	r7,r2
    1140:	e17feb04 	addi	r5,fp,-84
    1144:	e13fd017 	ldw	r4,-192(fp)
    1148:	0010c140 	call	10c14 <alt_up_char_buffer_string>

	//Green Box For Play //PLAY**********************
	blue_x1 = 35; blue_x2 = 45; blue_y1 = 4; blue_y2 = 14;
    114c:	008008c4 	movi	r2,35
    1150:	e0bfc915 	stw	r2,-220(fp)
    1154:	00800b44 	movi	r2,45
    1158:	e0bfc715 	stw	r2,-228(fp)
    115c:	00800104 	movi	r2,4
    1160:	e0bfc815 	stw	r2,-224(fp)
    1164:	00800384 	movi	r2,14
    1168:	e0bfc615 	stw	r2,-232(fp)
	// character coords * 4 since characters are 4 x 4 pixel buffer coords (8 x 8 VGA coords)
	color = 0x100F;		// a medium blue color
    116c:	008403c4 	movi	r2,4111
    1170:	e0bfc10d 	sth	r2,-252(fp)
	alt_up_pixel_buffer_dma_draw_box (pixel_buffer_dev, blue_x1 * 4, blue_y1 * 4, blue_x2 * 4,
    1174:	e0bfc917 	ldw	r2,-220(fp)
    1178:	1085883a 	add	r2,r2,r2
    117c:	1085883a 	add	r2,r2,r2
    1180:	100b883a 	mov	r5,r2
    1184:	e0bfc817 	ldw	r2,-224(fp)
    1188:	1085883a 	add	r2,r2,r2
    118c:	1085883a 	add	r2,r2,r2
    1190:	100d883a 	mov	r6,r2
    1194:	e0bfc717 	ldw	r2,-228(fp)
    1198:	1085883a 	add	r2,r2,r2
    119c:	1085883a 	add	r2,r2,r2
    11a0:	100f883a 	mov	r7,r2
    11a4:	e0bfc617 	ldw	r2,-232(fp)
    11a8:	1085883a 	add	r2,r2,r2
    11ac:	1085883a 	add	r2,r2,r2
    11b0:	e0ffc10f 	ldh	r3,-252(fp)
    11b4:	d8800015 	stw	r2,0(sp)
    11b8:	d8c00115 	stw	r3,4(sp)
    11bc:	d8000215 	stw	zero,8(sp)
    11c0:	e13fcf17 	ldw	r4,-196(fp)
    11c4:	00111ac0 	call	111ac <alt_up_pixel_buffer_dma_draw_box>
		blue_y2 * 4, color, 0);
	alt_up_char_buffer_string (char_buffer_dev, text_Play, blue_x1 + 4, blue_y1 + 4);
    11c8:	e0bfc917 	ldw	r2,-220(fp)
    11cc:	10800104 	addi	r2,r2,4
    11d0:	100d883a 	mov	r6,r2
    11d4:	e0bfc817 	ldw	r2,-224(fp)
    11d8:	10800104 	addi	r2,r2,4
    11dc:	100f883a 	mov	r7,r2
    11e0:	e17ff004 	addi	r5,fp,-64
    11e4:	e13fd017 	ldw	r4,-192(fp)
    11e8:	0010c140 	call	10c14 <alt_up_char_buffer_string>

	//Green Box For Echo //Echo**********************
	blue_x1 = 55; blue_x2 = 65; blue_y1 = 4; blue_y2 = 14;
    11ec:	00800dc4 	movi	r2,55
    11f0:	e0bfc915 	stw	r2,-220(fp)
    11f4:	00801044 	movi	r2,65
    11f8:	e0bfc715 	stw	r2,-228(fp)
    11fc:	00800104 	movi	r2,4
    1200:	e0bfc815 	stw	r2,-224(fp)
    1204:	00800384 	movi	r2,14
    1208:	e0bfc615 	stw	r2,-232(fp)
	// character coords * 4 since characters are 4 x 4 pixel buffer coords (8 x 8 VGA coords)
	color = 0x100F;		// a medium blue color
    120c:	008403c4 	movi	r2,4111
    1210:	e0bfc10d 	sth	r2,-252(fp)
	alt_up_pixel_buffer_dma_draw_box (pixel_buffer_dev, blue_x1 * 4, blue_y1 * 4, blue_x2 * 4,
    1214:	e0bfc917 	ldw	r2,-220(fp)
    1218:	1085883a 	add	r2,r2,r2
    121c:	1085883a 	add	r2,r2,r2
    1220:	100b883a 	mov	r5,r2
    1224:	e0bfc817 	ldw	r2,-224(fp)
    1228:	1085883a 	add	r2,r2,r2
    122c:	1085883a 	add	r2,r2,r2
    1230:	100d883a 	mov	r6,r2
    1234:	e0bfc717 	ldw	r2,-228(fp)
    1238:	1085883a 	add	r2,r2,r2
    123c:	1085883a 	add	r2,r2,r2
    1240:	100f883a 	mov	r7,r2
    1244:	e0bfc617 	ldw	r2,-232(fp)
    1248:	1085883a 	add	r2,r2,r2
    124c:	1085883a 	add	r2,r2,r2
    1250:	e0ffc10f 	ldh	r3,-252(fp)
    1254:	d8800015 	stw	r2,0(sp)
    1258:	d8c00115 	stw	r3,4(sp)
    125c:	d8000215 	stw	zero,8(sp)
    1260:	e13fcf17 	ldw	r4,-196(fp)
    1264:	00111ac0 	call	111ac <alt_up_pixel_buffer_dma_draw_box>
		blue_y2 * 4, color, 0);
	alt_up_char_buffer_string (char_buffer_dev, text_Echo, blue_x1 + 4, blue_y1 + 4);
    1268:	e0bfc917 	ldw	r2,-220(fp)
    126c:	10800104 	addi	r2,r2,4
    1270:	100d883a 	mov	r6,r2
    1274:	e0bfc817 	ldw	r2,-224(fp)
    1278:	10800104 	addi	r2,r2,4
    127c:	100f883a 	mov	r7,r2
    1280:	e17ff504 	addi	r5,fp,-44
    1284:	e13fd017 	ldw	r4,-192(fp)
    1288:	0010c140 	call	10c14 <alt_up_char_buffer_string>

	// Draw Audio Display
	blue_x1 = 0; blue_x2 = 100; blue_y1 = 20; blue_y2 = 60;
    128c:	e03fc915 	stw	zero,-220(fp)
    1290:	00801904 	movi	r2,100
    1294:	e0bfc715 	stw	r2,-228(fp)
    1298:	00800504 	movi	r2,20
    129c:	e0bfc815 	stw	r2,-224(fp)
    12a0:	00800f04 	movi	r2,60
    12a4:	e0bfc615 	stw	r2,-232(fp)
	// character coords * 4 since characters are 4 x 4 pixel buffer coords (8 x 8 VGA coords)
	color = 0x0328;		// a medium blue color
    12a8:	0080ca04 	movi	r2,808
    12ac:	e0bfc10d 	sth	r2,-252(fp)
	alt_up_pixel_buffer_dma_draw_box (pixel_buffer_dev, blue_x1 * 4, blue_y1 * 4, blue_x2 * 4,
    12b0:	e0bfc917 	ldw	r2,-220(fp)
    12b4:	1085883a 	add	r2,r2,r2
    12b8:	1085883a 	add	r2,r2,r2
    12bc:	100b883a 	mov	r5,r2
    12c0:	e0bfc817 	ldw	r2,-224(fp)
    12c4:	1085883a 	add	r2,r2,r2
    12c8:	1085883a 	add	r2,r2,r2
    12cc:	100d883a 	mov	r6,r2
    12d0:	e0bfc717 	ldw	r2,-228(fp)
    12d4:	1085883a 	add	r2,r2,r2
    12d8:	1085883a 	add	r2,r2,r2
    12dc:	100f883a 	mov	r7,r2
    12e0:	e0bfc617 	ldw	r2,-232(fp)
    12e4:	1085883a 	add	r2,r2,r2
    12e8:	1085883a 	add	r2,r2,r2
    12ec:	e0ffc10f 	ldh	r3,-252(fp)
    12f0:	d8800015 	stw	r2,0(sp)
    12f4:	d8c00115 	stw	r3,4(sp)
    12f8:	d8000215 	stw	zero,8(sp)
    12fc:	e13fcf17 	ldw	r4,-196(fp)
    1300:	00111ac0 	call	111ac <alt_up_pixel_buffer_dma_draw_box>
		blue_y2 * 4, color, 0);

	//Write Audio
	blue_x1 = 39; blue_y1 = 22;
    1304:	008009c4 	movi	r2,39
    1308:	e0bfc915 	stw	r2,-220(fp)
    130c:	00800584 	movi	r2,22
    1310:	e0bfc815 	stw	r2,-224(fp)
	color = 0xABCD;
    1314:	00aaf344 	movi	r2,-21555
    1318:	e0bfc10d 	sth	r2,-252(fp)
	alt_up_char_buffer_string (char_buffer_dev, test_Audio, blue_x1 , blue_y1 );
    131c:	e1bfc917 	ldw	r6,-220(fp)
    1320:	e1ffc817 	ldw	r7,-224(fp)
    1324:	e17ffa04 	addi	r5,fp,-24
    1328:	e13fd017 	ldw	r4,-192(fp)
    132c:	0010c140 	call	10c14 <alt_up_char_buffer_string>
	//Audio Line
	blue_x1 = 10; blue_x2 = 70; blue_y1 = 21;
    1330:	00800284 	movi	r2,10
    1334:	e0bfc915 	stw	r2,-220(fp)
    1338:	00801184 	movi	r2,70
    133c:	e0bfc715 	stw	r2,-228(fp)
    1340:	00800544 	movi	r2,21
    1344:	e0bfc815 	stw	r2,-224(fp)
	color = 0xABCD;
    1348:	00aaf344 	movi	r2,-21555
    134c:	e0bfc10d 	sth	r2,-252(fp)
	alt_up_pixel_buffer_dma_draw_hline(pixel_buffer_dev,blue_x1 * 4, blue_x2 * 4, blue_y1 * 4, color, 0);
    1350:	e0bfc917 	ldw	r2,-220(fp)
    1354:	1085883a 	add	r2,r2,r2
    1358:	1085883a 	add	r2,r2,r2
    135c:	100b883a 	mov	r5,r2
    1360:	e0bfc717 	ldw	r2,-228(fp)
    1364:	1085883a 	add	r2,r2,r2
    1368:	1085883a 	add	r2,r2,r2
    136c:	100d883a 	mov	r6,r2
    1370:	e0bfc817 	ldw	r2,-224(fp)
    1374:	1085883a 	add	r2,r2,r2
    1378:	1085883a 	add	r2,r2,r2
    137c:	100f883a 	mov	r7,r2
    1380:	e0bfc10f 	ldh	r2,-252(fp)
    1384:	d8800015 	stw	r2,0(sp)
    1388:	d8000115 	stw	zero,4(sp)
    138c:	e13fcf17 	ldw	r4,-196(fp)
    1390:	00116a00 	call	116a0 <alt_up_pixel_buffer_dma_draw_hline>
	blue_x1 = 10; blue_x2 = 70; blue_y1 = 23;
    1394:	00800284 	movi	r2,10
    1398:	e0bfc915 	stw	r2,-220(fp)
    139c:	00801184 	movi	r2,70
    13a0:	e0bfc715 	stw	r2,-228(fp)
    13a4:	008005c4 	movi	r2,23
    13a8:	e0bfc815 	stw	r2,-224(fp)
	alt_up_pixel_buffer_dma_draw_hline(pixel_buffer_dev,blue_x1 * 4, blue_x2 * 4, blue_y1 * 4, color, 0);
    13ac:	e0bfc917 	ldw	r2,-220(fp)
    13b0:	1085883a 	add	r2,r2,r2
    13b4:	1085883a 	add	r2,r2,r2
    13b8:	100b883a 	mov	r5,r2
    13bc:	e0bfc717 	ldw	r2,-228(fp)
    13c0:	1085883a 	add	r2,r2,r2
    13c4:	1085883a 	add	r2,r2,r2
    13c8:	100d883a 	mov	r6,r2
    13cc:	e0bfc817 	ldw	r2,-224(fp)
    13d0:	1085883a 	add	r2,r2,r2
    13d4:	1085883a 	add	r2,r2,r2
    13d8:	100f883a 	mov	r7,r2
    13dc:	e0bfc10f 	ldh	r2,-252(fp)
    13e0:	d8800015 	stw	r2,0(sp)
    13e4:	d8000115 	stw	zero,4(sp)
    13e8:	e13fcf17 	ldw	r4,-196(fp)
    13ec:	00116a00 	call	116a0 <alt_up_pixel_buffer_dma_draw_hline>
	//Audio OverFlow
	alt_up_pixel_buffer_dma_draw_hline(pixel_buffer_dev,10, 300, 105, 0xABCD, 0);
    13f0:	00aaf354 	movui	r2,43981
    13f4:	d8800015 	stw	r2,0(sp)
    13f8:	d8000115 	stw	zero,4(sp)
    13fc:	e13fcf17 	ldw	r4,-196(fp)
    1400:	01400284 	movi	r5,10
    1404:	01804b04 	movi	r6,300
    1408:	01c01a44 	movi	r7,105
    140c:	00116a00 	call	116a0 <alt_up_pixel_buffer_dma_draw_hline>

	
	char_buffer_x = 79; char_buffer_y = 59;
    1410:	008013c4 	movi	r2,79
    1414:	e0bfc315 	stw	r2,-244(fp)
    1418:	00800ec4 	movi	r2,59
    141c:	e0bfc215 	stw	r2,-248(fp)
	MouseX = 10;
    1420:	00800284 	movi	r2,10
    1424:	e0bfcd15 	stw	r2,-204(fp)
	MouseY = 10;
    1428:	00800284 	movi	r2,10
    142c:	e0bfcc15 	stw	r2,-208(fp)
	int temp1;
	int temp2;
	int temp3;
	Echo_complete = 0;
    1430:	008000b4 	movhi	r2,2
    1434:	10a05904 	addi	r2,r2,-32412
    1438:	10000015 	stw	zero,0(r2)
	Play_Index = 0;
    143c:	008000b4 	movhi	r2,2
    1440:	10a05604 	addi	r2,r2,-32424
    1444:	10000015 	stw	zero,0(r2)
    1448:	00000006 	br	144c <main+0x910>
	/* this loops "bounces" the word ALTERA around on the VGA screen */
	while (1)
	{
			while(!timeout);
    144c:	008000b4 	movhi	r2,2
    1450:	10a05d04 	addi	r2,r2,-32396
    1454:	10800017 	ldw	r2,0(r2)
    1458:	1005003a 	cmpeq	r2,r2,zero
    145c:	103ffb1e 	bne	r2,zero,144c <main+0x910>
			// wait to synchronize with timeout, which is set by the interval timer ISR
			/* also, display any PS/2 data (from its interrupt service routine) on HEX displays */
			HEXxy_PS2 (&up_dev, byte1, byte2, byte3);
    1460:	008000b4 	movhi	r2,2
    1464:	10a05704 	addi	r2,r2,-32420
    1468:	10800003 	ldbu	r2,0(r2)
    146c:	11403fcc 	andi	r5,r2,255
    1470:	008000b4 	movhi	r2,2
    1474:	10a05504 	addi	r2,r2,-32428
    1478:	10800003 	ldbu	r2,0(r2)
    147c:	11803fcc 	andi	r6,r2,255
    1480:	008000b4 	movhi	r2,2
    1484:	10a05544 	addi	r2,r2,-32427
    1488:	10800003 	ldbu	r2,0(r2)
    148c:	11c03fcc 	andi	r7,r2,255
    1490:	010000b4 	movhi	r4,2
    1494:	21208b04 	addi	r4,r4,-32212
    1498:	0001e900 	call	1e90 <HEXxy_PS2>
			temp1 = byte1;
    149c:	008000b4 	movhi	r2,2
    14a0:	10a05704 	addi	r2,r2,-32420
    14a4:	10800003 	ldbu	r2,0(r2)
    14a8:	10803fcc 	andi	r2,r2,255
    14ac:	e0bfbf15 	stw	r2,-260(fp)
			temp2 = byte2;
    14b0:	008000b4 	movhi	r2,2
    14b4:	10a05504 	addi	r2,r2,-32428
    14b8:	10800003 	ldbu	r2,0(r2)
    14bc:	10803fcc 	andi	r2,r2,255
    14c0:	e0bfbe15 	stw	r2,-264(fp)
			temp3 = byte3;
    14c4:	008000b4 	movhi	r2,2
    14c8:	10a05544 	addi	r2,r2,-32427
    14cc:	10800003 	ldbu	r2,0(r2)
    14d0:	10803fcc 	andi	r2,r2,255
    14d4:	e0bfbd15 	stw	r2,-268(fp)
			if((temp1 >= 100 && !Xsign) || (temp2>= 100 && !Ysign)){
    14d8:	e0bfbf17 	ldw	r2,-260(fp)
    14dc:	10801910 	cmplti	r2,r2,100
    14e0:	1000031e 	bne	r2,zero,14f0 <main+0x9b4>
    14e4:	d0a85017 	ldw	r2,-24256(gp)
    14e8:	1005003a 	cmpeq	r2,r2,zero
    14ec:	103fd71e 	bne	r2,zero,144c <main+0x910>
    14f0:	e0bfbe17 	ldw	r2,-264(fp)
    14f4:	10801910 	cmplti	r2,r2,100
    14f8:	1000031e 	bne	r2,zero,1508 <main+0x9cc>
    14fc:	d0a85417 	ldw	r2,-24240(gp)
    1500:	1005003a 	cmpeq	r2,r2,zero
    1504:	103fd11e 	bne	r2,zero,144c <main+0x910>
				continue;
			}
			if((temp1 <= 150 && Xsign) || (temp2<= 150 && Ysign)){
    1508:	e0bfbf17 	ldw	r2,-260(fp)
    150c:	108025c8 	cmpgei	r2,r2,151
    1510:	1000031e 	bne	r2,zero,1520 <main+0x9e4>
    1514:	d0a85017 	ldw	r2,-24256(gp)
    1518:	1004c03a 	cmpne	r2,r2,zero
    151c:	103fcb1e 	bne	r2,zero,144c <main+0x910>
    1520:	e0bfbe17 	ldw	r2,-264(fp)
    1524:	108025c8 	cmpgei	r2,r2,151
    1528:	1000031e 	bne	r2,zero,1538 <main+0x9fc>
    152c:	d0a85417 	ldw	r2,-24240(gp)
    1530:	1004c03a 	cmpne	r2,r2,zero
    1534:	103fc51e 	bne	r2,zero,144c <main+0x910>
				continue;
			}


			//Record interrupt
			if(Temp_MouseX >= 60 && Temp_MouseX <= 100 && Temp_MouseY >= 16 && Temp_MouseY <= 56){
    1538:	e0bfcb17 	ldw	r2,-212(fp)
    153c:	10800f10 	cmplti	r2,r2,60
    1540:	10006f1e 	bne	r2,zero,1700 <main+0xbc4>
    1544:	e0bfcb17 	ldw	r2,-212(fp)
    1548:	10801948 	cmpgei	r2,r2,101
    154c:	10006c1e 	bne	r2,zero,1700 <main+0xbc4>
    1550:	e0bfca17 	ldw	r2,-216(fp)
    1554:	10800410 	cmplti	r2,r2,16
    1558:	1000691e 	bne	r2,zero,1700 <main+0xbc4>
    155c:	e0bfca17 	ldw	r2,-216(fp)
    1560:	10800e48 	cmpgei	r2,r2,57
    1564:	1000661e 	bne	r2,zero,1700 <main+0xbc4>
				if(Temp_MouseX <= 62 || Temp_MouseX >= 98 || Temp_MouseY <= 20 || Temp_MouseY >= 52){
    1568:	e0bfcb17 	ldw	r2,-212(fp)
    156c:	10800fd0 	cmplti	r2,r2,63
    1570:	1000091e 	bne	r2,zero,1598 <main+0xa5c>
    1574:	e0bfcb17 	ldw	r2,-212(fp)
    1578:	10801888 	cmpgei	r2,r2,98
    157c:	1000061e 	bne	r2,zero,1598 <main+0xa5c>
    1580:	e0bfca17 	ldw	r2,-216(fp)
    1584:	10800550 	cmplti	r2,r2,21
    1588:	1000031e 	bne	r2,zero,1598 <main+0xa5c>
    158c:	e0bfca17 	ldw	r2,-216(fp)
    1590:	10800d10 	cmplti	r2,r2,52
    1594:	1000481e 	bne	r2,zero,16b8 <main+0xb7c>

					// draw a medium-blue box in the middle of the screen, using character buffer coordinates
					blue_x1 = 14; blue_x2 = 26; blue_y1 = 3; blue_y2 = 15;
    1598:	00800384 	movi	r2,14
    159c:	e0bfc915 	stw	r2,-220(fp)
    15a0:	00800684 	movi	r2,26
    15a4:	e0bfc715 	stw	r2,-228(fp)
    15a8:	008000c4 	movi	r2,3
    15ac:	e0bfc815 	stw	r2,-224(fp)
    15b0:	008003c4 	movi	r2,15
    15b4:	e0bfc615 	stw	r2,-232(fp)
					// character coords * 4 since characters are 4 x 4 pixel buffer coords (8 x 8 VGA coords)
					color = 0x0360;		// a medium blue color
    15b8:	0080d804 	movi	r2,864
    15bc:	e0bfc10d 	sth	r2,-252(fp)
					alt_up_pixel_buffer_dma_draw_box (pixel_buffer_dev, blue_x1 * 4, blue_y1 * 4, blue_x2 * 4,
    15c0:	e0bfc917 	ldw	r2,-220(fp)
    15c4:	1085883a 	add	r2,r2,r2
    15c8:	1085883a 	add	r2,r2,r2
    15cc:	100b883a 	mov	r5,r2
    15d0:	e0bfc817 	ldw	r2,-224(fp)
    15d4:	1085883a 	add	r2,r2,r2
    15d8:	1085883a 	add	r2,r2,r2
    15dc:	100d883a 	mov	r6,r2
    15e0:	e0bfc717 	ldw	r2,-228(fp)
    15e4:	1085883a 	add	r2,r2,r2
    15e8:	1085883a 	add	r2,r2,r2
    15ec:	100f883a 	mov	r7,r2
    15f0:	e0bfc617 	ldw	r2,-232(fp)
    15f4:	1085883a 	add	r2,r2,r2
    15f8:	1085883a 	add	r2,r2,r2
    15fc:	e0ffc10f 	ldh	r3,-252(fp)
    1600:	d8800015 	stw	r2,0(sp)
    1604:	d8c00115 	stw	r3,4(sp)
    1608:	d8000215 	stw	zero,8(sp)
    160c:	e13fcf17 	ldw	r4,-196(fp)
    1610:	00111ac0 	call	111ac <alt_up_pixel_buffer_dma_draw_box>
						blue_y2 * 4, color, 0);

					//Green Box For Record //Record ******************
					// character coords * 4 since characters are 4 x 4 pixel buffer coords (8 x 8 VGA coords)
					blue_x1 = 15; blue_x2 = 25; blue_y1 = 4; blue_y2 = 14;
    1614:	008003c4 	movi	r2,15
    1618:	e0bfc915 	stw	r2,-220(fp)
    161c:	00800644 	movi	r2,25
    1620:	e0bfc715 	stw	r2,-228(fp)
    1624:	00800104 	movi	r2,4
    1628:	e0bfc815 	stw	r2,-224(fp)
    162c:	00800384 	movi	r2,14
    1630:	e0bfc615 	stw	r2,-232(fp)
					color = 0x100F;
    1634:	008403c4 	movi	r2,4111
    1638:	e0bfc10d 	sth	r2,-252(fp)
					alt_up_pixel_buffer_dma_draw_box (pixel_buffer_dev, blue_x1 * 4, blue_y1 * 4, blue_x2 * 4,
    163c:	e0bfc917 	ldw	r2,-220(fp)
    1640:	1085883a 	add	r2,r2,r2
    1644:	1085883a 	add	r2,r2,r2
    1648:	100b883a 	mov	r5,r2
    164c:	e0bfc817 	ldw	r2,-224(fp)
    1650:	1085883a 	add	r2,r2,r2
    1654:	1085883a 	add	r2,r2,r2
    1658:	100d883a 	mov	r6,r2
    165c:	e0bfc717 	ldw	r2,-228(fp)
    1660:	1085883a 	add	r2,r2,r2
    1664:	1085883a 	add	r2,r2,r2
    1668:	100f883a 	mov	r7,r2
    166c:	e0bfc617 	ldw	r2,-232(fp)
    1670:	1085883a 	add	r2,r2,r2
    1674:	1085883a 	add	r2,r2,r2
    1678:	e0ffc10f 	ldh	r3,-252(fp)
    167c:	d8800015 	stw	r2,0(sp)
    1680:	d8c00115 	stw	r3,4(sp)
    1684:	d8000215 	stw	zero,8(sp)
    1688:	e13fcf17 	ldw	r4,-196(fp)
    168c:	00111ac0 	call	111ac <alt_up_pixel_buffer_dma_draw_box>
						blue_y2 * 4, color, 0);
					alt_up_char_buffer_string (char_buffer_dev, text_Record, blue_x1 + 2, blue_y1 + 4);
    1690:	e0bfc917 	ldw	r2,-220(fp)
    1694:	10800084 	addi	r2,r2,2
    1698:	100d883a 	mov	r6,r2
    169c:	e0bfc817 	ldw	r2,-224(fp)
    16a0:	10800104 	addi	r2,r2,4
    16a4:	100f883a 	mov	r7,r2
    16a8:	e17feb04 	addi	r5,fp,-84
    16ac:	e13fd017 	ldw	r4,-192(fp)
    16b0:	0010c140 	call	10c14 <alt_up_char_buffer_string>
			}


			//Record interrupt
			if(Temp_MouseX >= 60 && Temp_MouseX <= 100 && Temp_MouseY >= 16 && Temp_MouseY <= 56){
				if(Temp_MouseX <= 62 || Temp_MouseX >= 98 || Temp_MouseY <= 20 || Temp_MouseY >= 52){
    16b4:	00011306 	br	1b04 <main+0xfc8>
						blue_y2 * 4, color, 0);
					alt_up_char_buffer_string (char_buffer_dev, text_Record, blue_x1 + 2, blue_y1 + 4);

				}
				else {
					color = 0x100F;		// a medium blue color
    16b8:	008403c4 	movi	r2,4111
    16bc:	e0bfc10d 	sth	r2,-252(fp)
					alt_up_pixel_buffer_dma_draw_box (pixel_buffer_dev, Temp_MouseX - 2, Temp_MouseY - 2, Temp_MouseX + 2, Temp_MouseY + 2, color, 1);
    16c0:	e0bfcb17 	ldw	r2,-212(fp)
    16c4:	117fff84 	addi	r5,r2,-2
    16c8:	e0bfca17 	ldw	r2,-216(fp)
    16cc:	11bfff84 	addi	r6,r2,-2
    16d0:	e0bfcb17 	ldw	r2,-212(fp)
    16d4:	11c00084 	addi	r7,r2,2
    16d8:	e0bfca17 	ldw	r2,-216(fp)
    16dc:	10800084 	addi	r2,r2,2
    16e0:	e0ffc10f 	ldh	r3,-252(fp)
    16e4:	d8800015 	stw	r2,0(sp)
    16e8:	d8c00115 	stw	r3,4(sp)
    16ec:	00800044 	movi	r2,1
    16f0:	d8800215 	stw	r2,8(sp)
    16f4:	e13fcf17 	ldw	r4,-196(fp)
    16f8:	00111ac0 	call	111ac <alt_up_pixel_buffer_dma_draw_box>
				continue;
			}


			//Record interrupt
			if(Temp_MouseX >= 60 && Temp_MouseX <= 100 && Temp_MouseY >= 16 && Temp_MouseY <= 56){
    16fc:	00010106 	br	1b04 <main+0xfc8>
					alt_up_pixel_buffer_dma_draw_box (pixel_buffer_dev, Temp_MouseX - 2, Temp_MouseY - 2, Temp_MouseX + 2, Temp_MouseY + 2, color, 1);
				}
			}


			else if(Temp_MouseX >= 140 && Temp_MouseX <= 180 && Temp_MouseY >= 16 && Temp_MouseY <= 56){
    1700:	e0bfcb17 	ldw	r2,-212(fp)
    1704:	10802310 	cmplti	r2,r2,140
    1708:	10006f1e 	bne	r2,zero,18c8 <main+0xd8c>
    170c:	e0bfcb17 	ldw	r2,-212(fp)
    1710:	10802d48 	cmpgei	r2,r2,181
    1714:	10006c1e 	bne	r2,zero,18c8 <main+0xd8c>
    1718:	e0bfca17 	ldw	r2,-216(fp)
    171c:	10800410 	cmplti	r2,r2,16
    1720:	1000691e 	bne	r2,zero,18c8 <main+0xd8c>
    1724:	e0bfca17 	ldw	r2,-216(fp)
    1728:	10800e48 	cmpgei	r2,r2,57
    172c:	1000661e 	bne	r2,zero,18c8 <main+0xd8c>
				if(Temp_MouseX <= 142 || Temp_MouseX >= 178 || Temp_MouseY <= 20 || Temp_MouseY >= 52){
    1730:	e0bfcb17 	ldw	r2,-212(fp)
    1734:	108023d0 	cmplti	r2,r2,143
    1738:	1000091e 	bne	r2,zero,1760 <main+0xc24>
    173c:	e0bfcb17 	ldw	r2,-212(fp)
    1740:	10802c88 	cmpgei	r2,r2,178
    1744:	1000061e 	bne	r2,zero,1760 <main+0xc24>
    1748:	e0bfca17 	ldw	r2,-216(fp)
    174c:	10800550 	cmplti	r2,r2,21
    1750:	1000031e 	bne	r2,zero,1760 <main+0xc24>
    1754:	e0bfca17 	ldw	r2,-216(fp)
    1758:	10800d10 	cmplti	r2,r2,52
    175c:	1000481e 	bne	r2,zero,1880 <main+0xd44>

					// draw a medium-blue box in the middle of the screen, using character buffer coordinates
					blue_x1 = 34; blue_x2 = 46; blue_y1 = 3; blue_y2 = 15;
    1760:	00800884 	movi	r2,34
    1764:	e0bfc915 	stw	r2,-220(fp)
    1768:	00800b84 	movi	r2,46
    176c:	e0bfc715 	stw	r2,-228(fp)
    1770:	008000c4 	movi	r2,3
    1774:	e0bfc815 	stw	r2,-224(fp)
    1778:	008003c4 	movi	r2,15
    177c:	e0bfc615 	stw	r2,-232(fp)
					// character coords * 4 since characters are 4 x 4 pixel buffer coords (8 x 8 VGA coords)
					color = 0x0360;		// a medium blue color
    1780:	0080d804 	movi	r2,864
    1784:	e0bfc10d 	sth	r2,-252(fp)
					alt_up_pixel_buffer_dma_draw_box (pixel_buffer_dev, blue_x1 * 4, blue_y1 * 4, blue_x2 * 4,
    1788:	e0bfc917 	ldw	r2,-220(fp)
    178c:	1085883a 	add	r2,r2,r2
    1790:	1085883a 	add	r2,r2,r2
    1794:	100b883a 	mov	r5,r2
    1798:	e0bfc817 	ldw	r2,-224(fp)
    179c:	1085883a 	add	r2,r2,r2
    17a0:	1085883a 	add	r2,r2,r2
    17a4:	100d883a 	mov	r6,r2
    17a8:	e0bfc717 	ldw	r2,-228(fp)
    17ac:	1085883a 	add	r2,r2,r2
    17b0:	1085883a 	add	r2,r2,r2
    17b4:	100f883a 	mov	r7,r2
    17b8:	e0bfc617 	ldw	r2,-232(fp)
    17bc:	1085883a 	add	r2,r2,r2
    17c0:	1085883a 	add	r2,r2,r2
    17c4:	e0ffc10f 	ldh	r3,-252(fp)
    17c8:	d8800015 	stw	r2,0(sp)
    17cc:	d8c00115 	stw	r3,4(sp)
    17d0:	d8000215 	stw	zero,8(sp)
    17d4:	e13fcf17 	ldw	r4,-196(fp)
    17d8:	00111ac0 	call	111ac <alt_up_pixel_buffer_dma_draw_box>
						blue_y2 * 4, color, 0);

					blue_x1 = 35; blue_x2 = 45; blue_y1 = 4; blue_y2 = 14;
    17dc:	008008c4 	movi	r2,35
    17e0:	e0bfc915 	stw	r2,-220(fp)
    17e4:	00800b44 	movi	r2,45
    17e8:	e0bfc715 	stw	r2,-228(fp)
    17ec:	00800104 	movi	r2,4
    17f0:	e0bfc815 	stw	r2,-224(fp)
    17f4:	00800384 	movi	r2,14
    17f8:	e0bfc615 	stw	r2,-232(fp)
					//Green Box For Record //Record ******************
					// character coords * 4 since characters are 4 x 4 pixel buffer coords (8 x 8 VGA coords)
					color = 0x100F;		//
    17fc:	008403c4 	movi	r2,4111
    1800:	e0bfc10d 	sth	r2,-252(fp)
					alt_up_pixel_buffer_dma_draw_box (pixel_buffer_dev, blue_x1 * 4, blue_y1 * 4, blue_x2 * 4,
    1804:	e0bfc917 	ldw	r2,-220(fp)
    1808:	1085883a 	add	r2,r2,r2
    180c:	1085883a 	add	r2,r2,r2
    1810:	100b883a 	mov	r5,r2
    1814:	e0bfc817 	ldw	r2,-224(fp)
    1818:	1085883a 	add	r2,r2,r2
    181c:	1085883a 	add	r2,r2,r2
    1820:	100d883a 	mov	r6,r2
    1824:	e0bfc717 	ldw	r2,-228(fp)
    1828:	1085883a 	add	r2,r2,r2
    182c:	1085883a 	add	r2,r2,r2
    1830:	100f883a 	mov	r7,r2
    1834:	e0bfc617 	ldw	r2,-232(fp)
    1838:	1085883a 	add	r2,r2,r2
    183c:	1085883a 	add	r2,r2,r2
    1840:	e0ffc10f 	ldh	r3,-252(fp)
    1844:	d8800015 	stw	r2,0(sp)
    1848:	d8c00115 	stw	r3,4(sp)
    184c:	d8000215 	stw	zero,8(sp)
    1850:	e13fcf17 	ldw	r4,-196(fp)
    1854:	00111ac0 	call	111ac <alt_up_pixel_buffer_dma_draw_box>
						blue_y2 * 4, color, 0);
					alt_up_char_buffer_string (char_buffer_dev, text_Play, blue_x1 + 4, blue_y1 + 4);
    1858:	e0bfc917 	ldw	r2,-220(fp)
    185c:	10800104 	addi	r2,r2,4
    1860:	100d883a 	mov	r6,r2
    1864:	e0bfc817 	ldw	r2,-224(fp)
    1868:	10800104 	addi	r2,r2,4
    186c:	100f883a 	mov	r7,r2
    1870:	e17ff004 	addi	r5,fp,-64
    1874:	e13fd017 	ldw	r4,-192(fp)
    1878:	0010c140 	call	10c14 <alt_up_char_buffer_string>
				}
			}


			else if(Temp_MouseX >= 140 && Temp_MouseX <= 180 && Temp_MouseY >= 16 && Temp_MouseY <= 56){
				if(Temp_MouseX <= 142 || Temp_MouseX >= 178 || Temp_MouseY <= 20 || Temp_MouseY >= 52){
    187c:	0000a106 	br	1b04 <main+0xfc8>
						blue_y2 * 4, color, 0);
					alt_up_char_buffer_string (char_buffer_dev, text_Play, blue_x1 + 4, blue_y1 + 4);

				}
				else {
					color = 0x100F;		// a medium blue color
    1880:	008403c4 	movi	r2,4111
    1884:	e0bfc10d 	sth	r2,-252(fp)
					alt_up_pixel_buffer_dma_draw_box (pixel_buffer_dev, Temp_MouseX - 2, Temp_MouseY - 2, Temp_MouseX + 2, Temp_MouseY + 2, color, 1);
    1888:	e0bfcb17 	ldw	r2,-212(fp)
    188c:	117fff84 	addi	r5,r2,-2
    1890:	e0bfca17 	ldw	r2,-216(fp)
    1894:	11bfff84 	addi	r6,r2,-2
    1898:	e0bfcb17 	ldw	r2,-212(fp)
    189c:	11c00084 	addi	r7,r2,2
    18a0:	e0bfca17 	ldw	r2,-216(fp)
    18a4:	10800084 	addi	r2,r2,2
    18a8:	e0ffc10f 	ldh	r3,-252(fp)
    18ac:	d8800015 	stw	r2,0(sp)
    18b0:	d8c00115 	stw	r3,4(sp)
    18b4:	00800044 	movi	r2,1
    18b8:	d8800215 	stw	r2,8(sp)
    18bc:	e13fcf17 	ldw	r4,-196(fp)
    18c0:	00111ac0 	call	111ac <alt_up_pixel_buffer_dma_draw_box>
					alt_up_pixel_buffer_dma_draw_box (pixel_buffer_dev, Temp_MouseX - 2, Temp_MouseY - 2, Temp_MouseX + 2, Temp_MouseY + 2, color, 1);
				}
			}


			else if(Temp_MouseX >= 140 && Temp_MouseX <= 180 && Temp_MouseY >= 16 && Temp_MouseY <= 56){
    18c4:	00008f06 	br	1b04 <main+0xfc8>
					color = 0x100F;		// a medium blue color
					alt_up_pixel_buffer_dma_draw_box (pixel_buffer_dev, Temp_MouseX - 2, Temp_MouseY - 2, Temp_MouseX + 2, Temp_MouseY + 2, color, 1);
				}
			}

			else if(Temp_MouseX >= 220 && Temp_MouseX <= 260 && Temp_MouseY >= 16 && Temp_MouseY <= 56){
    18c8:	e0bfcb17 	ldw	r2,-212(fp)
    18cc:	10803710 	cmplti	r2,r2,220
    18d0:	10006f1e 	bne	r2,zero,1a90 <main+0xf54>
    18d4:	e0bfcb17 	ldw	r2,-212(fp)
    18d8:	10804148 	cmpgei	r2,r2,261
    18dc:	10006c1e 	bne	r2,zero,1a90 <main+0xf54>
    18e0:	e0bfca17 	ldw	r2,-216(fp)
    18e4:	10800410 	cmplti	r2,r2,16
    18e8:	1000691e 	bne	r2,zero,1a90 <main+0xf54>
    18ec:	e0bfca17 	ldw	r2,-216(fp)
    18f0:	10800e48 	cmpgei	r2,r2,57
    18f4:	1000661e 	bne	r2,zero,1a90 <main+0xf54>
				if(Temp_MouseX <= 222 || Temp_MouseX >= 258 || Temp_MouseY <= 20 || Temp_MouseY >= 52){
    18f8:	e0bfcb17 	ldw	r2,-212(fp)
    18fc:	108037d0 	cmplti	r2,r2,223
    1900:	1000091e 	bne	r2,zero,1928 <main+0xdec>
    1904:	e0bfcb17 	ldw	r2,-212(fp)
    1908:	10804088 	cmpgei	r2,r2,258
    190c:	1000061e 	bne	r2,zero,1928 <main+0xdec>
    1910:	e0bfca17 	ldw	r2,-216(fp)
    1914:	10800550 	cmplti	r2,r2,21
    1918:	1000031e 	bne	r2,zero,1928 <main+0xdec>
    191c:	e0bfca17 	ldw	r2,-216(fp)
    1920:	10800d10 	cmplti	r2,r2,52
    1924:	1000481e 	bne	r2,zero,1a48 <main+0xf0c>

					// draw a medium-blue box in the middle of the screen, using character buffer coordinates
					blue_x1 = 54; blue_x2 = 66; blue_y1 = 3; blue_y2 = 15;
    1928:	00800d84 	movi	r2,54
    192c:	e0bfc915 	stw	r2,-220(fp)
    1930:	00801084 	movi	r2,66
    1934:	e0bfc715 	stw	r2,-228(fp)
    1938:	008000c4 	movi	r2,3
    193c:	e0bfc815 	stw	r2,-224(fp)
    1940:	008003c4 	movi	r2,15
    1944:	e0bfc615 	stw	r2,-232(fp)
					// character coords * 4 since characters are 4 x 4 pixel buffer coords (8 x 8 VGA coords)
					color = 0x0360;		// a medium blue color
    1948:	0080d804 	movi	r2,864
    194c:	e0bfc10d 	sth	r2,-252(fp)
					alt_up_pixel_buffer_dma_draw_box (pixel_buffer_dev, blue_x1 * 4, blue_y1 * 4, blue_x2 * 4,
    1950:	e0bfc917 	ldw	r2,-220(fp)
    1954:	1085883a 	add	r2,r2,r2
    1958:	1085883a 	add	r2,r2,r2
    195c:	100b883a 	mov	r5,r2
    1960:	e0bfc817 	ldw	r2,-224(fp)
    1964:	1085883a 	add	r2,r2,r2
    1968:	1085883a 	add	r2,r2,r2
    196c:	100d883a 	mov	r6,r2
    1970:	e0bfc717 	ldw	r2,-228(fp)
    1974:	1085883a 	add	r2,r2,r2
    1978:	1085883a 	add	r2,r2,r2
    197c:	100f883a 	mov	r7,r2
    1980:	e0bfc617 	ldw	r2,-232(fp)
    1984:	1085883a 	add	r2,r2,r2
    1988:	1085883a 	add	r2,r2,r2
    198c:	e0ffc10f 	ldh	r3,-252(fp)
    1990:	d8800015 	stw	r2,0(sp)
    1994:	d8c00115 	stw	r3,4(sp)
    1998:	d8000215 	stw	zero,8(sp)
    199c:	e13fcf17 	ldw	r4,-196(fp)
    19a0:	00111ac0 	call	111ac <alt_up_pixel_buffer_dma_draw_box>
						blue_y2 * 4, color, 0);

					//Green Box For Record //Record ******************
					// character coords * 4 since characters are 4 x 4 pixel buffer coords (8 x 8 VGA coords)
					blue_x1 = 55; blue_x2 = 65; blue_y1 = 4; blue_y2 = 14;
    19a4:	00800dc4 	movi	r2,55
    19a8:	e0bfc915 	stw	r2,-220(fp)
    19ac:	00801044 	movi	r2,65
    19b0:	e0bfc715 	stw	r2,-228(fp)
    19b4:	00800104 	movi	r2,4
    19b8:	e0bfc815 	stw	r2,-224(fp)
    19bc:	00800384 	movi	r2,14
    19c0:	e0bfc615 	stw	r2,-232(fp)
					color = 0x100F;
    19c4:	008403c4 	movi	r2,4111
    19c8:	e0bfc10d 	sth	r2,-252(fp)
					alt_up_pixel_buffer_dma_draw_box (pixel_buffer_dev, blue_x1 * 4, blue_y1 * 4, blue_x2 * 4,
    19cc:	e0bfc917 	ldw	r2,-220(fp)
    19d0:	1085883a 	add	r2,r2,r2
    19d4:	1085883a 	add	r2,r2,r2
    19d8:	100b883a 	mov	r5,r2
    19dc:	e0bfc817 	ldw	r2,-224(fp)
    19e0:	1085883a 	add	r2,r2,r2
    19e4:	1085883a 	add	r2,r2,r2
    19e8:	100d883a 	mov	r6,r2
    19ec:	e0bfc717 	ldw	r2,-228(fp)
    19f0:	1085883a 	add	r2,r2,r2
    19f4:	1085883a 	add	r2,r2,r2
    19f8:	100f883a 	mov	r7,r2
    19fc:	e0bfc617 	ldw	r2,-232(fp)
    1a00:	1085883a 	add	r2,r2,r2
    1a04:	1085883a 	add	r2,r2,r2
    1a08:	e0ffc10f 	ldh	r3,-252(fp)
    1a0c:	d8800015 	stw	r2,0(sp)
    1a10:	d8c00115 	stw	r3,4(sp)
    1a14:	d8000215 	stw	zero,8(sp)
    1a18:	e13fcf17 	ldw	r4,-196(fp)
    1a1c:	00111ac0 	call	111ac <alt_up_pixel_buffer_dma_draw_box>
						blue_y2 * 4, color, 0);
					alt_up_char_buffer_string (char_buffer_dev, text_Echo, blue_x1 + 4, blue_y1 + 4);
    1a20:	e0bfc917 	ldw	r2,-220(fp)
    1a24:	10800104 	addi	r2,r2,4
    1a28:	100d883a 	mov	r6,r2
    1a2c:	e0bfc817 	ldw	r2,-224(fp)
    1a30:	10800104 	addi	r2,r2,4
    1a34:	100f883a 	mov	r7,r2
    1a38:	e17ff504 	addi	r5,fp,-44
    1a3c:	e13fd017 	ldw	r4,-192(fp)
    1a40:	0010c140 	call	10c14 <alt_up_char_buffer_string>
					alt_up_pixel_buffer_dma_draw_box (pixel_buffer_dev, Temp_MouseX - 2, Temp_MouseY - 2, Temp_MouseX + 2, Temp_MouseY + 2, color, 1);
				}
			}

			else if(Temp_MouseX >= 220 && Temp_MouseX <= 260 && Temp_MouseY >= 16 && Temp_MouseY <= 56){
				if(Temp_MouseX <= 222 || Temp_MouseX >= 258 || Temp_MouseY <= 20 || Temp_MouseY >= 52){
    1a44:	00002f06 	br	1b04 <main+0xfc8>
						blue_y2 * 4, color, 0);
					alt_up_char_buffer_string (char_buffer_dev, text_Echo, blue_x1 + 4, blue_y1 + 4);

				}
				else {
					color = 0x100F;		// a medium blue color
    1a48:	008403c4 	movi	r2,4111
    1a4c:	e0bfc10d 	sth	r2,-252(fp)
					alt_up_pixel_buffer_dma_draw_box (pixel_buffer_dev, Temp_MouseX - 2, Temp_MouseY - 2, Temp_MouseX + 2, Temp_MouseY + 2, color, 1);
    1a50:	e0bfcb17 	ldw	r2,-212(fp)
    1a54:	117fff84 	addi	r5,r2,-2
    1a58:	e0bfca17 	ldw	r2,-216(fp)
    1a5c:	11bfff84 	addi	r6,r2,-2
    1a60:	e0bfcb17 	ldw	r2,-212(fp)
    1a64:	11c00084 	addi	r7,r2,2
    1a68:	e0bfca17 	ldw	r2,-216(fp)
    1a6c:	10800084 	addi	r2,r2,2
    1a70:	e0ffc10f 	ldh	r3,-252(fp)
    1a74:	d8800015 	stw	r2,0(sp)
    1a78:	d8c00115 	stw	r3,4(sp)
    1a7c:	00800044 	movi	r2,1
    1a80:	d8800215 	stw	r2,8(sp)
    1a84:	e13fcf17 	ldw	r4,-196(fp)
    1a88:	00111ac0 	call	111ac <alt_up_pixel_buffer_dma_draw_box>
					color = 0x100F;		// a medium blue color
					alt_up_pixel_buffer_dma_draw_box (pixel_buffer_dev, Temp_MouseX - 2, Temp_MouseY - 2, Temp_MouseX + 2, Temp_MouseY + 2, color, 1);
				}
			}

			else if(Temp_MouseX >= 220 && Temp_MouseX <= 260 && Temp_MouseY >= 16 && Temp_MouseY <= 56){
    1a8c:	00001d06 	br	1b04 <main+0xfc8>
					alt_up_pixel_buffer_dma_draw_box (pixel_buffer_dev, Temp_MouseX - 2, Temp_MouseY - 2, Temp_MouseX + 2, Temp_MouseY + 2, color, 1);
				}
			}

			//Boxe Out
			else if(Temp_MouseX >= 0 && Temp_MouseX <= 400 && Temp_MouseY >= 0 && Temp_MouseY <= 80){
    1a90:	e0bfcb17 	ldw	r2,-212(fp)
    1a94:	1004803a 	cmplt	r2,r2,zero
    1a98:	10001a1e 	bne	r2,zero,1b04 <main+0xfc8>
    1a9c:	e0bfcb17 	ldw	r2,-212(fp)
    1aa0:	10806448 	cmpgei	r2,r2,401
    1aa4:	1000171e 	bne	r2,zero,1b04 <main+0xfc8>
    1aa8:	e0bfca17 	ldw	r2,-216(fp)
    1aac:	1004803a 	cmplt	r2,r2,zero
    1ab0:	1000141e 	bne	r2,zero,1b04 <main+0xfc8>
    1ab4:	e0bfca17 	ldw	r2,-216(fp)
    1ab8:	10801448 	cmpgei	r2,r2,81
    1abc:	1000111e 	bne	r2,zero,1b04 <main+0xfc8>
				color = 0x0360;
    1ac0:	0080d804 	movi	r2,864
    1ac4:	e0bfc10d 	sth	r2,-252(fp)
				alt_up_pixel_buffer_dma_draw_box (pixel_buffer_dev, Temp_MouseX - 2, Temp_MouseY - 2, Temp_MouseX + 2, Temp_MouseY + 2, color, 1);
    1ac8:	e0bfcb17 	ldw	r2,-212(fp)
    1acc:	117fff84 	addi	r5,r2,-2
    1ad0:	e0bfca17 	ldw	r2,-216(fp)
    1ad4:	11bfff84 	addi	r6,r2,-2
    1ad8:	e0bfcb17 	ldw	r2,-212(fp)
    1adc:	11c00084 	addi	r7,r2,2
    1ae0:	e0bfca17 	ldw	r2,-216(fp)
    1ae4:	10800084 	addi	r2,r2,2
    1ae8:	e0ffc10f 	ldh	r3,-252(fp)
    1aec:	d8800015 	stw	r2,0(sp)
    1af0:	d8c00115 	stw	r3,4(sp)
    1af4:	00800044 	movi	r2,1
    1af8:	d8800215 	stw	r2,8(sp)
    1afc:	e13fcf17 	ldw	r4,-196(fp)
    1b00:	00111ac0 	call	111ac <alt_up_pixel_buffer_dma_draw_box>
//				alt_up_pixel_buffer_dma_draw_box (pixel_buffer_dev, Temp_MouseX - 2, Temp_MouseY - 2, Temp_MouseX + 2, Temp_MouseY + 2, color, 1);
//			}

//			alt_up_pixel_buffer_dma_draw_box (pixel_buffer_dev, Temp_MouseX - 2, Temp_MouseY - 2, Temp_MouseX + 2, Temp_MouseY + 2, color, 1);

			if(Xsign){
    1b04:	d0a85017 	ldw	r2,-24256(gp)
    1b08:	1005003a 	cmpeq	r2,r2,zero
    1b0c:	1000071e 	bne	r2,zero,1b2c <main+0xff0>
				MouseX = MouseX - (256-(alt_u8)(temp1)) - 1;
    1b10:	e0bfbf17 	ldw	r2,-260(fp)
    1b14:	10c03fcc 	andi	r3,r2,255
    1b18:	e0bfcd17 	ldw	r2,-204(fp)
    1b1c:	1885883a 	add	r2,r3,r2
    1b20:	10bfbfc4 	addi	r2,r2,-257
    1b24:	e0bfcd15 	stw	r2,-204(fp)
    1b28:	00000506 	br	1b40 <main+0x1004>
			}
			else{
				MouseX = MouseX + (alt_u8)(temp1);
    1b2c:	e0bfbf17 	ldw	r2,-260(fp)
    1b30:	10c03fcc 	andi	r3,r2,255
    1b34:	e0bfcd17 	ldw	r2,-204(fp)
    1b38:	10c5883a 	add	r2,r2,r3
    1b3c:	e0bfcd15 	stw	r2,-204(fp)
			}
			if(Ysign){
    1b40:	d0a85417 	ldw	r2,-24240(gp)
    1b44:	1005003a 	cmpeq	r2,r2,zero
    1b48:	1000071e 	bne	r2,zero,1b68 <main+0x102c>
				MouseY = MouseY + (256-(alt_u8)(temp2)) + 1;
    1b4c:	e0bfbe17 	ldw	r2,-264(fp)
    1b50:	10c03fcc 	andi	r3,r2,255
    1b54:	e0bfcc17 	ldw	r2,-208(fp)
    1b58:	10c5c83a 	sub	r2,r2,r3
    1b5c:	10804044 	addi	r2,r2,257
    1b60:	e0bfcc15 	stw	r2,-208(fp)
    1b64:	00000506 	br	1b7c <main+0x1040>
			}
			else {
				MouseY = MouseY - (alt_u8)(temp2);
    1b68:	e0bfbe17 	ldw	r2,-264(fp)
    1b6c:	10c03fcc 	andi	r3,r2,255
    1b70:	e0bfcc17 	ldw	r2,-208(fp)
    1b74:	10c5c83a 	sub	r2,r2,r3
    1b78:	e0bfcc15 	stw	r2,-208(fp)
			}
			if(MouseX >= 320){
    1b7c:	e0bfcd17 	ldw	r2,-204(fp)
    1b80:	10805010 	cmplti	r2,r2,320
    1b84:	1000021e 	bne	r2,zero,1b90 <main+0x1054>
				MouseX = 320;
    1b88:	00805004 	movi	r2,320
    1b8c:	e0bfcd15 	stw	r2,-204(fp)
			}
			if(MouseX <= 2){
    1b90:	e0bfcd17 	ldw	r2,-204(fp)
    1b94:	108000c8 	cmpgei	r2,r2,3
    1b98:	1000021e 	bne	r2,zero,1ba4 <main+0x1068>
				MouseX = 2;
    1b9c:	00800084 	movi	r2,2
    1ba0:	e0bfcd15 	stw	r2,-204(fp)
			}
			if(MouseY >= 77){
    1ba4:	e0bfcc17 	ldw	r2,-208(fp)
    1ba8:	10801350 	cmplti	r2,r2,77
    1bac:	1000021e 	bne	r2,zero,1bb8 <main+0x107c>
				MouseY = 77;
    1bb0:	00801344 	movi	r2,77
    1bb4:	e0bfcc15 	stw	r2,-208(fp)
			}
			if(MouseY <= 2){
    1bb8:	e0bfcc17 	ldw	r2,-208(fp)
    1bbc:	108000c8 	cmpgei	r2,r2,3
    1bc0:	1000021e 	bne	r2,zero,1bcc <main+0x1090>
				MouseY = 2;
    1bc4:	00800084 	movi	r2,2
    1bc8:	e0bfcc15 	stw	r2,-208(fp)
			}
			color = 0xDDDD;		// a medium blue color
    1bcc:	00b77744 	movi	r2,-8739
    1bd0:	e0bfc10d 	sth	r2,-252(fp)
			alt_up_pixel_buffer_dma_draw_box (pixel_buffer_dev, MouseX - 2, MouseY - 2, MouseX + 2, MouseY + 2, color, 1);
    1bd4:	e0bfcd17 	ldw	r2,-204(fp)
    1bd8:	117fff84 	addi	r5,r2,-2
    1bdc:	e0bfcc17 	ldw	r2,-208(fp)
    1be0:	11bfff84 	addi	r6,r2,-2
    1be4:	e0bfcd17 	ldw	r2,-204(fp)
    1be8:	11c00084 	addi	r7,r2,2
    1bec:	e0bfcc17 	ldw	r2,-208(fp)
    1bf0:	10800084 	addi	r2,r2,2
    1bf4:	e0ffc10f 	ldh	r3,-252(fp)
    1bf8:	d8800015 	stw	r2,0(sp)
    1bfc:	d8c00115 	stw	r3,4(sp)
    1c00:	00800044 	movi	r2,1
    1c04:	d8800215 	stw	r2,8(sp)
    1c08:	e13fcf17 	ldw	r4,-196(fp)
    1c0c:	00111ac0 	call	111ac <alt_up_pixel_buffer_dma_draw_box>
//						alt_up_pixel_buffer_dma_draw_box (pixel_buffer_dev, MouseX - a, MouseY - b,MouseX - a+1, MouseY - b+1, color, 1);
//					}
//				}
//			}

			Temp_MouseX = MouseX;
    1c10:	e0bfcd17 	ldw	r2,-204(fp)
    1c14:	e0bfcb15 	stw	r2,-212(fp)
			Temp_MouseY = MouseY;
    1c18:	e0bfcc17 	ldw	r2,-208(fp)
    1c1c:	e0bfca15 	stw	r2,-216(fp)

			//Record interrupt
			if(MouseX >= 60 && MouseX <= 100 && MouseY >= 16 && MouseY <= 56 && LeftBtn){
    1c20:	e0bfcd17 	ldw	r2,-204(fp)
    1c24:	10800f10 	cmplti	r2,r2,60
    1c28:	10001a1e 	bne	r2,zero,1c94 <main+0x1158>
    1c2c:	e0bfcd17 	ldw	r2,-204(fp)
    1c30:	10801948 	cmpgei	r2,r2,101
    1c34:	1000171e 	bne	r2,zero,1c94 <main+0x1158>
    1c38:	e0bfcc17 	ldw	r2,-208(fp)
    1c3c:	10800410 	cmplti	r2,r2,16
    1c40:	1000141e 	bne	r2,zero,1c94 <main+0x1158>
    1c44:	e0bfcc17 	ldw	r2,-208(fp)
    1c48:	10800e48 	cmpgei	r2,r2,57
    1c4c:	1000111e 	bne	r2,zero,1c94 <main+0x1158>
    1c50:	d0a85217 	ldw	r2,-24248(gp)
    1c54:	1005003a 	cmpeq	r2,r2,zero
    1c58:	10000e1e 	bne	r2,zero,1c94 <main+0x1158>
				index_Echo = 0;
    1c5c:	d0284c15 	stw	zero,-24272(gp)
				Echo_complete = 0;
    1c60:	008000b4 	movhi	r2,2
    1c64:	10a05904 	addi	r2,r2,-32412
    1c68:	10000015 	stw	zero,0(r2)
				Click_Echo = 0;
    1c6c:	008000b4 	movhi	r2,2
    1c70:	10a06204 	addi	r2,r2,-32376
    1c74:	10000015 	stw	zero,0(r2)
				// reset the buffer index for recording
				buf_index_record = 0;
    1c78:	008000b4 	movhi	r2,2
    1c7c:	10a06104 	addi	r2,r2,-32380
    1c80:	10000015 	stw	zero,0(r2)
				// clear audio FIFOs
				alt_up_audio_reset_audio_core (audio_dev);
    1c84:	e13fd117 	ldw	r4,-188(fp)
    1c88:	000ed400 	call	ed40 <alt_up_audio_reset_audio_core>
				// enable audio-in interrupts
				alt_up_audio_enable_read_interrupt (audio_dev);
    1c8c:	e13fd117 	ldw	r4,-188(fp)
    1c90:	000eb900 	call	eb90 <alt_up_audio_enable_read_interrupt>
			}

			//Play interrupt
			if(MouseX >= 140 && MouseX <= 180 && MouseY >= 16 && MouseY <= 56 && LeftBtn){
    1c94:	e0bfcd17 	ldw	r2,-204(fp)
    1c98:	10802310 	cmplti	r2,r2,140
    1c9c:	1000231e 	bne	r2,zero,1d2c <main+0x11f0>
    1ca0:	e0bfcd17 	ldw	r2,-204(fp)
    1ca4:	10802d48 	cmpgei	r2,r2,181
    1ca8:	1000201e 	bne	r2,zero,1d2c <main+0x11f0>
    1cac:	e0bfcc17 	ldw	r2,-208(fp)
    1cb0:	10800410 	cmplti	r2,r2,16
    1cb4:	10001d1e 	bne	r2,zero,1d2c <main+0x11f0>
    1cb8:	e0bfcc17 	ldw	r2,-208(fp)
    1cbc:	10800e48 	cmpgei	r2,r2,57
    1cc0:	10001a1e 	bne	r2,zero,1d2c <main+0x11f0>
    1cc4:	d0a85217 	ldw	r2,-24248(gp)
    1cc8:	1005003a 	cmpeq	r2,r2,zero
    1ccc:	1000171e 	bne	r2,zero,1d2c <main+0x11f0>
				Click_Echo = 0;
    1cd0:	008000b4 	movhi	r2,2
    1cd4:	10a06204 	addi	r2,r2,-32376
    1cd8:	10000015 	stw	zero,0(r2)
				Play_Index = 0;
    1cdc:	008000b4 	movhi	r2,2
    1ce0:	10a05604 	addi	r2,r2,-32424
    1ce4:	10000015 	stw	zero,0(r2)
				alt_up_pixel_buffer_dma_draw_box (pixel_buffer_dev, 0 , 205, 100 * 4,
    1ce8:	00803e84 	movi	r2,250
    1cec:	d8800015 	stw	r2,0(sp)
    1cf0:	0080ca04 	movi	r2,808
    1cf4:	d8800115 	stw	r2,4(sp)
    1cf8:	d8000215 	stw	zero,8(sp)
    1cfc:	e13fcf17 	ldw	r4,-196(fp)
    1d00:	000b883a 	mov	r5,zero
    1d04:	01803344 	movi	r6,205
    1d08:	01c06404 	movi	r7,400
    1d0c:	00111ac0 	call	111ac <alt_up_pixel_buffer_dma_draw_box>
					250, 0x0328, 0);
				// reset the buffer index for recording
				buf_index_play = 0;
    1d10:	008000b4 	movhi	r2,2
    1d14:	10a05f04 	addi	r2,r2,-32388
    1d18:	10000015 	stw	zero,0(r2)
				// clear audio FIFOs
				alt_up_audio_reset_audio_core (audio_dev);
    1d1c:	e13fd117 	ldw	r4,-188(fp)
    1d20:	000ed400 	call	ed40 <alt_up_audio_reset_audio_core>
				// enable audio-in interrupts
				alt_up_audio_enable_write_interrupt (audio_dev);
    1d24:	e13fd117 	ldw	r4,-188(fp)
    1d28:	000ec2c0 	call	ec2c <alt_up_audio_enable_write_interrupt>
			}

			//Echo interrupt
			if(MouseX >= 220 && MouseX <= 260 && MouseY >= 16 && MouseY <= 56 && LeftBtn){
    1d2c:	e0bfcd17 	ldw	r2,-204(fp)
    1d30:	10803710 	cmplti	r2,r2,220
    1d34:	1000181e 	bne	r2,zero,1d98 <main+0x125c>
    1d38:	e0bfcd17 	ldw	r2,-204(fp)
    1d3c:	10804148 	cmpgei	r2,r2,261
    1d40:	1000151e 	bne	r2,zero,1d98 <main+0x125c>
    1d44:	e0bfcc17 	ldw	r2,-208(fp)
    1d48:	10800410 	cmplti	r2,r2,16
    1d4c:	1000121e 	bne	r2,zero,1d98 <main+0x125c>
    1d50:	e0bfcc17 	ldw	r2,-208(fp)
    1d54:	10800e48 	cmpgei	r2,r2,57
    1d58:	10000f1e 	bne	r2,zero,1d98 <main+0x125c>
    1d5c:	d0a85217 	ldw	r2,-24248(gp)
    1d60:	1005003a 	cmpeq	r2,r2,zero
    1d64:	10000c1e 	bne	r2,zero,1d98 <main+0x125c>
				Do_Soft_Echo();
    1d68:	000219c0 	call	219c <Do_Soft_Echo>
				Click_Echo = 1;
    1d6c:	008000b4 	movhi	r2,2
    1d70:	10a06204 	addi	r2,r2,-32376
    1d74:	00c00044 	movi	r3,1
    1d78:	10c00015 	stw	r3,0(r2)
				// reset the buffer index for recording
				buf_index_play = 0;
    1d7c:	008000b4 	movhi	r2,2
    1d80:	10a05f04 	addi	r2,r2,-32388
    1d84:	10000015 	stw	zero,0(r2)
				// clear audio FIFOs
				alt_up_audio_reset_audio_core (audio_dev);
    1d88:	e13fd117 	ldw	r4,-188(fp)
    1d8c:	000ed400 	call	ed40 <alt_up_audio_reset_audio_core>
				// enable audio-in interrupts
				alt_up_audio_enable_write_interrupt (audio_dev);
    1d90:	e13fd117 	ldw	r4,-188(fp)
    1d94:	000ec2c0 	call	ec2c <alt_up_audio_enable_write_interrupt>
			}
//			if(Echo_End == 1 && Echo_complete == 0){
//				Do_Echo();
//			}

			if(End_Record == 1){
    1d98:	008000b4 	movhi	r2,2
    1d9c:	10a05c04 	addi	r2,r2,-32400
    1da0:	10800017 	ldw	r2,0(r2)
    1da4:	10800058 	cmpnei	r2,r2,1
    1da8:	10002c1e 	bne	r2,zero,1e5c <main+0x1320>
//				clock_t c1 = clock();
				int time_Start;
				int time_End;
				int Elapsed;
				printf("[timestamp]timestamp 1:%.3f second\n", (float)alt_timestamp()/(float)alt_timestamp_freq());
    1dac:	000ea8c0 	call	ea8c <alt_timestamp>
    1db0:	1009883a 	mov	r4,r2
    1db4:	00032740 	call	3274 <__floatunsisf>
    1db8:	1021883a 	mov	r16,r2
    1dbc:	000eb280 	call	eb28 <alt_timestamp_freq>
    1dc0:	1009883a 	mov	r4,r2
    1dc4:	00032740 	call	3274 <__floatunsisf>
    1dc8:	8085fff2 	custom	255,r2,r16,r2
    1dcc:	1009883a 	mov	r4,r2
    1dd0:	00032200 	call	3220 <__extendsfdf2>
    1dd4:	100d883a 	mov	r6,r2
    1dd8:	180f883a 	mov	r7,r3
    1ddc:	01000074 	movhi	r4,1
    1de0:	210ea404 	addi	r4,r4,14992
    1de4:	300b883a 	mov	r5,r6
    1de8:	380d883a 	mov	r6,r7
    1dec:	0003bac0 	call	3bac <printf>
				Audio_Average(); // Software Calculate
    1df0:	00024cc0 	call	24cc <Audio_Average>
//				clock_t c2 = clock();
				printf("[timestamp]timestamp 1:%.3f second\n", (float)alt_timestamp()/(float)alt_timestamp_freq());
    1df4:	000ea8c0 	call	ea8c <alt_timestamp>
    1df8:	1009883a 	mov	r4,r2
    1dfc:	00032740 	call	3274 <__floatunsisf>
    1e00:	1021883a 	mov	r16,r2
    1e04:	000eb280 	call	eb28 <alt_timestamp_freq>
    1e08:	1009883a 	mov	r4,r2
    1e0c:	00032740 	call	3274 <__floatunsisf>
    1e10:	8085fff2 	custom	255,r2,r16,r2
    1e14:	1009883a 	mov	r4,r2
    1e18:	00032200 	call	3220 <__extendsfdf2>
    1e1c:	100d883a 	mov	r6,r2
    1e20:	180f883a 	mov	r7,r3
    1e24:	01000074 	movhi	r4,1
    1e28:	210ea404 	addi	r4,r4,14992
    1e2c:	300b883a 	mov	r5,r6
    1e30:	380d883a 	mov	r6,r7
    1e34:	0003bac0 	call	3bac <printf>
				Elapsed = time_End - time_Start;
    1e38:	e0ffbb17 	ldw	r3,-276(fp)
    1e3c:	e0bfbc17 	ldw	r2,-272(fp)
    1e40:	1885c83a 	sub	r2,r3,r2
    1e44:	e0bfba15 	stw	r2,-280(fp)
//				printf("%d",Elapsed);
//				int Runtime = ((c2 - c1) * 1000);
//				printf("%d",Runtime);
//				Do_Hardware_Calculate();//Hardware Calculate
//				Calculate_Avrage();//For Hardware
				End_Record = 0;
    1e48:	008000b4 	movhi	r2,2
    1e4c:	10a05c04 	addi	r2,r2,-32400
    1e50:	10000015 	stw	zero,0(r2)
				Plot_AudioRecord(pixel_buffer_dev);
    1e54:	e13fcf17 	ldw	r4,-196(fp)
    1e58:	00023400 	call	2340 <Plot_AudioRecord>
			}
			Plot_Play_Audio(pixel_buffer_dev);
    1e5c:	e13fcf17 	ldw	r4,-196(fp)
    1e60:	00027840 	call	2784 <Plot_Play_Audio>
			timeout = 0;
    1e64:	008000b4 	movhi	r2,2
    1e68:	10a05d04 	addi	r2,r2,-32396
    1e6c:	10000015 	stw	zero,0(r2)

		}
    1e70:	003d7606 	br	144c <main+0x910>
    1e74:	e0bfff17 	ldw	r2,-4(fp)
}
    1e78:	e037883a 	mov	sp,fp
    1e7c:	dfc00217 	ldw	ra,8(sp)
    1e80:	df000117 	ldw	fp,4(sp)
    1e84:	dc000017 	ldw	r16,0(sp)
    1e88:	dec00304 	addi	sp,sp,12
    1e8c:	f800283a 	ret

00001e90 <HEXxy_PS2>:
 * also use the HAL functions for these ports instead
 ****************************************************************************************/

/****************************************************************************************/
void HEXxy_PS2(struct alt_up_dev *up_dev,unsigned char b1, unsigned char b2, unsigned char b3)
{
    1e90:	deffec04 	addi	sp,sp,-80
    1e94:	dfc01315 	stw	ra,76(sp)
    1e98:	df001215 	stw	fp,72(sp)
    1e9c:	df001204 	addi	fp,sp,72
    1ea0:	e13ffc15 	stw	r4,-16(fp)
    1ea4:	e17ffd05 	stb	r5,-12(fp)
    1ea8:	e1bffe05 	stb	r6,-8(fp)
    1eac:	e1ffff05 	stb	r7,-4(fp)
	volatile int *HEX3_HEX0_ptr = (int *) 0x10000020;
    1eb0:	00840034 	movhi	r2,4096
    1eb4:	10800804 	addi	r2,r2,32
    1eb8:	e0bff515 	stw	r2,-44(fp)
	volatile int *HEX7_HEX4_ptr = (int *) 0x10000030;
    1ebc:	00840034 	movhi	r2,4096
    1ec0:	10800c04 	addi	r2,r2,48
    1ec4:	e0bff415 	stw	r2,-48(fp)

	/* SEVEN_SEGMENT_DECODE_TABLE gives the on/off settings for all segments in
	 * a single 7-seg display in the DE2 Media Computer, for the hex digits 0 - F */
	unsigned char	seven_seg_decode_table[] = {0x3F, 0x06, 0x5B, 0x4F, 0x66, 0x6D, 0x7D, 0x07,
												0x7F, 0x67, 0x77, 0x7C, 0x39, 0x5E, 0x79, 0x71  };
    1ec8:	00800074 	movhi	r2,1
    1ecc:	108ed504 	addi	r2,r2,15188
    1ed0:	e13ff604 	addi	r4,fp,-40
    1ed4:	100b883a 	mov	r5,r2
    1ed8:	01800404 	movi	r6,16
    1edc:	0003a740 	call	3a74 <memcpy>
	unsigned char	hex_segs[] = { 0, 0, 0, 0, 0, 0, 0, 0 };
    1ee0:	e03ffa05 	stb	zero,-24(fp)
    1ee4:	e03ffa45 	stb	zero,-23(fp)
    1ee8:	e03ffa85 	stb	zero,-22(fp)
    1eec:	e03ffac5 	stb	zero,-21(fp)
    1ef0:	e03ffb05 	stb	zero,-20(fp)
    1ef4:	e03ffb45 	stb	zero,-19(fp)
    1ef8:	e03ffb85 	stb	zero,-18(fp)
    1efc:	e03ffbc5 	stb	zero,-17(fp)
	unsigned int shift_buffer,Temp_Buffer, nibble;
	unsigned char code;
	unsigned int Mouse_Btn;
	int i;

	shift_buffer = (b1 << 16) | (b2 << 8) | b3;
    1f00:	e0bffd03 	ldbu	r2,-12(fp)
    1f04:	1006943a 	slli	r3,r2,16
    1f08:	e0bffe03 	ldbu	r2,-8(fp)
    1f0c:	1004923a 	slli	r2,r2,8
    1f10:	1886b03a 	or	r3,r3,r2
    1f14:	e0bfff03 	ldbu	r2,-4(fp)
    1f18:	1884b03a 	or	r2,r3,r2
    1f1c:	e0bff315 	stw	r2,-52(fp)
	Temp_Buffer = shift_buffer;
    1f20:	e0bff317 	ldw	r2,-52(fp)
    1f24:	e0bff215 	stw	r2,-56(fp)


	for ( i = 0; i < 6; i++ )
    1f28:	e03fee15 	stw	zero,-72(fp)
    1f2c:	00008a06 	br	2158 <HEXxy_PS2+0x2c8>
	{
		nibble = shift_buffer & 0x0000000F;		// character is in rightmost nibble
    1f30:	e0bff317 	ldw	r2,-52(fp)
    1f34:	108003cc 	andi	r2,r2,15
    1f38:	e0bff115 	stw	r2,-60(fp)
		code = seven_seg_decode_table[nibble];
    1f3c:	e0fff117 	ldw	r3,-60(fp)
    1f40:	e0bff604 	addi	r2,fp,-40
    1f44:	10c5883a 	add	r2,r2,r3
    1f48:	10800003 	ldbu	r2,0(r2)
    1f4c:	e0bff005 	stb	r2,-64(fp)
		if(i==0){
    1f50:	e0bfee17 	ldw	r2,-72(fp)
    1f54:	1004c03a 	cmpne	r2,r2,zero
    1f58:	1000131e 	bne	r2,zero,1fa8 <HEXxy_PS2+0x118>
			LeftBtn   = shift_buffer & 0x00000001;
    1f5c:	e0bff317 	ldw	r2,-52(fp)
    1f60:	1080004c 	andi	r2,r2,1
    1f64:	d0a85215 	stw	r2,-24248(gp)
			RightBtn  = shift_buffer & 0x00000002;
    1f68:	e0bff317 	ldw	r2,-52(fp)
    1f6c:	1080008c 	andi	r2,r2,2
    1f70:	d0a84f15 	stw	r2,-24260(gp)
			MiddleBtn = shift_buffer & 0x00000004;
    1f74:	e0bff317 	ldw	r2,-52(fp)
    1f78:	1080010c 	andi	r2,r2,4
    1f7c:	d0a84b15 	stw	r2,-24276(gp)
			Mouse_Btn = LeftBtn | MiddleBtn | RightBtn;
    1f80:	d0e85217 	ldw	r3,-24248(gp)
    1f84:	d0a84b17 	ldw	r2,-24276(gp)
    1f88:	1886b03a 	or	r3,r3,r2
    1f8c:	d0a84f17 	ldw	r2,-24260(gp)
    1f90:	1884b03a 	or	r2,r3,r2
    1f94:	e0bfef15 	stw	r2,-68(fp)
			IOWR_ALT_UP_PARALLEL_PORT_DATA(RED_LEDS_BASE,Mouse_Btn);
    1f98:	e0ffef17 	ldw	r3,-68(fp)
    1f9c:	00840034 	movhi	r2,4096
    1fa0:	10c00035 	stwio	r3,0(r2)
    1fa4:	00006606 	br	2140 <HEXxy_PS2+0x2b0>
		}
		else if(i==1){
    1fa8:	e0bfee17 	ldw	r2,-72(fp)
    1fac:	10800058 	cmpnei	r2,r2,1
    1fb0:	1000211e 	bne	r2,zero,2038 <HEXxy_PS2+0x1a8>
			Xsign = shift_buffer & 0x00000001;
    1fb4:	e0bff317 	ldw	r2,-52(fp)
    1fb8:	1080004c 	andi	r2,r2,1
    1fbc:	d0a85015 	stw	r2,-24256(gp)
			Ysign = shift_buffer & 0x00000002;
    1fc0:	e0bff317 	ldw	r2,-52(fp)
    1fc4:	1080008c 	andi	r2,r2,2
    1fc8:	d0a85415 	stw	r2,-24240(gp)
			XoverFlow = shift_buffer & 0x00000004;
    1fcc:	e0bff317 	ldw	r2,-52(fp)
    1fd0:	1080010c 	andi	r2,r2,4
    1fd4:	d0a84a15 	stw	r2,-24280(gp)
			YoverFlow = shift_buffer & 0x00000008;
    1fd8:	e0bff317 	ldw	r2,-52(fp)
    1fdc:	1080020c 	andi	r2,r2,8
    1fe0:	d0a85315 	stw	r2,-24244(gp)
			hex_segs[6] = seven_seg_decode_table[Xsign];
    1fe4:	d0e85017 	ldw	r3,-24256(gp)
    1fe8:	e0bff604 	addi	r2,fp,-40
    1fec:	10c5883a 	add	r2,r2,r3
    1ff0:	10800003 	ldbu	r2,0(r2)
    1ff4:	e0bffb85 	stb	r2,-18(fp)
			hex_segs[2] = seven_seg_decode_table[Ysign];
    1ff8:	d0e85417 	ldw	r3,-24240(gp)
    1ffc:	e0bff604 	addi	r2,fp,-40
    2000:	10c5883a 	add	r2,r2,r3
    2004:	10800003 	ldbu	r2,0(r2)
    2008:	e0bffa85 	stb	r2,-22(fp)
			hex_segs[7] = seven_seg_decode_table[XoverFlow];
    200c:	d0e84a17 	ldw	r3,-24280(gp)
    2010:	e0bff604 	addi	r2,fp,-40
    2014:	10c5883a 	add	r2,r2,r3
    2018:	10800003 	ldbu	r2,0(r2)
    201c:	e0bffbc5 	stb	r2,-17(fp)
			hex_segs[3] = seven_seg_decode_table[YoverFlow];
    2020:	d0e85317 	ldw	r3,-24244(gp)
    2024:	e0bff604 	addi	r2,fp,-40
    2028:	10c5883a 	add	r2,r2,r3
    202c:	10800003 	ldbu	r2,0(r2)
    2030:	e0bffac5 	stb	r2,-21(fp)
    2034:	00004206 	br	2140 <HEXxy_PS2+0x2b0>
		}
		else if(i==4 || i==5){
    2038:	e0bfee17 	ldw	r2,-72(fp)
    203c:	10800120 	cmpeqi	r2,r2,4
    2040:	1000031e 	bne	r2,zero,2050 <HEXxy_PS2+0x1c0>
    2044:	e0bfee17 	ldw	r2,-72(fp)
    2048:	10800158 	cmpnei	r2,r2,5
    204c:	10001b1e 	bne	r2,zero,20bc <HEXxy_PS2+0x22c>
			Temp_Sign = Temp_Buffer & 0x00000010;
    2050:	e0bff217 	ldw	r2,-56(fp)
    2054:	1080040c 	andi	r2,r2,16
    2058:	d0a85115 	stw	r2,-24252(gp)
			if(Xsign){
    205c:	d0a85017 	ldw	r2,-24256(gp)
    2060:	1005003a 	cmpeq	r2,r2,zero
    2064:	10000a1e 	bne	r2,zero,2090 <HEXxy_PS2+0x200>
				nibble_TempX = 15 - nibble;
    2068:	00c003c4 	movi	r3,15
    206c:	e0bff117 	ldw	r2,-60(fp)
    2070:	1885c83a 	sub	r2,r3,r2
    2074:	d0a84e15 	stw	r2,-24264(gp)
				code = seven_seg_decode_table[nibble_TempX];
    2078:	d0e84e17 	ldw	r3,-24264(gp)
    207c:	e0bff604 	addi	r2,fp,-40
    2080:	10c5883a 	add	r2,r2,r3
    2084:	10800003 	ldbu	r2,0(r2)
    2088:	e0bff005 	stb	r2,-64(fp)
    208c:	00000506 	br	20a4 <HEXxy_PS2+0x214>
			}
			else{
				code = seven_seg_decode_table[nibble];
    2090:	e0fff117 	ldw	r3,-60(fp)
    2094:	e0bff604 	addi	r2,fp,-40
    2098:	10c5883a 	add	r2,r2,r3
    209c:	10800003 	ldbu	r2,0(r2)
    20a0:	e0bff005 	stb	r2,-64(fp)
			}
			hex_segs[i] = code;
    20a4:	e0ffee17 	ldw	r3,-72(fp)
    20a8:	e0bffa04 	addi	r2,fp,-24
    20ac:	10c7883a 	add	r3,r2,r3
    20b0:	e0bff003 	ldbu	r2,-64(fp)
    20b4:	18800005 	stb	r2,0(r3)
			hex_segs[6] = seven_seg_decode_table[Xsign];
			hex_segs[2] = seven_seg_decode_table[Ysign];
			hex_segs[7] = seven_seg_decode_table[XoverFlow];
			hex_segs[3] = seven_seg_decode_table[YoverFlow];
		}
		else if(i==4 || i==5){
    20b8:	00002106 	br	2140 <HEXxy_PS2+0x2b0>
			else{
				code = seven_seg_decode_table[nibble];
			}
			hex_segs[i] = code;
		}
		else if(i==2 || i==3){
    20bc:	e0bfee17 	ldw	r2,-72(fp)
    20c0:	108000a0 	cmpeqi	r2,r2,2
    20c4:	1000031e 	bne	r2,zero,20d4 <HEXxy_PS2+0x244>
    20c8:	e0bfee17 	ldw	r2,-72(fp)
    20cc:	108000d8 	cmpnei	r2,r2,3
    20d0:	10001b1e 	bne	r2,zero,2140 <HEXxy_PS2+0x2b0>
			Temp_Sign = Temp_Buffer & 0x00000002;
    20d4:	e0bff217 	ldw	r2,-56(fp)
    20d8:	1080008c 	andi	r2,r2,2
    20dc:	d0a85115 	stw	r2,-24252(gp)
			if(Ysign){
    20e0:	d0a85417 	ldw	r2,-24240(gp)
    20e4:	1005003a 	cmpeq	r2,r2,zero
    20e8:	10000a1e 	bne	r2,zero,2114 <HEXxy_PS2+0x284>
				nibble_TempY = 15 - nibble;
    20ec:	00c003c4 	movi	r3,15
    20f0:	e0bff117 	ldw	r2,-60(fp)
    20f4:	1885c83a 	sub	r2,r3,r2
    20f8:	d0a84d15 	stw	r2,-24268(gp)
				code = seven_seg_decode_table[nibble_TempY];
    20fc:	d0e84d17 	ldw	r3,-24268(gp)
    2100:	e0bff604 	addi	r2,fp,-40
    2104:	10c5883a 	add	r2,r2,r3
    2108:	10800003 	ldbu	r2,0(r2)
    210c:	e0bff005 	stb	r2,-64(fp)
    2110:	00000506 	br	2128 <HEXxy_PS2+0x298>
			}
			else{
				code = seven_seg_decode_table[nibble];
    2114:	e0fff117 	ldw	r3,-60(fp)
    2118:	e0bff604 	addi	r2,fp,-40
    211c:	10c5883a 	add	r2,r2,r3
    2120:	10800003 	ldbu	r2,0(r2)
    2124:	e0bff005 	stb	r2,-64(fp)
			}
			hex_segs[i-2] = code;
    2128:	e0bfee17 	ldw	r2,-72(fp)
    212c:	10ffff84 	addi	r3,r2,-2
    2130:	e0bffa04 	addi	r2,fp,-24
    2134:	10c7883a 	add	r3,r2,r3
    2138:	e0bff003 	ldbu	r2,-64(fp)
    213c:	18800005 	stb	r2,0(r3)
		}
		shift_buffer = shift_buffer >> 4;
    2140:	e0bff317 	ldw	r2,-52(fp)
    2144:	1004d13a 	srli	r2,r2,4
    2148:	e0bff315 	stw	r2,-52(fp)

	shift_buffer = (b1 << 16) | (b2 << 8) | b3;
	Temp_Buffer = shift_buffer;


	for ( i = 0; i < 6; i++ )
    214c:	e0bfee17 	ldw	r2,-72(fp)
    2150:	10800044 	addi	r2,r2,1
    2154:	e0bfee15 	stw	r2,-72(fp)
    2158:	e0bfee17 	ldw	r2,-72(fp)
    215c:	10800190 	cmplti	r2,r2,6
    2160:	103f731e 	bne	r2,zero,1f30 <HEXxy_PS2+0xa0>
			hex_segs[i-2] = code;
		}
		shift_buffer = shift_buffer >> 4;
	}
	/* drive the hex displays */
	*(HEX3_HEX0_ptr) = *(int *) (hex_segs);
    2164:	e0bffa04 	addi	r2,fp,-24
    2168:	10c00017 	ldw	r3,0(r2)
    216c:	e0bff517 	ldw	r2,-44(fp)
    2170:	10c00015 	stw	r3,0(r2)
	*(HEX7_HEX4_ptr) = *(int *) (hex_segs+4);
    2174:	e0bffa04 	addi	r2,fp,-24
    2178:	10800104 	addi	r2,r2,4
    217c:	10c00017 	ldw	r3,0(r2)
    2180:	e0bff417 	ldw	r2,-48(fp)
    2184:	10c00015 	stw	r3,0(r2)
}
    2188:	e037883a 	mov	sp,fp
    218c:	dfc00117 	ldw	ra,4(sp)
    2190:	df000017 	ldw	fp,0(sp)
    2194:	dec00204 	addi	sp,sp,8
    2198:	f800283a 	ret

0000219c <Do_Soft_Echo>:
//
//}


/****************************************************************************************/
void Do_Soft_Echo(){
    219c:	defff504 	addi	sp,sp,-44
    21a0:	dfc00a15 	stw	ra,40(sp)
    21a4:	df000915 	stw	fp,36(sp)
    21a8:	df000904 	addi	fp,sp,36
	int j;
	int i;
	for(i=0;i<BUF_SIZE;i++){
    21ac:	e03ffe15 	stw	zero,-8(fp)
    21b0:	00005206 	br	22fc <Do_Soft_Echo+0x160>
		alt_64 temp = 0;
    21b4:	e03ffc15 	stw	zero,-16(fp)
    21b8:	e03ffd15 	stw	zero,-12(fp)
		for(j = 0; j<64; j++)
    21bc:	e03fff15 	stw	zero,-4(fp)
    21c0:	00002d06 	br	2278 <Do_Soft_Echo+0xdc>
		{
			alt_64 eff = (alt_64)(coeff[j]);
    21c4:	e0bfff17 	ldw	r2,-4(fp)
    21c8:	00c00074 	movhi	r3,1
    21cc:	18d00904 	addi	r3,r3,16420
    21d0:	1085883a 	add	r2,r2,r2
    21d4:	10c5883a 	add	r2,r2,r3
    21d8:	1080000b 	ldhu	r2,0(r2)
    21dc:	10bfffcc 	andi	r2,r2,65535
    21e0:	10a0001c 	xori	r2,r2,32768
    21e4:	10a00004 	addi	r2,r2,-32768
    21e8:	e0bff915 	stw	r2,-28(fp)
    21ec:	1005d7fa 	srai	r2,r2,31
    21f0:	e0bffa15 	stw	r2,-24(fp)
			alt_64 data = ((alt_64)((alt_32)l_buf[i-j]));
    21f4:	e0fffe17 	ldw	r3,-8(fp)
    21f8:	e0bfff17 	ldw	r2,-4(fp)
    21fc:	1885c83a 	sub	r2,r3,r2
    2200:	00c01774 	movhi	r3,93
    2204:	18c3f304 	addi	r3,r3,4044
    2208:	1085883a 	add	r2,r2,r2
    220c:	1085883a 	add	r2,r2,r2
    2210:	10c5883a 	add	r2,r2,r3
    2214:	10800017 	ldw	r2,0(r2)
    2218:	e0bff715 	stw	r2,-36(fp)
    221c:	1005d7fa 	srai	r2,r2,31
    2220:	e0bff815 	stw	r2,-32(fp)
			temp = (temp + (data * eff));
    2224:	e13ff717 	ldw	r4,-36(fp)
    2228:	e17ff817 	ldw	r5,-32(fp)
    222c:	e1bff917 	ldw	r6,-28(fp)
    2230:	e1fffa17 	ldw	r7,-24(fp)
    2234:	0002b080 	call	2b08 <__muldi3>
    2238:	1009883a 	mov	r4,r2
    223c:	180b883a 	mov	r5,r3
    2240:	200d883a 	mov	r6,r4
    2244:	280f883a 	mov	r7,r5
    2248:	e13ffc17 	ldw	r4,-16(fp)
    224c:	e17ffd17 	ldw	r5,-12(fp)
    2250:	2185883a 	add	r2,r4,r6
    2254:	1111803a 	cmpltu	r8,r2,r4
    2258:	29c7883a 	add	r3,r5,r7
    225c:	40c9883a 	add	r4,r8,r3
    2260:	2007883a 	mov	r3,r4
    2264:	e0bffc15 	stw	r2,-16(fp)
    2268:	e0fffd15 	stw	r3,-12(fp)
void Do_Soft_Echo(){
	int j;
	int i;
	for(i=0;i<BUF_SIZE;i++){
		alt_64 temp = 0;
		for(j = 0; j<64; j++)
    226c:	e0bfff17 	ldw	r2,-4(fp)
    2270:	10800044 	addi	r2,r2,1
    2274:	e0bfff15 	stw	r2,-4(fp)
    2278:	e0bfff17 	ldw	r2,-4(fp)
    227c:	10801010 	cmplti	r2,r2,64
    2280:	103fd01e 	bne	r2,zero,21c4 <Do_Soft_Echo+0x28>
		{
			alt_64 eff = (alt_64)(coeff[j]);
			alt_64 data = ((alt_64)((alt_32)l_buf[i-j]));
			temp = (temp + (data * eff));
		}
		temp = (temp >> 15);
    2284:	e0bffd17 	ldw	r2,-12(fp)
    2288:	100a947a 	slli	r5,r2,17
    228c:	e13ffc17 	ldw	r4,-16(fp)
    2290:	e1bffd17 	ldw	r6,-12(fp)
    2294:	2004d3fa 	srli	r2,r4,15
    2298:	1144b03a 	or	r2,r2,r5
    229c:	3007d3fa 	srai	r3,r6,15
    22a0:	e0bffc15 	stw	r2,-16(fp)
    22a4:	e0fffd15 	stw	r3,-12(fp)
		alt_u32 dataout = (alt_u32)((alt_32)temp);
    22a8:	e0bffc17 	ldw	r2,-16(fp)
    22ac:	e0bffb15 	stw	r2,-20(fp)
		Echo_buf_l[i] = dataout;
    22b0:	e0bffe17 	ldw	r2,-8(fp)
    22b4:	00c000b4 	movhi	r3,2
    22b8:	18e09304 	addi	r3,r3,-32180
    22bc:	1085883a 	add	r2,r2,r2
    22c0:	1085883a 	add	r2,r2,r2
    22c4:	10c7883a 	add	r3,r2,r3
    22c8:	e0bffb17 	ldw	r2,-20(fp)
    22cc:	18800015 	stw	r2,0(r3)
		Echo_buf_r[i] = dataout;
    22d0:	e0bffe17 	ldw	r2,-8(fp)
    22d4:	00c00ff4 	movhi	r3,63
    22d8:	18e2d304 	addi	r3,r3,-29876
    22dc:	1085883a 	add	r2,r2,r2
    22e0:	1085883a 	add	r2,r2,r2
    22e4:	10c7883a 	add	r3,r2,r3
    22e8:	e0bffb17 	ldw	r2,-20(fp)
    22ec:	18800015 	stw	r2,0(r3)

/****************************************************************************************/
void Do_Soft_Echo(){
	int j;
	int i;
	for(i=0;i<BUF_SIZE;i++){
    22f0:	e0bffe17 	ldw	r2,-8(fp)
    22f4:	10800044 	addi	r2,r2,1
    22f8:	e0bffe15 	stw	r2,-8(fp)
    22fc:	e0fffe17 	ldw	r3,-8(fp)
    2300:	00800234 	movhi	r2,8
    2304:	10a847c4 	addi	r2,r2,-24289
    2308:	10ffaa0e 	bge	r2,r3,21b4 <Do_Soft_Echo+0x18>
//			temp = ((alt_64)temp + (((alt_64)((alt_32)r_buf[i])) * ((alt_64)coeff)));
//		}
//		Echo_buf_r[i] = temp;
//	}

	IOWR_ALT_UP_PARALLEL_PORT_DATA(GREEN_LEDS_BASE,0x0);
    230c:	00840034 	movhi	r2,4096
    2310:	10800404 	addi	r2,r2,16
    2314:	10000035 	stwio	zero,0(r2)
	Echo = 0;
    2318:	d0284615 	stw	zero,-24296(gp)
	Echo_complete = 1;
    231c:	00c000b4 	movhi	r3,2
    2320:	18e05904 	addi	r3,r3,-32412
    2324:	00800044 	movi	r2,1
    2328:	18800015 	stw	r2,0(r3)
}
    232c:	e037883a 	mov	sp,fp
    2330:	dfc00117 	ldw	ra,4(sp)
    2334:	df000017 	ldw	fp,0(sp)
    2338:	dec00204 	addi	sp,sp,8
    233c:	f800283a 	ret

00002340 <Plot_AudioRecord>:

/****************************************************************************************/
void Plot_AudioRecord(alt_up_pixel_buffer_dma_dev *pixel_buffer){
    2340:	defff204 	addi	sp,sp,-56
    2344:	dfc00d15 	stw	ra,52(sp)
    2348:	df000c15 	stw	fp,48(sp)
    234c:	df000c04 	addi	fp,sp,48
    2350:	e13fff15 	stw	r4,-4(fp)

	// Draw Audio Display
	// character coords * 4 since characters are 4 x 4 pixel buffer coords (8 x 8 VGA coords)
	alt_up_pixel_buffer_dma_draw_box (pixel_buffer, 0 , 20 * 4, 100 * 4,
    2354:	00803c04 	movi	r2,240
    2358:	d8800015 	stw	r2,0(sp)
    235c:	0080ca04 	movi	r2,808
    2360:	d8800115 	stw	r2,4(sp)
    2364:	d8000215 	stw	zero,8(sp)
    2368:	e13fff17 	ldw	r4,-4(fp)
    236c:	000b883a 	mov	r5,zero
    2370:	01801404 	movi	r6,80
    2374:	01c06404 	movi	r7,400
    2378:	00111ac0 	call	111ac <alt_up_pixel_buffer_dma_draw_box>
		60 * 4, 0x0328, 0);

	//Audio Line
	alt_up_pixel_buffer_dma_draw_hline(pixel_buffer,10 * 4, 70 * 4, 21 * 4, 0xABCD, 0);
    237c:	00aaf354 	movui	r2,43981
    2380:	d8800015 	stw	r2,0(sp)
    2384:	d8000115 	stw	zero,4(sp)
    2388:	e13fff17 	ldw	r4,-4(fp)
    238c:	01400a04 	movi	r5,40
    2390:	01804604 	movi	r6,280
    2394:	01c01504 	movi	r7,84
    2398:	00116a00 	call	116a0 <alt_up_pixel_buffer_dma_draw_hline>
	alt_up_pixel_buffer_dma_draw_hline(pixel_buffer,10 * 4, 70 * 4, 23 * 4, 0xABCD, 0);
    239c:	00aaf354 	movui	r2,43981
    23a0:	d8800015 	stw	r2,0(sp)
    23a4:	d8000115 	stw	zero,4(sp)
    23a8:	e13fff17 	ldw	r4,-4(fp)
    23ac:	01400a04 	movi	r5,40
    23b0:	01804604 	movi	r6,280
    23b4:	01c01704 	movi	r7,92
    23b8:	00116a00 	call	116a0 <alt_up_pixel_buffer_dma_draw_hline>
	//Audio OverFlow
	alt_up_pixel_buffer_dma_draw_hline(pixel_buffer,10, 300, 105, 0xABCD, 0);
    23bc:	00aaf354 	movui	r2,43981
    23c0:	d8800015 	stw	r2,0(sp)
    23c4:	d8000115 	stw	zero,4(sp)
    23c8:	e13fff17 	ldw	r4,-4(fp)
    23cc:	01400284 	movi	r5,10
    23d0:	01804b04 	movi	r6,300
    23d4:	01c01a44 	movi	r7,105
    23d8:	00116a00 	call	116a0 <alt_up_pixel_buffer_dma_draw_hline>

	int i=0;
    23dc:	e03ffe15 	stw	zero,-8(fp)
	short color = 0x8053;
    23e0:	00a014c4 	movi	r2,-32685
    23e4:	e0bffd0d 	sth	r2,-12(fp)
	int x1 = 10;
    23e8:	00800284 	movi	r2,10
    23ec:	e0bffc15 	stw	r2,-16(fp)
	int x2 = 310;
    23f0:	00804d84 	movi	r2,310
    23f4:	e0bffb15 	stw	r2,-20(fp)
	int gap = 3;
    23f8:	008000c4 	movi	r2,3
    23fc:	e0bffa15 	stw	r2,-24(fp)
	int Range = ((x2 - x1)/N)-3;
    2400:	e0fffb17 	ldw	r3,-20(fp)
    2404:	e0bffc17 	ldw	r2,-16(fp)
    2408:	1887c83a 	sub	r3,r3,r2
    240c:	00800784 	movi	r2,30
    2410:	1885283a 	div	r2,r3,r2
    2414:	10bfff44 	addi	r2,r2,-3
    2418:	e0bff915 	stw	r2,-28(fp)

	int x_Start=0,x_End=10;
    241c:	e03ff815 	stw	zero,-32(fp)
    2420:	00800284 	movi	r2,10
    2424:	e0bff715 	stw	r2,-36(fp)

	for(i=0;i<N;i++){
    2428:	e03ffe15 	stw	zero,-8(fp)
    242c:	00001f06 	br	24ac <Plot_AudioRecord+0x16c>
		x_Start = x_End + gap;
    2430:	e0fff717 	ldw	r3,-36(fp)
    2434:	e0bffa17 	ldw	r2,-24(fp)
    2438:	1885883a 	add	r2,r3,r2
    243c:	e0bff815 	stw	r2,-32(fp)
		x_End = x_Start + Range;
    2440:	e0fff817 	ldw	r3,-32(fp)
    2444:	e0bff917 	ldw	r2,-28(fp)
    2448:	1885883a 	add	r2,r3,r2
    244c:	e0bff715 	stw	r2,-36(fp)
		//Draw Audio Range
		alt_up_pixel_buffer_dma_draw_box (pixel_buffer, x_Start, 200-Average[i], x_End,
    2450:	e0bffe17 	ldw	r2,-8(fp)
    2454:	00c01f34 	movhi	r3,124
    2458:	18e56d04 	addi	r3,r3,-27212
    245c:	100490fa 	slli	r2,r2,3
    2460:	10c9883a 	add	r4,r2,r3
    2464:	20800017 	ldw	r2,0(r4)
    2468:	20c00117 	ldw	r3,4(r4)
    246c:	1007883a 	mov	r3,r2
    2470:	00803204 	movi	r2,200
    2474:	10c5c83a 	sub	r2,r2,r3
    2478:	100d883a 	mov	r6,r2
    247c:	e0fffd0f 	ldh	r3,-12(fp)
    2480:	00803204 	movi	r2,200
    2484:	d8800015 	stw	r2,0(sp)
    2488:	d8c00115 	stw	r3,4(sp)
    248c:	d8000215 	stw	zero,8(sp)
    2490:	e13fff17 	ldw	r4,-4(fp)
    2494:	e17ff817 	ldw	r5,-32(fp)
    2498:	e1fff717 	ldw	r7,-36(fp)
    249c:	00111ac0 	call	111ac <alt_up_pixel_buffer_dma_draw_box>
	int gap = 3;
	int Range = ((x2 - x1)/N)-3;

	int x_Start=0,x_End=10;

	for(i=0;i<N;i++){
    24a0:	e0bffe17 	ldw	r2,-8(fp)
    24a4:	10800044 	addi	r2,r2,1
    24a8:	e0bffe15 	stw	r2,-8(fp)
    24ac:	e0bffe17 	ldw	r2,-8(fp)
    24b0:	10800790 	cmplti	r2,r2,30
    24b4:	103fde1e 	bne	r2,zero,2430 <Plot_AudioRecord+0xf0>
		x_End = x_Start + Range;
		//Draw Audio Range
		alt_up_pixel_buffer_dma_draw_box (pixel_buffer, x_Start, 200-Average[i], x_End,
			200, color, 0);
	}
}
    24b8:	e037883a 	mov	sp,fp
    24bc:	dfc00117 	ldw	ra,4(sp)
    24c0:	df000017 	ldw	fp,0(sp)
    24c4:	dec00204 	addi	sp,sp,8
    24c8:	f800283a 	ret

000024cc <Audio_Average>:
/****************************************************************************************/
void Audio_Average(){
    24cc:	defff404 	addi	sp,sp,-48
    24d0:	dfc00b15 	stw	ra,44(sp)
    24d4:	df000a15 	stw	fp,40(sp)
    24d8:	dc000915 	stw	r16,36(sp)
    24dc:	df000904 	addi	fp,sp,36
	int i=0;
    24e0:	e03ffb15 	stw	zero,-20(fp)
	int j=0;
    24e4:	e03ffa15 	stw	zero,-24(fp)
	long long int Sum=0;
    24e8:	e03ff815 	stw	zero,-32(fp)
    24ec:	e03ff915 	stw	zero,-28(fp)

	int Duration = BUF_SIZE / N;
    24f0:	00904684 	movi	r2,16666
    24f4:	e0bff715 	stw	r2,-36(fp)
	for(j=0;j<N;j++){
    24f8:	e03ffa15 	stw	zero,-24(fp)
    24fc:	00009806 	br	2760 <Audio_Average+0x294>
		Average[j] = 0;
    2500:	e0bffa17 	ldw	r2,-24(fp)
    2504:	00c01f34 	movhi	r3,124
    2508:	18e56d04 	addi	r3,r3,-27212
    250c:	100490fa 	slli	r2,r2,3
    2510:	10c5883a 	add	r2,r2,r3
    2514:	10000015 	stw	zero,0(r2)
    2518:	10000115 	stw	zero,4(r2)
		Sum =0;
    251c:	e03ff815 	stw	zero,-32(fp)
    2520:	e03ff915 	stw	zero,-28(fp)
		for(i=0;i<Duration;i++){
    2524:	e03ffb15 	stw	zero,-20(fp)
    2528:	00004506 	br	2640 <Audio_Average+0x174>
			Sum = ((alt_u64)abs(((alt_u32)l_buf[i + j * Duration]))) + Sum;
    252c:	e0fffa17 	ldw	r3,-24(fp)
    2530:	e0bff717 	ldw	r2,-36(fp)
    2534:	1887383a 	mul	r3,r3,r2
    2538:	e0bffb17 	ldw	r2,-20(fp)
    253c:	1885883a 	add	r2,r3,r2
    2540:	00c01774 	movhi	r3,93
    2544:	18c3f304 	addi	r3,r3,4044
    2548:	1085883a 	add	r2,r2,r2
    254c:	1085883a 	add	r2,r2,r2
    2550:	10c5883a 	add	r2,r2,r3
    2554:	10800017 	ldw	r2,0(r2)
    2558:	e0bfff15 	stw	r2,-4(fp)
    255c:	e0ffff17 	ldw	r3,-4(fp)
    2560:	1804403a 	cmpge	r2,r3,zero
    2564:	1000031e 	bne	r2,zero,2574 <Audio_Average+0xa8>
    2568:	e13fff17 	ldw	r4,-4(fp)
    256c:	0109c83a 	sub	r4,zero,r4
    2570:	e13fff15 	stw	r4,-4(fp)
    2574:	e0ffff17 	ldw	r3,-4(fp)
    2578:	1805d7fa 	srai	r2,r3,31
    257c:	e13fff17 	ldw	r4,-4(fp)
    2580:	100b883a 	mov	r5,r2
    2584:	e1bff817 	ldw	r6,-32(fp)
    2588:	e1fff917 	ldw	r7,-28(fp)
    258c:	2185883a 	add	r2,r4,r6
    2590:	1111803a 	cmpltu	r8,r2,r4
    2594:	29c7883a 	add	r3,r5,r7
    2598:	40c9883a 	add	r4,r8,r3
    259c:	2007883a 	mov	r3,r4
    25a0:	1009883a 	mov	r4,r2
    25a4:	180b883a 	mov	r5,r3
    25a8:	e13ff815 	stw	r4,-32(fp)
    25ac:	e17ff915 	stw	r5,-28(fp)
			Sum = ((alt_u64)abs(((alt_u32)r_buf[i + j * Duration]))) + Sum;
    25b0:	e0fffa17 	ldw	r3,-24(fp)
    25b4:	e0bff717 	ldw	r2,-36(fp)
    25b8:	1887383a 	mul	r3,r3,r2
    25bc:	e0bffb17 	ldw	r2,-20(fp)
    25c0:	1885883a 	add	r2,r3,r2
    25c4:	00c00834 	movhi	r3,32
    25c8:	18c1b304 	addi	r3,r3,1740
    25cc:	1085883a 	add	r2,r2,r2
    25d0:	1085883a 	add	r2,r2,r2
    25d4:	10c5883a 	add	r2,r2,r3
    25d8:	10800017 	ldw	r2,0(r2)
    25dc:	e0bffe15 	stw	r2,-8(fp)
    25e0:	e13ffe17 	ldw	r4,-8(fp)
    25e4:	2004403a 	cmpge	r2,r4,zero
    25e8:	1000031e 	bne	r2,zero,25f8 <Audio_Average+0x12c>
    25ec:	e0bffe17 	ldw	r2,-8(fp)
    25f0:	0085c83a 	sub	r2,zero,r2
    25f4:	e0bffe15 	stw	r2,-8(fp)
    25f8:	e0fffe17 	ldw	r3,-8(fp)
    25fc:	1805d7fa 	srai	r2,r3,31
    2600:	e13ffe17 	ldw	r4,-8(fp)
    2604:	100b883a 	mov	r5,r2
    2608:	e1bff817 	ldw	r6,-32(fp)
    260c:	e1fff917 	ldw	r7,-28(fp)
    2610:	2185883a 	add	r2,r4,r6
    2614:	1111803a 	cmpltu	r8,r2,r4
    2618:	29c7883a 	add	r3,r5,r7
    261c:	40c9883a 	add	r4,r8,r3
    2620:	2007883a 	mov	r3,r4
    2624:	1009883a 	mov	r4,r2
    2628:	180b883a 	mov	r5,r3
    262c:	e13ff815 	stw	r4,-32(fp)
    2630:	e17ff915 	stw	r5,-28(fp)

	int Duration = BUF_SIZE / N;
	for(j=0;j<N;j++){
		Average[j] = 0;
		Sum =0;
		for(i=0;i<Duration;i++){
    2634:	e0bffb17 	ldw	r2,-20(fp)
    2638:	10800044 	addi	r2,r2,1
    263c:	e0bffb15 	stw	r2,-20(fp)
    2640:	e0fffb17 	ldw	r3,-20(fp)
    2644:	e0bff717 	ldw	r2,-36(fp)
    2648:	18bfb816 	blt	r3,r2,252c <Audio_Average+0x60>
			Sum = ((alt_u64)abs(((alt_u32)l_buf[i + j * Duration]))) + Sum;
			Sum = ((alt_u64)abs(((alt_u32)r_buf[i + j * Duration]))) + Sum;
		}

		Average[j] = (((Sum * 400) / (Duration) ) >> 32);
    264c:	e43ffa17 	ldw	r16,-24(fp)
    2650:	e13ff817 	ldw	r4,-32(fp)
    2654:	e17ff917 	ldw	r5,-28(fp)
    2658:	01806404 	movi	r6,400
    265c:	000f883a 	mov	r7,zero
    2660:	0002b080 	call	2b08 <__muldi3>
    2664:	1009883a 	mov	r4,r2
    2668:	180b883a 	mov	r5,r3
    266c:	200d883a 	mov	r6,r4
    2670:	280f883a 	mov	r7,r5
    2674:	e0bff717 	ldw	r2,-36(fp)
    2678:	1009d7fa 	srai	r4,r2,31
    267c:	e0bff717 	ldw	r2,-36(fp)
    2680:	2007883a 	mov	r3,r4
    2684:	3009883a 	mov	r4,r6
    2688:	380b883a 	mov	r5,r7
    268c:	100d883a 	mov	r6,r2
    2690:	180f883a 	mov	r7,r3
    2694:	0002ba00 	call	2ba0 <__divdi3>
    2698:	1009883a 	mov	r4,r2
    269c:	180b883a 	mov	r5,r3
    26a0:	2005883a 	mov	r2,r4
    26a4:	2807883a 	mov	r3,r5
    26a8:	1809d83a 	sra	r4,r3,zero
    26ac:	180bd7fa 	srai	r5,r3,31
    26b0:	00c01f34 	movhi	r3,124
    26b4:	18e56d04 	addi	r3,r3,-27212
    26b8:	800490fa 	slli	r2,r16,3
    26bc:	10c5883a 	add	r2,r2,r3
    26c0:	11000015 	stw	r4,0(r2)
    26c4:	11400115 	stw	r5,4(r2)
        if((200-Average[j]) < 110 ){
    26c8:	e0bffa17 	ldw	r2,-24(fp)
    26cc:	00c01f34 	movhi	r3,124
    26d0:	18e56d04 	addi	r3,r3,-27212
    26d4:	100490fa 	slli	r2,r2,3
    26d8:	10c5883a 	add	r2,r2,r3
    26dc:	11800017 	ldw	r6,0(r2)
    26e0:	11c00117 	ldw	r7,4(r2)
    26e4:	01003204 	movi	r4,200
    26e8:	000b883a 	mov	r5,zero
    26ec:	2185c83a 	sub	r2,r4,r6
    26f0:	2091803a 	cmpltu	r8,r4,r2
    26f4:	29c7c83a 	sub	r3,r5,r7
    26f8:	1a09c83a 	sub	r4,r3,r8
    26fc:	2007883a 	mov	r3,r4
    2700:	1009883a 	mov	r4,r2
    2704:	e13ffc15 	stw	r4,-16(fp)
    2708:	1805883a 	mov	r2,r3
    270c:	e0bffd15 	stw	r2,-12(fp)
    2710:	e0fffd17 	ldw	r3,-12(fp)
    2714:	18800048 	cmpgei	r2,r3,1
    2718:	10000e1e 	bne	r2,zero,2754 <Audio_Average+0x288>
    271c:	e13ffd17 	ldw	r4,-12(fp)
    2720:	2004c03a 	cmpne	r2,r4,zero
    2724:	1000031e 	bne	r2,zero,2734 <Audio_Average+0x268>
    2728:	e0fffc17 	ldw	r3,-16(fp)
    272c:	18801ba8 	cmpgeui	r2,r3,110
    2730:	1000081e 	bne	r2,zero,2754 <Audio_Average+0x288>
        	Average[j] = 95;
    2734:	e0bffa17 	ldw	r2,-24(fp)
    2738:	00c01f34 	movhi	r3,124
    273c:	18e56d04 	addi	r3,r3,-27212
    2740:	100490fa 	slli	r2,r2,3
    2744:	10c7883a 	add	r3,r2,r3
    2748:	008017c4 	movi	r2,95
    274c:	18800015 	stw	r2,0(r3)
    2750:	18000115 	stw	zero,4(r3)
	int i=0;
	int j=0;
	long long int Sum=0;

	int Duration = BUF_SIZE / N;
	for(j=0;j<N;j++){
    2754:	e0bffa17 	ldw	r2,-24(fp)
    2758:	10800044 	addi	r2,r2,1
    275c:	e0bffa15 	stw	r2,-24(fp)
    2760:	e0bffa17 	ldw	r2,-24(fp)
    2764:	10800790 	cmplti	r2,r2,30
    2768:	103f651e 	bne	r2,zero,2500 <Audio_Average+0x34>
		Average[j] = (((Sum * 400) / (Duration) ) >> 32);
        if((200-Average[j]) < 110 ){
        	Average[j] = 95;
        }
	}
}
    276c:	e037883a 	mov	sp,fp
    2770:	dfc00217 	ldw	ra,8(sp)
    2774:	df000117 	ldw	fp,4(sp)
    2778:	dc000017 	ldw	r16,0(sp)
    277c:	dec00304 	addi	sp,sp,12
    2780:	f800283a 	ret

00002784 <Plot_Play_Audio>:
/****************************************************************************************/
void Plot_Play_Audio(alt_up_pixel_buffer_dma_dev *pixel_buffer){
    2784:	defff304 	addi	sp,sp,-52
    2788:	dfc00c15 	stw	ra,48(sp)
    278c:	df000b15 	stw	fp,44(sp)
    2790:	df000b04 	addi	fp,sp,44
    2794:	e13fff15 	stw	r4,-4(fp)
	int x_Start=0,x_End=10;
    2798:	e03ffe15 	stw	zero,-8(fp)
    279c:	00800284 	movi	r2,10
    27a0:	e0bffd15 	stw	r2,-12(fp)
	int gap = 3;
    27a4:	008000c4 	movi	r2,3
    27a8:	e0bffc15 	stw	r2,-16(fp)
	int x1 = 10;
    27ac:	00800284 	movi	r2,10
    27b0:	e0bffb15 	stw	r2,-20(fp)
	int x2 = 310;
    27b4:	00804d84 	movi	r2,310
    27b8:	e0bffa15 	stw	r2,-24(fp)
	int Range = ((x2 - x1)/N)-3;
    27bc:	e0fffa17 	ldw	r3,-24(fp)
    27c0:	e0bffb17 	ldw	r2,-20(fp)
    27c4:	1887c83a 	sub	r3,r3,r2
    27c8:	00800784 	movi	r2,30
    27cc:	1885283a 	div	r2,r3,r2
    27d0:	10bfff44 	addi	r2,r2,-3
    27d4:	e0bff915 	stw	r2,-28(fp)
	short color = 0x1111;
    27d8:	00844444 	movi	r2,4369
    27dc:	e0bff80d 	sth	r2,-32(fp)


	if(Play_Flag == 1){
    27e0:	008000b4 	movhi	r2,2
    27e4:	10a05a04 	addi	r2,r2,-32408
    27e8:	10800017 	ldw	r2,0(r2)
    27ec:	10800058 	cmpnei	r2,r2,1
    27f0:	1000221e 	bne	r2,zero,287c <Plot_Play_Audio+0xf8>
		x_Start = Play_Index * Range + gap * Play_Index + 13;
    27f4:	e0fff917 	ldw	r3,-28(fp)
    27f8:	e0bffc17 	ldw	r2,-16(fp)
    27fc:	1887883a 	add	r3,r3,r2
    2800:	008000b4 	movhi	r2,2
    2804:	10a05604 	addi	r2,r2,-32424
    2808:	10800017 	ldw	r2,0(r2)
    280c:	1885383a 	mul	r2,r3,r2
    2810:	10800344 	addi	r2,r2,13
    2814:	e0bffe15 	stw	r2,-8(fp)
		x_End = x_Start + Range;
    2818:	e0fffe17 	ldw	r3,-8(fp)
    281c:	e0bff917 	ldw	r2,-28(fp)
    2820:	1885883a 	add	r2,r3,r2
    2824:	e0bffd15 	stw	r2,-12(fp)
		Play_Flag = 0;
    2828:	008000b4 	movhi	r2,2
    282c:	10a05a04 	addi	r2,r2,-32408
    2830:	10000015 	stw	zero,0(r2)
		Play_Index = Play_Index + 1;
    2834:	008000b4 	movhi	r2,2
    2838:	10a05604 	addi	r2,r2,-32424
    283c:	10800017 	ldw	r2,0(r2)
    2840:	10c00044 	addi	r3,r2,1
    2844:	008000b4 	movhi	r2,2
    2848:	10a05604 	addi	r2,r2,-32424
    284c:	10c00015 	stw	r3,0(r2)
		alt_up_pixel_buffer_dma_draw_box (pixel_buffer, x_Start, 205, x_End,
    2850:	e0bff917 	ldw	r2,-28(fp)
    2854:	10803344 	addi	r2,r2,205
    2858:	e0fff80f 	ldh	r3,-32(fp)
    285c:	d8800015 	stw	r2,0(sp)
    2860:	d8c00115 	stw	r3,4(sp)
    2864:	d8000215 	stw	zero,8(sp)
    2868:	e13fff17 	ldw	r4,-4(fp)
    286c:	e17ffe17 	ldw	r5,-8(fp)
    2870:	01803344 	movi	r6,205
    2874:	e1fffd17 	ldw	r7,-12(fp)
    2878:	00111ac0 	call	111ac <alt_up_pixel_buffer_dma_draw_box>
			205 + Range , color, 0);
	}
}
    287c:	e037883a 	mov	sp,fp
    2880:	dfc00117 	ldw	ra,4(sp)
    2884:	df000017 	ldw	fp,0(sp)
    2888:	dec00204 	addi	sp,sp,8
    288c:	f800283a 	ret

00002890 <Do_Hardware_Calculate>:
/****************************************************************************************/
void Do_Hardware_Calculate(){
    2890:	defffd04 	addi	sp,sp,-12
    2894:	dfc00215 	stw	ra,8(sp)
    2898:	df000115 	stw	fp,4(sp)
    289c:	df000104 	addi	fp,sp,4
	amplitude_operation(Size,Number,(int)r_buf,(int)l_buf,(int)Out_Ram);
    28a0:	01800834 	movhi	r6,32
    28a4:	3181b304 	addi	r6,r6,1740
    28a8:	01c01774 	movhi	r7,93
    28ac:	39c3f304 	addi	r7,r7,4044
    28b0:	00801f34 	movhi	r2,124
    28b4:	10a51304 	addi	r2,r2,-27572
    28b8:	d8800015 	stw	r2,0(sp)
    28bc:	01104684 	movi	r4,16666
    28c0:	01400784 	movi	r5,30
    28c4:	000033c0 	call	33c <amplitude_operation>
//	IOWR_32DIRECT()
}
    28c8:	e037883a 	mov	sp,fp
    28cc:	dfc00117 	ldw	ra,4(sp)
    28d0:	df000017 	ldw	fp,0(sp)
    28d4:	dec00204 	addi	sp,sp,8
    28d8:	f800283a 	ret

000028dc <Calculate_Avrage>:
/****************************************************************************************/
void Calculate_Avrage(){
    28dc:	defffa04 	addi	sp,sp,-24
    28e0:	df000515 	stw	fp,20(sp)
    28e4:	df000504 	addi	fp,sp,20
	int i;
	for(i=0;i<=Number;i++){
    28e8:	e03ffd15 	stw	zero,-12(fp)
    28ec:	00005106 	br	2a34 <Calculate_Avrage+0x158>
		Average[i] = 0;
    28f0:	e0bffd17 	ldw	r2,-12(fp)
    28f4:	00c01f34 	movhi	r3,124
    28f8:	18e56d04 	addi	r3,r3,-27212
    28fc:	100490fa 	slli	r2,r2,3
    2900:	10c5883a 	add	r2,r2,r3
    2904:	10000015 	stw	zero,0(r2)
    2908:	10000115 	stw	zero,4(r2)
		int Anita = Out_Ram[i];
    290c:	e0bffd17 	ldw	r2,-12(fp)
    2910:	00c01f34 	movhi	r3,124
    2914:	18e51304 	addi	r3,r3,-27572
    2918:	1085883a 	add	r2,r2,r2
    291c:	1085883a 	add	r2,r2,r2
    2920:	10c5883a 	add	r2,r2,r3
    2924:	10800017 	ldw	r2,0(r2)
    2928:	e0bffc15 	stw	r2,-16(fp)
		Average[i] = Out_Ram[i]/Size;
    292c:	e1bffd17 	ldw	r6,-12(fp)
    2930:	e0bffd17 	ldw	r2,-12(fp)
    2934:	00c01f34 	movhi	r3,124
    2938:	18e51304 	addi	r3,r3,-27572
    293c:	1085883a 	add	r2,r2,r2
    2940:	1085883a 	add	r2,r2,r2
    2944:	10c5883a 	add	r2,r2,r3
    2948:	10c00017 	ldw	r3,0(r2)
    294c:	00803974 	movhi	r2,229
    2950:	10b87004 	addi	r2,r2,-7744
    2954:	1889283a 	div	r4,r3,r2
    2958:	200bd7fa 	srai	r5,r4,31
    295c:	2005883a 	mov	r2,r4
    2960:	2807883a 	mov	r3,r5
    2964:	01401f34 	movhi	r5,124
    2968:	29656d04 	addi	r5,r5,-27212
    296c:	300890fa 	slli	r4,r6,3
    2970:	2149883a 	add	r4,r4,r5
    2974:	20800015 	stw	r2,0(r4)
    2978:	20c00115 	stw	r3,4(r4)
		int Anita2 = Average[i];
    297c:	e0bffd17 	ldw	r2,-12(fp)
    2980:	00c01f34 	movhi	r3,124
    2984:	18e56d04 	addi	r3,r3,-27212
    2988:	100490fa 	slli	r2,r2,3
    298c:	10c9883a 	add	r4,r2,r3
    2990:	20800017 	ldw	r2,0(r4)
    2994:	20c00117 	ldw	r3,4(r4)
    2998:	e0bffb15 	stw	r2,-20(fp)
        if((200-Average[i]) < 110 ){
    299c:	e0bffd17 	ldw	r2,-12(fp)
    29a0:	00c01f34 	movhi	r3,124
    29a4:	18e56d04 	addi	r3,r3,-27212
    29a8:	100490fa 	slli	r2,r2,3
    29ac:	10c5883a 	add	r2,r2,r3
    29b0:	11800017 	ldw	r6,0(r2)
    29b4:	11c00117 	ldw	r7,4(r2)
    29b8:	01003204 	movi	r4,200
    29bc:	000b883a 	mov	r5,zero
    29c0:	2185c83a 	sub	r2,r4,r6
    29c4:	2091803a 	cmpltu	r8,r4,r2
    29c8:	29c7c83a 	sub	r3,r5,r7
    29cc:	1a09c83a 	sub	r4,r3,r8
    29d0:	2007883a 	mov	r3,r4
    29d4:	1009883a 	mov	r4,r2
    29d8:	e13ffe15 	stw	r4,-8(fp)
    29dc:	1805883a 	mov	r2,r3
    29e0:	e0bfff15 	stw	r2,-4(fp)
    29e4:	e0ffff17 	ldw	r3,-4(fp)
    29e8:	18800048 	cmpgei	r2,r3,1
    29ec:	10000e1e 	bne	r2,zero,2a28 <Calculate_Avrage+0x14c>
    29f0:	e13fff17 	ldw	r4,-4(fp)
    29f4:	2004c03a 	cmpne	r2,r4,zero
    29f8:	1000031e 	bne	r2,zero,2a08 <Calculate_Avrage+0x12c>
    29fc:	e0fffe17 	ldw	r3,-8(fp)
    2a00:	18801ba8 	cmpgeui	r2,r3,110
    2a04:	1000081e 	bne	r2,zero,2a28 <Calculate_Avrage+0x14c>
        	Average[i] = 95;
    2a08:	e0bffd17 	ldw	r2,-12(fp)
    2a0c:	00c01f34 	movhi	r3,124
    2a10:	18e56d04 	addi	r3,r3,-27212
    2a14:	100490fa 	slli	r2,r2,3
    2a18:	10c7883a 	add	r3,r2,r3
    2a1c:	008017c4 	movi	r2,95
    2a20:	18800015 	stw	r2,0(r3)
    2a24:	18000115 	stw	zero,4(r3)
//	IOWR_32DIRECT()
}
/****************************************************************************************/
void Calculate_Avrage(){
	int i;
	for(i=0;i<=Number;i++){
    2a28:	e0bffd17 	ldw	r2,-12(fp)
    2a2c:	10800044 	addi	r2,r2,1
    2a30:	e0bffd15 	stw	r2,-12(fp)
    2a34:	e0bffd17 	ldw	r2,-12(fp)
    2a38:	108007d0 	cmplti	r2,r2,31
    2a3c:	103fac1e 	bne	r2,zero,28f0 <Calculate_Avrage+0x14>
		int Anita2 = Average[i];
        if((200-Average[i]) < 110 ){
        	Average[i] = 95;
        }
	}
}
    2a40:	e037883a 	mov	sp,fp
    2a44:	df000017 	ldw	fp,0(sp)
    2a48:	dec00104 	addi	sp,sp,4
    2a4c:	f800283a 	ret

00002a50 <pushbutton_ISR>:
 *                                                                          
 * This ISR checks which KEY has been pressed. If KEY1, then it enables audio-in
 * interrupts (recording). If KEY2, it enables audio-out interrupts (playback).
****************************************************************************************/
void pushbutton_ISR(struct alt_up_dev *up_dev, unsigned int id)
{
    2a50:	defffa04 	addi	sp,sp,-24
    2a54:	dfc00515 	stw	ra,20(sp)
    2a58:	df000415 	stw	fp,16(sp)
    2a5c:	df000404 	addi	fp,sp,16
    2a60:	e13ffe15 	stw	r4,-8(fp)
    2a64:	e17fff15 	stw	r5,-4(fp)
	alt_up_audio_dev *audio_dev;

	audio_dev = up_dev->audio_dev;
    2a68:	e0bffe17 	ldw	r2,-8(fp)
    2a6c:	10800517 	ldw	r2,20(r2)
    2a70:	e0bffd15 	stw	r2,-12(fp)
	
	int KEY_value;

	/* read the pushbutton interrupt register */
	KEY_value = alt_up_parallel_port_read_edge_capture (up_dev->KEY_dev);
    2a74:	e0bffe17 	ldw	r2,-8(fp)
    2a78:	10800017 	ldw	r2,0(r2)
    2a7c:	10800a17 	ldw	r2,40(r2)
    2a80:	10800304 	addi	r2,r2,12
    2a84:	10800037 	ldwio	r2,0(r2)
    2a88:	e0bffc15 	stw	r2,-16(fp)
	alt_up_parallel_port_clear_edge_capture (up_dev->KEY_dev);	// Clear the interrupt
    2a8c:	e0bffe17 	ldw	r2,-8(fp)
    2a90:	10800017 	ldw	r2,0(r2)
    2a94:	10800a17 	ldw	r2,40(r2)
    2a98:	10800304 	addi	r2,r2,12
    2a9c:	10000035 	stwio	zero,0(r2)

	if (KEY_value == 0x2)										// check KEY1
    2aa0:	e0bffc17 	ldw	r2,-16(fp)
    2aa4:	10800098 	cmpnei	r2,r2,2
    2aa8:	1000081e 	bne	r2,zero,2acc <pushbutton_ISR+0x7c>
	{
		// reset the buffer index for recording
		buf_index_record = 0;
    2aac:	008000b4 	movhi	r2,2
    2ab0:	10a06104 	addi	r2,r2,-32380
    2ab4:	10000015 	stw	zero,0(r2)
		// clear audio FIFOs
		alt_up_audio_reset_audio_core (audio_dev);
    2ab8:	e13ffd17 	ldw	r4,-12(fp)
    2abc:	000ed400 	call	ed40 <alt_up_audio_reset_audio_core>
		// enable audio-in interrupts
		alt_up_audio_enable_read_interrupt (audio_dev);
    2ac0:	e13ffd17 	ldw	r4,-12(fp)
    2ac4:	000eb900 	call	eb90 <alt_up_audio_enable_read_interrupt>
    2ac8:	00000a06 	br	2af4 <pushbutton_ISR+0xa4>
	}
	else if (KEY_value == 0x4)									// check KEY2
    2acc:	e0bffc17 	ldw	r2,-16(fp)
    2ad0:	10800118 	cmpnei	r2,r2,4
    2ad4:	1000071e 	bne	r2,zero,2af4 <pushbutton_ISR+0xa4>
	{
		// reset counter to start playback
		buf_index_play = 0;
    2ad8:	008000b4 	movhi	r2,2
    2adc:	10a05f04 	addi	r2,r2,-32388
    2ae0:	10000015 	stw	zero,0(r2)
		// clear audio FIFOs
		alt_up_audio_reset_audio_core (audio_dev);
    2ae4:	e13ffd17 	ldw	r4,-12(fp)
    2ae8:	000ed400 	call	ed40 <alt_up_audio_reset_audio_core>
		// enable audio-out interrupts
		alt_up_audio_enable_write_interrupt (audio_dev);
    2aec:	e13ffd17 	ldw	r4,-12(fp)
    2af0:	000ec2c0 	call	ec2c <alt_up_audio_enable_write_interrupt>
	}
	return;
}
    2af4:	e037883a 	mov	sp,fp
    2af8:	dfc00117 	ldw	ra,4(sp)
    2afc:	df000017 	ldw	fp,0(sp)
    2b00:	dec00204 	addi	sp,sp,8
    2b04:	f800283a 	ret

00002b08 <__muldi3>:
    2b08:	2011883a 	mov	r8,r4
    2b0c:	427fffcc 	andi	r9,r8,65535
    2b10:	4018d43a 	srli	r12,r8,16
    2b14:	32bfffcc 	andi	r10,r6,65535
    2b18:	3016d43a 	srli	r11,r6,16
    2b1c:	4a85383a 	mul	r2,r9,r10
    2b20:	6295383a 	mul	r10,r12,r10
    2b24:	4ad3383a 	mul	r9,r9,r11
    2b28:	113fffcc 	andi	r4,r2,65535
    2b2c:	1004d43a 	srli	r2,r2,16
    2b30:	4a93883a 	add	r9,r9,r10
    2b34:	3807883a 	mov	r3,r7
    2b38:	1245883a 	add	r2,r2,r9
    2b3c:	280f883a 	mov	r7,r5
    2b40:	180b883a 	mov	r5,r3
    2b44:	1006943a 	slli	r3,r2,16
    2b48:	defffd04 	addi	sp,sp,-12
    2b4c:	dc800215 	stw	r18,8(sp)
    2b50:	1907883a 	add	r3,r3,r4
    2b54:	dc400115 	stw	r17,4(sp)
    2b58:	dc000015 	stw	r16,0(sp)
    2b5c:	4165383a 	mul	r18,r8,r5
    2b60:	31e3383a 	mul	r17,r6,r7
    2b64:	1012d43a 	srli	r9,r2,16
    2b68:	62d9383a 	mul	r12,r12,r11
    2b6c:	181f883a 	mov	r15,r3
    2b70:	1280022e 	bgeu	r2,r10,2b7c <__muldi3+0x74>
    2b74:	00800074 	movhi	r2,1
    2b78:	6099883a 	add	r12,r12,r2
    2b7c:	624d883a 	add	r6,r12,r9
    2b80:	9187883a 	add	r3,r18,r6
    2b84:	88c7883a 	add	r3,r17,r3
    2b88:	7805883a 	mov	r2,r15
    2b8c:	dc800217 	ldw	r18,8(sp)
    2b90:	dc400117 	ldw	r17,4(sp)
    2b94:	dc000017 	ldw	r16,0(sp)
    2b98:	dec00304 	addi	sp,sp,12
    2b9c:	f800283a 	ret

00002ba0 <__divdi3>:
    2ba0:	deffef04 	addi	sp,sp,-68
    2ba4:	2005883a 	mov	r2,r4
    2ba8:	2807883a 	mov	r3,r5
    2bac:	dfc01015 	stw	ra,64(sp)
    2bb0:	df000f15 	stw	fp,60(sp)
    2bb4:	ddc00e15 	stw	r23,56(sp)
    2bb8:	dd800d15 	stw	r22,52(sp)
    2bbc:	dd400c15 	stw	r21,48(sp)
    2bc0:	dd000b15 	stw	r20,44(sp)
    2bc4:	dcc00a15 	stw	r19,40(sp)
    2bc8:	dc800915 	stw	r18,36(sp)
    2bcc:	dc400815 	stw	r17,32(sp)
    2bd0:	dc000715 	stw	r16,28(sp)
    2bd4:	1019883a 	mov	r12,r2
    2bd8:	181b883a 	mov	r13,r3
    2bdc:	3015883a 	mov	r10,r6
    2be0:	3817883a 	mov	r11,r7
    2be4:	1800ba16 	blt	r3,zero,2ed0 <__divdi3+0x330>
    2be8:	d8000615 	stw	zero,24(sp)
    2bec:	5800ad16 	blt	r11,zero,2ea4 <__divdi3+0x304>
    2bf0:	5021883a 	mov	r16,r10
    2bf4:	602f883a 	mov	r23,r12
    2bf8:	6829883a 	mov	r20,r13
    2bfc:	58003b1e 	bne	r11,zero,2cec <__divdi3+0x14c>
    2c00:	6a805836 	bltu	r13,r10,2d64 <__divdi3+0x1c4>
    2c04:	5000ce26 	beq	r10,zero,2f40 <__divdi3+0x3a0>
    2c08:	00bfffd4 	movui	r2,65535
    2c0c:	1400ba36 	bltu	r2,r16,2ef8 <__divdi3+0x358>
    2c10:	00803fc4 	movi	r2,255
    2c14:	14015f36 	bltu	r2,r16,3194 <__divdi3+0x5f4>
    2c18:	000b883a 	mov	r5,zero
    2c1c:	0005883a 	mov	r2,zero
    2c20:	8084d83a 	srl	r2,r16,r2
    2c24:	01000074 	movhi	r4,1
    2c28:	210ed904 	addi	r4,r4,15204
    2c2c:	01800804 	movi	r6,32
    2c30:	1105883a 	add	r2,r2,r4
    2c34:	10c00003 	ldbu	r3,0(r2)
    2c38:	28c7883a 	add	r3,r5,r3
    2c3c:	30edc83a 	sub	r22,r6,r3
    2c40:	b001101e 	bne	r22,zero,3084 <__divdi3+0x4e4>
    2c44:	802ad43a 	srli	r21,r16,16
    2c48:	01000044 	movi	r4,1
    2c4c:	a423c83a 	sub	r17,r20,r16
    2c50:	873fffcc 	andi	fp,r16,65535
    2c54:	d9000315 	stw	r4,12(sp)
    2c58:	8809883a 	mov	r4,r17
    2c5c:	a80b883a 	mov	r5,r21
    2c60:	00034a80 	call	34a8 <__udivsi3>
    2c64:	8809883a 	mov	r4,r17
    2c68:	a80b883a 	mov	r5,r21
    2c6c:	102d883a 	mov	r22,r2
    2c70:	00034b00 	call	34b0 <__umodsi3>
    2c74:	1004943a 	slli	r2,r2,16
    2c78:	b806d43a 	srli	r3,r23,16
    2c7c:	e5a3383a 	mul	r17,fp,r22
    2c80:	10c4b03a 	or	r2,r2,r3
    2c84:	1440042e 	bgeu	r2,r17,2c98 <__divdi3+0xf8>
    2c88:	1405883a 	add	r2,r2,r16
    2c8c:	b5bfffc4 	addi	r22,r22,-1
    2c90:	14000136 	bltu	r2,r16,2c98 <__divdi3+0xf8>
    2c94:	14415f36 	bltu	r2,r17,3214 <__divdi3+0x674>
    2c98:	1463c83a 	sub	r17,r2,r17
    2c9c:	8809883a 	mov	r4,r17
    2ca0:	a80b883a 	mov	r5,r21
    2ca4:	00034a80 	call	34a8 <__udivsi3>
    2ca8:	8809883a 	mov	r4,r17
    2cac:	a80b883a 	mov	r5,r21
    2cb0:	1029883a 	mov	r20,r2
    2cb4:	00034b00 	call	34b0 <__umodsi3>
    2cb8:	1004943a 	slli	r2,r2,16
    2cbc:	e509383a 	mul	r4,fp,r20
    2cc0:	b8ffffcc 	andi	r3,r23,65535
    2cc4:	10c4b03a 	or	r2,r2,r3
    2cc8:	1100042e 	bgeu	r2,r4,2cdc <__divdi3+0x13c>
    2ccc:	8085883a 	add	r2,r16,r2
    2cd0:	a53fffc4 	addi	r20,r20,-1
    2cd4:	14000136 	bltu	r2,r16,2cdc <__divdi3+0x13c>
    2cd8:	11014736 	bltu	r2,r4,31f8 <__divdi3+0x658>
    2cdc:	b004943a 	slli	r2,r22,16
    2ce0:	d8c00317 	ldw	r3,12(sp)
    2ce4:	a084b03a 	or	r2,r20,r2
    2ce8:	00000406 	br	2cfc <__divdi3+0x15c>
    2cec:	5811883a 	mov	r8,r11
    2cf0:	6ac0582e 	bgeu	r13,r11,2e54 <__divdi3+0x2b4>
    2cf4:	0005883a 	mov	r2,zero
    2cf8:	0007883a 	mov	r3,zero
    2cfc:	1025883a 	mov	r18,r2
    2d00:	100d883a 	mov	r6,r2
    2d04:	d8800617 	ldw	r2,24(sp)
    2d08:	180f883a 	mov	r7,r3
    2d0c:	10000726 	beq	r2,zero,2d2c <__divdi3+0x18c>
    2d10:	0009883a 	mov	r4,zero
    2d14:	2485c83a 	sub	r2,r4,r18
    2d18:	2089803a 	cmpltu	r4,r4,r2
    2d1c:	00c7c83a 	sub	r3,zero,r3
    2d20:	1909c83a 	sub	r4,r3,r4
    2d24:	100d883a 	mov	r6,r2
    2d28:	200f883a 	mov	r7,r4
    2d2c:	3005883a 	mov	r2,r6
    2d30:	3807883a 	mov	r3,r7
    2d34:	dfc01017 	ldw	ra,64(sp)
    2d38:	df000f17 	ldw	fp,60(sp)
    2d3c:	ddc00e17 	ldw	r23,56(sp)
    2d40:	dd800d17 	ldw	r22,52(sp)
    2d44:	dd400c17 	ldw	r21,48(sp)
    2d48:	dd000b17 	ldw	r20,44(sp)
    2d4c:	dcc00a17 	ldw	r19,40(sp)
    2d50:	dc800917 	ldw	r18,36(sp)
    2d54:	dc400817 	ldw	r17,32(sp)
    2d58:	dc000717 	ldw	r16,28(sp)
    2d5c:	dec01104 	addi	sp,sp,68
    2d60:	f800283a 	ret
    2d64:	00bfffd4 	movui	r2,65535
    2d68:	12806f36 	bltu	r2,r10,2f28 <__divdi3+0x388>
    2d6c:	00803fc4 	movi	r2,255
    2d70:	12810236 	bltu	r2,r10,317c <__divdi3+0x5dc>
    2d74:	000b883a 	mov	r5,zero
    2d78:	0005883a 	mov	r2,zero
    2d7c:	8084d83a 	srl	r2,r16,r2
    2d80:	01000074 	movhi	r4,1
    2d84:	210ed904 	addi	r4,r4,15204
    2d88:	01800804 	movi	r6,32
    2d8c:	1105883a 	add	r2,r2,r4
    2d90:	10c00003 	ldbu	r3,0(r2)
    2d94:	28c7883a 	add	r3,r5,r3
    2d98:	30d1c83a 	sub	r8,r6,r3
    2d9c:	40000626 	beq	r8,zero,2db8 <__divdi3+0x218>
    2da0:	3205c83a 	sub	r2,r6,r8
    2da4:	b884d83a 	srl	r2,r23,r2
    2da8:	a206983a 	sll	r3,r20,r8
    2dac:	ba2e983a 	sll	r23,r23,r8
    2db0:	8220983a 	sll	r16,r16,r8
    2db4:	18a8b03a 	or	r20,r3,r2
    2db8:	802ad43a 	srli	r21,r16,16
    2dbc:	a009883a 	mov	r4,r20
    2dc0:	873fffcc 	andi	fp,r16,65535
    2dc4:	a80b883a 	mov	r5,r21
    2dc8:	00034a80 	call	34a8 <__udivsi3>
    2dcc:	a009883a 	mov	r4,r20
    2dd0:	a80b883a 	mov	r5,r21
    2dd4:	102d883a 	mov	r22,r2
    2dd8:	00034b00 	call	34b0 <__umodsi3>
    2ddc:	1004943a 	slli	r2,r2,16
    2de0:	b806d43a 	srli	r3,r23,16
    2de4:	e5a3383a 	mul	r17,fp,r22
    2de8:	10c4b03a 	or	r2,r2,r3
    2dec:	1440042e 	bgeu	r2,r17,2e00 <__divdi3+0x260>
    2df0:	1405883a 	add	r2,r2,r16
    2df4:	b5bfffc4 	addi	r22,r22,-1
    2df8:	14000136 	bltu	r2,r16,2e00 <__divdi3+0x260>
    2dfc:	14410236 	bltu	r2,r17,3208 <__divdi3+0x668>
    2e00:	1463c83a 	sub	r17,r2,r17
    2e04:	8809883a 	mov	r4,r17
    2e08:	a80b883a 	mov	r5,r21
    2e0c:	00034a80 	call	34a8 <__udivsi3>
    2e10:	8809883a 	mov	r4,r17
    2e14:	a80b883a 	mov	r5,r21
    2e18:	1029883a 	mov	r20,r2
    2e1c:	00034b00 	call	34b0 <__umodsi3>
    2e20:	1004943a 	slli	r2,r2,16
    2e24:	e509383a 	mul	r4,fp,r20
    2e28:	b8ffffcc 	andi	r3,r23,65535
    2e2c:	10c4b03a 	or	r2,r2,r3
    2e30:	1100042e 	bgeu	r2,r4,2e44 <__divdi3+0x2a4>
    2e34:	8085883a 	add	r2,r16,r2
    2e38:	a53fffc4 	addi	r20,r20,-1
    2e3c:	14000136 	bltu	r2,r16,2e44 <__divdi3+0x2a4>
    2e40:	1100ef36 	bltu	r2,r4,3200 <__divdi3+0x660>
    2e44:	b004943a 	slli	r2,r22,16
    2e48:	0007883a 	mov	r3,zero
    2e4c:	a084b03a 	or	r2,r20,r2
    2e50:	003faa06 	br	2cfc <__divdi3+0x15c>
    2e54:	00bfffd4 	movui	r2,65535
    2e58:	12c02d36 	bltu	r2,r11,2f10 <__divdi3+0x370>
    2e5c:	00803fc4 	movi	r2,255
    2e60:	12c0cf36 	bltu	r2,r11,31a0 <__divdi3+0x600>
    2e64:	000b883a 	mov	r5,zero
    2e68:	0005883a 	mov	r2,zero
    2e6c:	4084d83a 	srl	r2,r8,r2
    2e70:	01000074 	movhi	r4,1
    2e74:	210ed904 	addi	r4,r4,15204
    2e78:	01800804 	movi	r6,32
    2e7c:	1105883a 	add	r2,r2,r4
    2e80:	10c00003 	ldbu	r3,0(r2)
    2e84:	28c7883a 	add	r3,r5,r3
    2e88:	30f9c83a 	sub	fp,r6,r3
    2e8c:	e000331e 	bne	fp,zero,2f5c <__divdi3+0x3bc>
    2e90:	45000136 	bltu	r8,r20,2e98 <__divdi3+0x2f8>
    2e94:	bc3f9736 	bltu	r23,r16,2cf4 <__divdi3+0x154>
    2e98:	00800044 	movi	r2,1
    2e9c:	0007883a 	mov	r3,zero
    2ea0:	003f9606 	br	2cfc <__divdi3+0x15c>
    2ea4:	0009883a 	mov	r4,zero
    2ea8:	2285c83a 	sub	r2,r4,r10
    2eac:	02c7c83a 	sub	r3,zero,r11
    2eb0:	2089803a 	cmpltu	r4,r4,r2
    2eb4:	1909c83a 	sub	r4,r3,r4
    2eb8:	d8c00617 	ldw	r3,24(sp)
    2ebc:	1015883a 	mov	r10,r2
    2ec0:	2017883a 	mov	r11,r4
    2ec4:	00c6303a 	nor	r3,zero,r3
    2ec8:	d8c00615 	stw	r3,24(sp)
    2ecc:	003f4806 	br	2bf0 <__divdi3+0x50>
    2ed0:	0009883a 	mov	r4,zero
    2ed4:	2085c83a 	sub	r2,r4,r2
    2ed8:	2089803a 	cmpltu	r4,r4,r2
    2edc:	00c7c83a 	sub	r3,zero,r3
    2ee0:	1909c83a 	sub	r4,r3,r4
    2ee4:	1019883a 	mov	r12,r2
    2ee8:	201b883a 	mov	r13,r4
    2eec:	00bfffc4 	movi	r2,-1
    2ef0:	d8800615 	stw	r2,24(sp)
    2ef4:	003f3d06 	br	2bec <__divdi3+0x4c>
    2ef8:	00804034 	movhi	r2,256
    2efc:	10bfffc4 	addi	r2,r2,-1
    2f00:	1400aa36 	bltu	r2,r16,31ac <__divdi3+0x60c>
    2f04:	01400404 	movi	r5,16
    2f08:	2805883a 	mov	r2,r5
    2f0c:	003f4406 	br	2c20 <__divdi3+0x80>
    2f10:	00804034 	movhi	r2,256
    2f14:	10bfffc4 	addi	r2,r2,-1
    2f18:	12c09b36 	bltu	r2,r11,3188 <__divdi3+0x5e8>
    2f1c:	01400404 	movi	r5,16
    2f20:	2805883a 	mov	r2,r5
    2f24:	003fd106 	br	2e6c <__divdi3+0x2cc>
    2f28:	00804034 	movhi	r2,256
    2f2c:	10bfffc4 	addi	r2,r2,-1
    2f30:	1280a136 	bltu	r2,r10,31b8 <__divdi3+0x618>
    2f34:	01400404 	movi	r5,16
    2f38:	2805883a 	mov	r2,r5
    2f3c:	003f8f06 	br	2d7c <__divdi3+0x1dc>
    2f40:	01000044 	movi	r4,1
    2f44:	000b883a 	mov	r5,zero
    2f48:	00034a80 	call	34a8 <__udivsi3>
    2f4c:	1021883a 	mov	r16,r2
    2f50:	00bfffd4 	movui	r2,65535
    2f54:	143fe836 	bltu	r2,r16,2ef8 <__divdi3+0x358>
    2f58:	003f2d06 	br	2c10 <__divdi3+0x70>
    2f5c:	3705c83a 	sub	r2,r6,fp
    2f60:	4708983a 	sll	r4,r8,fp
    2f64:	8086d83a 	srl	r3,r16,r2
    2f68:	a0a2d83a 	srl	r17,r20,r2
    2f6c:	b884d83a 	srl	r2,r23,r2
    2f70:	20eab03a 	or	r21,r4,r3
    2f74:	a82cd43a 	srli	r22,r21,16
    2f78:	a706983a 	sll	r3,r20,fp
    2f7c:	8809883a 	mov	r4,r17
    2f80:	b00b883a 	mov	r5,r22
    2f84:	1886b03a 	or	r3,r3,r2
    2f88:	d8c00215 	stw	r3,8(sp)
    2f8c:	00034a80 	call	34a8 <__udivsi3>
    2f90:	8809883a 	mov	r4,r17
    2f94:	b00b883a 	mov	r5,r22
    2f98:	1029883a 	mov	r20,r2
    2f9c:	00034b00 	call	34b0 <__umodsi3>
    2fa0:	a8ffffcc 	andi	r3,r21,65535
    2fa4:	d8c00515 	stw	r3,20(sp)
    2fa8:	d9000217 	ldw	r4,8(sp)
    2fac:	d9400517 	ldw	r5,20(sp)
    2fb0:	1004943a 	slli	r2,r2,16
    2fb4:	2006d43a 	srli	r3,r4,16
    2fb8:	8720983a 	sll	r16,r16,fp
    2fbc:	2d23383a 	mul	r17,r5,r20
    2fc0:	10c4b03a 	or	r2,r2,r3
    2fc4:	dc000015 	stw	r16,0(sp)
    2fc8:	1440032e 	bgeu	r2,r17,2fd8 <__divdi3+0x438>
    2fcc:	1545883a 	add	r2,r2,r21
    2fd0:	a53fffc4 	addi	r20,r20,-1
    2fd4:	1540842e 	bgeu	r2,r21,31e8 <__divdi3+0x648>
    2fd8:	1463c83a 	sub	r17,r2,r17
    2fdc:	8809883a 	mov	r4,r17
    2fe0:	b00b883a 	mov	r5,r22
    2fe4:	00034a80 	call	34a8 <__udivsi3>
    2fe8:	8809883a 	mov	r4,r17
    2fec:	b00b883a 	mov	r5,r22
    2ff0:	1021883a 	mov	r16,r2
    2ff4:	00034b00 	call	34b0 <__umodsi3>
    2ff8:	d8c00517 	ldw	r3,20(sp)
    2ffc:	d9000217 	ldw	r4,8(sp)
    3000:	1004943a 	slli	r2,r2,16
    3004:	1c0f383a 	mul	r7,r3,r16
    3008:	20ffffcc 	andi	r3,r4,65535
    300c:	10e2b03a 	or	r17,r2,r3
    3010:	89c0032e 	bgeu	r17,r7,3020 <__divdi3+0x480>
    3014:	8d63883a 	add	r17,r17,r21
    3018:	843fffc4 	addi	r16,r16,-1
    301c:	8d406e2e 	bgeu	r17,r21,31d8 <__divdi3+0x638>
    3020:	a008943a 	slli	r4,r20,16
    3024:	d9400017 	ldw	r5,0(sp)
    3028:	89e3c83a 	sub	r17,r17,r7
    302c:	8110b03a 	or	r8,r16,r4
    3030:	280cd43a 	srli	r6,r5,16
    3034:	28ffffcc 	andi	r3,r5,65535
    3038:	40bfffcc 	andi	r2,r8,65535
    303c:	400ad43a 	srli	r5,r8,16
    3040:	10d3383a 	mul	r9,r2,r3
    3044:	1185383a 	mul	r2,r2,r6
    3048:	28c7383a 	mul	r3,r5,r3
    304c:	4808d43a 	srli	r4,r9,16
    3050:	298b383a 	mul	r5,r5,r6
    3054:	10c5883a 	add	r2,r2,r3
    3058:	2089883a 	add	r4,r4,r2
    305c:	20c0022e 	bgeu	r4,r3,3068 <__divdi3+0x4c8>
    3060:	00800074 	movhi	r2,1
    3064:	288b883a 	add	r5,r5,r2
    3068:	2004d43a 	srli	r2,r4,16
    306c:	288b883a 	add	r5,r5,r2
    3070:	89403f36 	bltu	r17,r5,3170 <__divdi3+0x5d0>
    3074:	89403926 	beq	r17,r5,315c <__divdi3+0x5bc>
    3078:	4005883a 	mov	r2,r8
    307c:	0007883a 	mov	r3,zero
    3080:	003f1e06 	br	2cfc <__divdi3+0x15c>
    3084:	85a0983a 	sll	r16,r16,r22
    3088:	3585c83a 	sub	r2,r6,r22
    308c:	a0a2d83a 	srl	r17,r20,r2
    3090:	802ad43a 	srli	r21,r16,16
    3094:	b884d83a 	srl	r2,r23,r2
    3098:	a586983a 	sll	r3,r20,r22
    309c:	8809883a 	mov	r4,r17
    30a0:	a80b883a 	mov	r5,r21
    30a4:	1886b03a 	or	r3,r3,r2
    30a8:	d8c00115 	stw	r3,4(sp)
    30ac:	00034a80 	call	34a8 <__udivsi3>
    30b0:	8809883a 	mov	r4,r17
    30b4:	a80b883a 	mov	r5,r21
    30b8:	d8800415 	stw	r2,16(sp)
    30bc:	00034b00 	call	34b0 <__umodsi3>
    30c0:	d9400117 	ldw	r5,4(sp)
    30c4:	d9000417 	ldw	r4,16(sp)
    30c8:	1004943a 	slli	r2,r2,16
    30cc:	873fffcc 	andi	fp,r16,65535
    30d0:	2806d43a 	srli	r3,r5,16
    30d4:	e123383a 	mul	r17,fp,r4
    30d8:	10c4b03a 	or	r2,r2,r3
    30dc:	1440042e 	bgeu	r2,r17,30f0 <__divdi3+0x550>
    30e0:	213fffc4 	addi	r4,r4,-1
    30e4:	1405883a 	add	r2,r2,r16
    30e8:	d9000415 	stw	r4,16(sp)
    30ec:	1400352e 	bgeu	r2,r16,31c4 <__divdi3+0x624>
    30f0:	1463c83a 	sub	r17,r2,r17
    30f4:	8809883a 	mov	r4,r17
    30f8:	a80b883a 	mov	r5,r21
    30fc:	00034a80 	call	34a8 <__udivsi3>
    3100:	8809883a 	mov	r4,r17
    3104:	a80b883a 	mov	r5,r21
    3108:	1029883a 	mov	r20,r2
    310c:	00034b00 	call	34b0 <__umodsi3>
    3110:	d9400117 	ldw	r5,4(sp)
    3114:	1004943a 	slli	r2,r2,16
    3118:	e509383a 	mul	r4,fp,r20
    311c:	28ffffcc 	andi	r3,r5,65535
    3120:	10c6b03a 	or	r3,r2,r3
    3124:	1900062e 	bgeu	r3,r4,3140 <__divdi3+0x5a0>
    3128:	1c07883a 	add	r3,r3,r16
    312c:	a53fffc4 	addi	r20,r20,-1
    3130:	1c000336 	bltu	r3,r16,3140 <__divdi3+0x5a0>
    3134:	1900022e 	bgeu	r3,r4,3140 <__divdi3+0x5a0>
    3138:	a53fffc4 	addi	r20,r20,-1
    313c:	1c07883a 	add	r3,r3,r16
    3140:	d9400417 	ldw	r5,16(sp)
    3144:	bdae983a 	sll	r23,r23,r22
    3148:	1923c83a 	sub	r17,r3,r4
    314c:	2804943a 	slli	r2,r5,16
    3150:	a0a8b03a 	or	r20,r20,r2
    3154:	dd000315 	stw	r20,12(sp)
    3158:	003ebf06 	br	2c58 <__divdi3+0xb8>
    315c:	2004943a 	slli	r2,r4,16
    3160:	bf08983a 	sll	r4,r23,fp
    3164:	48ffffcc 	andi	r3,r9,65535
    3168:	10c5883a 	add	r2,r2,r3
    316c:	20bfc22e 	bgeu	r4,r2,3078 <__divdi3+0x4d8>
    3170:	40bfffc4 	addi	r2,r8,-1
    3174:	0007883a 	mov	r3,zero
    3178:	003ee006 	br	2cfc <__divdi3+0x15c>
    317c:	01400204 	movi	r5,8
    3180:	2805883a 	mov	r2,r5
    3184:	003efd06 	br	2d7c <__divdi3+0x1dc>
    3188:	01400604 	movi	r5,24
    318c:	2805883a 	mov	r2,r5
    3190:	003f3606 	br	2e6c <__divdi3+0x2cc>
    3194:	01400204 	movi	r5,8
    3198:	2805883a 	mov	r2,r5
    319c:	003ea006 	br	2c20 <__divdi3+0x80>
    31a0:	01400204 	movi	r5,8
    31a4:	2805883a 	mov	r2,r5
    31a8:	003f3006 	br	2e6c <__divdi3+0x2cc>
    31ac:	01400604 	movi	r5,24
    31b0:	2805883a 	mov	r2,r5
    31b4:	003e9a06 	br	2c20 <__divdi3+0x80>
    31b8:	01400604 	movi	r5,24
    31bc:	2805883a 	mov	r2,r5
    31c0:	003eee06 	br	2d7c <__divdi3+0x1dc>
    31c4:	147fca2e 	bgeu	r2,r17,30f0 <__divdi3+0x550>
    31c8:	213fffc4 	addi	r4,r4,-1
    31cc:	1405883a 	add	r2,r2,r16
    31d0:	d9000415 	stw	r4,16(sp)
    31d4:	003fc606 	br	30f0 <__divdi3+0x550>
    31d8:	89ff912e 	bgeu	r17,r7,3020 <__divdi3+0x480>
    31dc:	8d63883a 	add	r17,r17,r21
    31e0:	843fffc4 	addi	r16,r16,-1
    31e4:	003f8e06 	br	3020 <__divdi3+0x480>
    31e8:	147f7b2e 	bgeu	r2,r17,2fd8 <__divdi3+0x438>
    31ec:	a53fffc4 	addi	r20,r20,-1
    31f0:	1545883a 	add	r2,r2,r21
    31f4:	003f7806 	br	2fd8 <__divdi3+0x438>
    31f8:	a53fffc4 	addi	r20,r20,-1
    31fc:	003eb706 	br	2cdc <__divdi3+0x13c>
    3200:	a53fffc4 	addi	r20,r20,-1
    3204:	003f0f06 	br	2e44 <__divdi3+0x2a4>
    3208:	b5bfffc4 	addi	r22,r22,-1
    320c:	1405883a 	add	r2,r2,r16
    3210:	003efb06 	br	2e00 <__divdi3+0x260>
    3214:	b5bfffc4 	addi	r22,r22,-1
    3218:	1405883a 	add	r2,r2,r16
    321c:	003e9e06 	br	2c98 <__divdi3+0xf8>

00003220 <__extendsfdf2>:
    3220:	defff904 	addi	sp,sp,-28
    3224:	d9000115 	stw	r4,4(sp)
    3228:	d9400204 	addi	r5,sp,8
    322c:	d9000104 	addi	r4,sp,4
    3230:	dfc00615 	stw	ra,24(sp)
    3234:	00036980 	call	3698 <__unpack_f>
    3238:	d9c00517 	ldw	r7,20(sp)
    323c:	0011883a 	mov	r8,zero
    3240:	400697ba 	slli	r3,r8,30
    3244:	3812d0ba 	srli	r9,r7,2
    3248:	380497ba 	slli	r2,r7,30
    324c:	d9000217 	ldw	r4,8(sp)
    3250:	d9400317 	ldw	r5,12(sp)
    3254:	d9800417 	ldw	r6,16(sp)
    3258:	48c6b03a 	or	r3,r9,r3
    325c:	100f883a 	mov	r7,r2
    3260:	d8c00015 	stw	r3,0(sp)
    3264:	00033340 	call	3334 <__make_dp>
    3268:	dfc00617 	ldw	ra,24(sp)
    326c:	dec00704 	addi	sp,sp,28
    3270:	f800283a 	ret

00003274 <__floatunsisf>:
    3274:	defff904 	addi	sp,sp,-28
    3278:	dc400515 	stw	r17,20(sp)
    327c:	dc000415 	stw	r16,16(sp)
    3280:	dfc00615 	stw	ra,24(sp)
    3284:	04400784 	movi	r17,30
    3288:	2021883a 	mov	r16,r4
    328c:	d8000115 	stw	zero,4(sp)
    3290:	2000091e 	bne	r4,zero,32b8 <__floatunsisf+0x44>
    3294:	00800084 	movi	r2,2
    3298:	d8800015 	stw	r2,0(sp)
    329c:	d809883a 	mov	r4,sp
    32a0:	00035380 	call	3538 <__pack_f>
    32a4:	dfc00617 	ldw	ra,24(sp)
    32a8:	dc400517 	ldw	r17,20(sp)
    32ac:	dc000417 	ldw	r16,16(sp)
    32b0:	dec00704 	addi	sp,sp,28
    32b4:	f800283a 	ret
    32b8:	008000c4 	movi	r2,3
    32bc:	d9000315 	stw	r4,12(sp)
    32c0:	d8800015 	stw	r2,0(sp)
    32c4:	dc400215 	stw	r17,8(sp)
    32c8:	00034b80 	call	34b8 <__clzsi2>
    32cc:	117fffc4 	addi	r5,r2,-1
    32d0:	0147c83a 	sub	r3,zero,r5
    32d4:	00800044 	movi	r2,1
    32d8:	10c4983a 	sll	r2,r2,r3
    32dc:	80c6d83a 	srl	r3,r16,r3
    32e0:	8949c83a 	sub	r4,r17,r5
    32e4:	10bfffc4 	addi	r2,r2,-1
    32e8:	8084703a 	and	r2,r16,r2
    32ec:	1004c03a 	cmpne	r2,r2,zero
    32f0:	1886b03a 	or	r3,r3,r2
    32f4:	28000c16 	blt	r5,zero,3328 <__floatunsisf+0xb4>
    32f8:	8144983a 	sll	r2,r16,r5
    32fc:	8947c83a 	sub	r3,r17,r5
    3300:	283fe626 	beq	r5,zero,329c <__floatunsisf+0x28>
    3304:	d809883a 	mov	r4,sp
    3308:	d8800315 	stw	r2,12(sp)
    330c:	d8c00215 	stw	r3,8(sp)
    3310:	00035380 	call	3538 <__pack_f>
    3314:	dfc00617 	ldw	ra,24(sp)
    3318:	dc400517 	ldw	r17,20(sp)
    331c:	dc000417 	ldw	r16,16(sp)
    3320:	dec00704 	addi	sp,sp,28
    3324:	f800283a 	ret
    3328:	d8c00315 	stw	r3,12(sp)
    332c:	d9000215 	stw	r4,8(sp)
    3330:	003fda06 	br	329c <__floatunsisf+0x28>

00003334 <__make_dp>:
    3334:	defff904 	addi	sp,sp,-28
    3338:	d8c00717 	ldw	r3,28(sp)
    333c:	d9000015 	stw	r4,0(sp)
    3340:	d809883a 	mov	r4,sp
    3344:	dfc00515 	stw	ra,20(sp)
    3348:	d9c00615 	stw	r7,24(sp)
    334c:	d9400115 	stw	r5,4(sp)
    3350:	d9800215 	stw	r6,8(sp)
    3354:	d8c00415 	stw	r3,16(sp)
    3358:	d9c00315 	stw	r7,12(sp)
    335c:	00037600 	call	3760 <__pack_d>
    3360:	dfc00517 	ldw	ra,20(sp)
    3364:	dec00704 	addi	sp,sp,28
    3368:	f800283a 	ret

0000336c <udivmodsi4>:
    336c:	29001b2e 	bgeu	r5,r4,33dc <udivmodsi4+0x70>
    3370:	28001a16 	blt	r5,zero,33dc <udivmodsi4+0x70>
    3374:	00800044 	movi	r2,1
    3378:	0007883a 	mov	r3,zero
    337c:	01c007c4 	movi	r7,31
    3380:	00000306 	br	3390 <udivmodsi4+0x24>
    3384:	19c01326 	beq	r3,r7,33d4 <udivmodsi4+0x68>
    3388:	18c00044 	addi	r3,r3,1
    338c:	28000416 	blt	r5,zero,33a0 <udivmodsi4+0x34>
    3390:	294b883a 	add	r5,r5,r5
    3394:	1085883a 	add	r2,r2,r2
    3398:	293ffa36 	bltu	r5,r4,3384 <udivmodsi4+0x18>
    339c:	10000d26 	beq	r2,zero,33d4 <udivmodsi4+0x68>
    33a0:	0007883a 	mov	r3,zero
    33a4:	21400236 	bltu	r4,r5,33b0 <udivmodsi4+0x44>
    33a8:	2149c83a 	sub	r4,r4,r5
    33ac:	1886b03a 	or	r3,r3,r2
    33b0:	1004d07a 	srli	r2,r2,1
    33b4:	280ad07a 	srli	r5,r5,1
    33b8:	103ffa1e 	bne	r2,zero,33a4 <udivmodsi4+0x38>
    33bc:	30000226 	beq	r6,zero,33c8 <udivmodsi4+0x5c>
    33c0:	2005883a 	mov	r2,r4
    33c4:	f800283a 	ret
    33c8:	1809883a 	mov	r4,r3
    33cc:	2005883a 	mov	r2,r4
    33d0:	f800283a 	ret
    33d4:	0007883a 	mov	r3,zero
    33d8:	003ff806 	br	33bc <udivmodsi4+0x50>
    33dc:	00800044 	movi	r2,1
    33e0:	0007883a 	mov	r3,zero
    33e4:	003fef06 	br	33a4 <udivmodsi4+0x38>

000033e8 <__divsi3>:
    33e8:	defffe04 	addi	sp,sp,-8
    33ec:	dc000015 	stw	r16,0(sp)
    33f0:	dfc00115 	stw	ra,4(sp)
    33f4:	0021883a 	mov	r16,zero
    33f8:	20000c16 	blt	r4,zero,342c <__divsi3+0x44>
    33fc:	000d883a 	mov	r6,zero
    3400:	28000e16 	blt	r5,zero,343c <__divsi3+0x54>
    3404:	000336c0 	call	336c <udivmodsi4>
    3408:	1007883a 	mov	r3,r2
    340c:	8005003a 	cmpeq	r2,r16,zero
    3410:	1000011e 	bne	r2,zero,3418 <__divsi3+0x30>
    3414:	00c7c83a 	sub	r3,zero,r3
    3418:	1805883a 	mov	r2,r3
    341c:	dfc00117 	ldw	ra,4(sp)
    3420:	dc000017 	ldw	r16,0(sp)
    3424:	dec00204 	addi	sp,sp,8
    3428:	f800283a 	ret
    342c:	0109c83a 	sub	r4,zero,r4
    3430:	04000044 	movi	r16,1
    3434:	000d883a 	mov	r6,zero
    3438:	283ff20e 	bge	r5,zero,3404 <__divsi3+0x1c>
    343c:	014bc83a 	sub	r5,zero,r5
    3440:	8021003a 	cmpeq	r16,r16,zero
    3444:	003fef06 	br	3404 <__divsi3+0x1c>

00003448 <__modsi3>:
    3448:	deffff04 	addi	sp,sp,-4
    344c:	dfc00015 	stw	ra,0(sp)
    3450:	01800044 	movi	r6,1
    3454:	2807883a 	mov	r3,r5
    3458:	20000416 	blt	r4,zero,346c <__modsi3+0x24>
    345c:	28000c16 	blt	r5,zero,3490 <__modsi3+0x48>
    3460:	dfc00017 	ldw	ra,0(sp)
    3464:	dec00104 	addi	sp,sp,4
    3468:	000336c1 	jmpi	336c <udivmodsi4>
    346c:	0109c83a 	sub	r4,zero,r4
    3470:	28000b16 	blt	r5,zero,34a0 <__modsi3+0x58>
    3474:	180b883a 	mov	r5,r3
    3478:	01800044 	movi	r6,1
    347c:	000336c0 	call	336c <udivmodsi4>
    3480:	0085c83a 	sub	r2,zero,r2
    3484:	dfc00017 	ldw	ra,0(sp)
    3488:	dec00104 	addi	sp,sp,4
    348c:	f800283a 	ret
    3490:	014bc83a 	sub	r5,zero,r5
    3494:	dfc00017 	ldw	ra,0(sp)
    3498:	dec00104 	addi	sp,sp,4
    349c:	000336c1 	jmpi	336c <udivmodsi4>
    34a0:	0147c83a 	sub	r3,zero,r5
    34a4:	003ff306 	br	3474 <__modsi3+0x2c>

000034a8 <__udivsi3>:
    34a8:	000d883a 	mov	r6,zero
    34ac:	000336c1 	jmpi	336c <udivmodsi4>

000034b0 <__umodsi3>:
    34b0:	01800044 	movi	r6,1
    34b4:	000336c1 	jmpi	336c <udivmodsi4>

000034b8 <__clzsi2>:
    34b8:	00bfffd4 	movui	r2,65535
    34bc:	11000e36 	bltu	r2,r4,34f8 <__clzsi2+0x40>
    34c0:	00803fc4 	movi	r2,255
    34c4:	01400204 	movi	r5,8
    34c8:	0007883a 	mov	r3,zero
    34cc:	11001036 	bltu	r2,r4,3510 <__clzsi2+0x58>
    34d0:	000b883a 	mov	r5,zero
    34d4:	20c6d83a 	srl	r3,r4,r3
    34d8:	00800074 	movhi	r2,1
    34dc:	108ed904 	addi	r2,r2,15204
    34e0:	1887883a 	add	r3,r3,r2
    34e4:	18800003 	ldbu	r2,0(r3)
    34e8:	00c00804 	movi	r3,32
    34ec:	2885883a 	add	r2,r5,r2
    34f0:	1885c83a 	sub	r2,r3,r2
    34f4:	f800283a 	ret
    34f8:	01400404 	movi	r5,16
    34fc:	00804034 	movhi	r2,256
    3500:	10bfffc4 	addi	r2,r2,-1
    3504:	2807883a 	mov	r3,r5
    3508:	113ff22e 	bgeu	r2,r4,34d4 <__clzsi2+0x1c>
    350c:	01400604 	movi	r5,24
    3510:	2807883a 	mov	r3,r5
    3514:	20c6d83a 	srl	r3,r4,r3
    3518:	00800074 	movhi	r2,1
    351c:	108ed904 	addi	r2,r2,15204
    3520:	1887883a 	add	r3,r3,r2
    3524:	18800003 	ldbu	r2,0(r3)
    3528:	00c00804 	movi	r3,32
    352c:	2885883a 	add	r2,r5,r2
    3530:	1885c83a 	sub	r2,r3,r2
    3534:	f800283a 	ret

00003538 <__pack_f>:
    3538:	20c00017 	ldw	r3,0(r4)
    353c:	01c00044 	movi	r7,1
    3540:	21800317 	ldw	r6,12(r4)
    3544:	21400117 	ldw	r5,4(r4)
    3548:	38c02d2e 	bgeu	r7,r3,3600 <__pack_f+0xc8>
    354c:	00800104 	movi	r2,4
    3550:	18802826 	beq	r3,r2,35f4 <__pack_f+0xbc>
    3554:	00800084 	movi	r2,2
    3558:	18800126 	beq	r3,r2,3560 <__pack_f+0x28>
    355c:	3000101e 	bne	r6,zero,35a0 <__pack_f+0x68>
    3560:	000d883a 	mov	r6,zero
    3564:	0007883a 	mov	r3,zero
    3568:	19003fcc 	andi	r4,r3,255
    356c:	200895fa 	slli	r4,r4,23
    3570:	00c02034 	movhi	r3,128
    3574:	18ffffc4 	addi	r3,r3,-1
    3578:	30c6703a 	and	r3,r6,r3
    357c:	10a0002c 	andhi	r2,r2,32768
    3580:	10c4b03a 	or	r2,r2,r3
    3584:	280a97fa 	slli	r5,r5,31
    3588:	1104b03a 	or	r2,r2,r4
    358c:	00e00034 	movhi	r3,32768
    3590:	18ffffc4 	addi	r3,r3,-1
    3594:	10c4703a 	and	r2,r2,r3
    3598:	1144b03a 	or	r2,r2,r5
    359c:	f800283a 	ret
    35a0:	21000217 	ldw	r4,8(r4)
    35a4:	00bfe084 	movi	r2,-126
    35a8:	20801b16 	blt	r4,r2,3618 <__pack_f+0xe0>
    35ac:	00801fc4 	movi	r2,127
    35b0:	11001016 	blt	r2,r4,35f4 <__pack_f+0xbc>
    35b4:	308e703a 	and	r7,r6,r2
    35b8:	2087883a 	add	r3,r4,r2
    35bc:	00801004 	movi	r2,64
    35c0:	38800526 	beq	r7,r2,35d8 <__pack_f+0xa0>
    35c4:	31800fc4 	addi	r6,r6,63
    35c8:	30000716 	blt	r6,zero,35e8 <__pack_f+0xb0>
    35cc:	300490ba 	slli	r2,r6,2
    35d0:	100cd27a 	srli	r6,r2,9
    35d4:	003fe406 	br	3568 <__pack_f+0x30>
    35d8:	3080200c 	andi	r2,r6,128
    35dc:	103ffa26 	beq	r2,zero,35c8 <__pack_f+0x90>
    35e0:	31cd883a 	add	r6,r6,r7
    35e4:	003ff806 	br	35c8 <__pack_f+0x90>
    35e8:	300cd07a 	srli	r6,r6,1
    35ec:	18c00044 	addi	r3,r3,1
    35f0:	003ff606 	br	35cc <__pack_f+0x94>
    35f4:	000d883a 	mov	r6,zero
    35f8:	00ffffc4 	movi	r3,-1
    35fc:	003fda06 	br	3568 <__pack_f+0x30>
    3600:	31800434 	orhi	r6,r6,16
    3604:	00802034 	movhi	r2,128
    3608:	10bfffc4 	addi	r2,r2,-1
    360c:	308c703a 	and	r6,r6,r2
    3610:	00ffffc4 	movi	r3,-1
    3614:	003fd406 	br	3568 <__pack_f+0x30>
    3618:	1109c83a 	sub	r4,r2,r4
    361c:	00800644 	movi	r2,25
    3620:	11001216 	blt	r2,r4,366c <__pack_f+0x134>
    3624:	3904983a 	sll	r2,r7,r4
    3628:	3106d83a 	srl	r3,r6,r4
    362c:	10bfffc4 	addi	r2,r2,-1
    3630:	3084703a 	and	r2,r6,r2
    3634:	1004c03a 	cmpne	r2,r2,zero
    3638:	1886b03a 	or	r3,r3,r2
    363c:	19001fcc 	andi	r4,r3,127
    3640:	00801004 	movi	r2,64
    3644:	20800c26 	beq	r4,r2,3678 <__pack_f+0x140>
    3648:	18c00fc4 	addi	r3,r3,63
    364c:	00900034 	movhi	r2,16384
    3650:	10bfffc4 	addi	r2,r2,-1
    3654:	180cd1fa 	srli	r6,r3,7
    3658:	10c7803a 	cmpltu	r3,r2,r3
    365c:	00802034 	movhi	r2,128
    3660:	10bfffc4 	addi	r2,r2,-1
    3664:	308c703a 	and	r6,r6,r2
    3668:	003fbf06 	br	3568 <__pack_f+0x30>
    366c:	0007883a 	mov	r3,zero
    3670:	000d883a 	mov	r6,zero
    3674:	003ff906 	br	365c <__pack_f+0x124>
    3678:	1880200c 	andi	r2,r3,128
    367c:	10000126 	beq	r2,zero,3684 <__pack_f+0x14c>
    3680:	1907883a 	add	r3,r3,r4
    3684:	180cd1fa 	srli	r6,r3,7
    3688:	00900034 	movhi	r2,16384
    368c:	10bfffc4 	addi	r2,r2,-1
    3690:	10c7803a 	cmpltu	r3,r2,r3
    3694:	003ff106 	br	365c <__pack_f+0x124>

00003698 <__unpack_f>:
    3698:	21800017 	ldw	r6,0(r4)
    369c:	00c02034 	movhi	r3,128
    36a0:	18ffffc4 	addi	r3,r3,-1
    36a4:	3004d5fa 	srli	r2,r6,23
    36a8:	3008d7fa 	srli	r4,r6,31
    36ac:	30ce703a 	and	r7,r6,r3
    36b0:	10c03fcc 	andi	r3,r2,255
    36b4:	29000115 	stw	r4,4(r5)
    36b8:	1800131e 	bne	r3,zero,3708 <__unpack_f+0x70>
    36bc:	38000f26 	beq	r7,zero,36fc <__unpack_f+0x64>
    36c0:	380691fa 	slli	r3,r7,7
    36c4:	01bfe084 	movi	r6,-126
    36c8:	008000c4 	movi	r2,3
    36cc:	01100034 	movhi	r4,16384
    36d0:	213fffc4 	addi	r4,r4,-1
    36d4:	28800015 	stw	r2,0(r5)
    36d8:	29800215 	stw	r6,8(r5)
    36dc:	20c00536 	bltu	r4,r3,36f4 <__unpack_f+0x5c>
    36e0:	3005883a 	mov	r2,r6
    36e4:	18c7883a 	add	r3,r3,r3
    36e8:	10bfffc4 	addi	r2,r2,-1
    36ec:	20fffd2e 	bgeu	r4,r3,36e4 <__unpack_f+0x4c>
    36f0:	28800215 	stw	r2,8(r5)
    36f4:	28c00315 	stw	r3,12(r5)
    36f8:	f800283a 	ret
    36fc:	00800084 	movi	r2,2
    3700:	28800015 	stw	r2,0(r5)
    3704:	f800283a 	ret
    3708:	00803fc4 	movi	r2,255
    370c:	18800826 	beq	r3,r2,3730 <__unpack_f+0x98>
    3710:	380491fa 	slli	r2,r7,7
    3714:	18ffe044 	addi	r3,r3,-127
    3718:	28c00215 	stw	r3,8(r5)
    371c:	10900034 	orhi	r2,r2,16384
    3720:	28800315 	stw	r2,12(r5)
    3724:	008000c4 	movi	r2,3
    3728:	28800015 	stw	r2,0(r5)
    372c:	f800283a 	ret
    3730:	3800031e 	bne	r7,zero,3740 <__unpack_f+0xa8>
    3734:	00800104 	movi	r2,4
    3738:	28800015 	stw	r2,0(r5)
    373c:	f800283a 	ret
    3740:	3080042c 	andhi	r2,r6,16
    3744:	10000426 	beq	r2,zero,3758 <__unpack_f+0xc0>
    3748:	00800044 	movi	r2,1
    374c:	28800015 	stw	r2,0(r5)
    3750:	29c00315 	stw	r7,12(r5)
    3754:	f800283a 	ret
    3758:	28000015 	stw	zero,0(r5)
    375c:	003ffc06 	br	3750 <__unpack_f+0xb8>

00003760 <__pack_d>:
    3760:	20c00017 	ldw	r3,0(r4)
    3764:	defffd04 	addi	sp,sp,-12
    3768:	dc000015 	stw	r16,0(sp)
    376c:	dc800215 	stw	r18,8(sp)
    3770:	dc400115 	stw	r17,4(sp)
    3774:	00800044 	movi	r2,1
    3778:	22000317 	ldw	r8,12(r4)
    377c:	001f883a 	mov	r15,zero
    3780:	22400417 	ldw	r9,16(r4)
    3784:	24000117 	ldw	r16,4(r4)
    3788:	10c0552e 	bgeu	r2,r3,38e0 <__pack_d+0x180>
    378c:	00800104 	movi	r2,4
    3790:	18804f26 	beq	r3,r2,38d0 <__pack_d+0x170>
    3794:	00800084 	movi	r2,2
    3798:	18800226 	beq	r3,r2,37a4 <__pack_d+0x44>
    379c:	4244b03a 	or	r2,r8,r9
    37a0:	10001a1e 	bne	r2,zero,380c <__pack_d+0xac>
    37a4:	000d883a 	mov	r6,zero
    37a8:	000f883a 	mov	r7,zero
    37ac:	0011883a 	mov	r8,zero
    37b0:	00800434 	movhi	r2,16
    37b4:	10bfffc4 	addi	r2,r2,-1
    37b8:	301d883a 	mov	r14,r6
    37bc:	3884703a 	and	r2,r7,r2
    37c0:	400a953a 	slli	r5,r8,20
    37c4:	79bffc2c 	andhi	r6,r15,65520
    37c8:	308cb03a 	or	r6,r6,r2
    37cc:	00e00434 	movhi	r3,32784
    37d0:	18ffffc4 	addi	r3,r3,-1
    37d4:	800497fa 	slli	r2,r16,31
    37d8:	30c6703a 	and	r3,r6,r3
    37dc:	1946b03a 	or	r3,r3,r5
    37e0:	01600034 	movhi	r5,32768
    37e4:	297fffc4 	addi	r5,r5,-1
    37e8:	194a703a 	and	r5,r3,r5
    37ec:	288ab03a 	or	r5,r5,r2
    37f0:	2807883a 	mov	r3,r5
    37f4:	7005883a 	mov	r2,r14
    37f8:	dc800217 	ldw	r18,8(sp)
    37fc:	dc400117 	ldw	r17,4(sp)
    3800:	dc000017 	ldw	r16,0(sp)
    3804:	dec00304 	addi	sp,sp,12
    3808:	f800283a 	ret
    380c:	21000217 	ldw	r4,8(r4)
    3810:	00bf0084 	movi	r2,-1022
    3814:	20803f16 	blt	r4,r2,3914 <__pack_d+0x1b4>
    3818:	0080ffc4 	movi	r2,1023
    381c:	11002c16 	blt	r2,r4,38d0 <__pack_d+0x170>
    3820:	00803fc4 	movi	r2,255
    3824:	408c703a 	and	r6,r8,r2
    3828:	00802004 	movi	r2,128
    382c:	0007883a 	mov	r3,zero
    3830:	000f883a 	mov	r7,zero
    3834:	2280ffc4 	addi	r10,r4,1023
    3838:	30801e26 	beq	r6,r2,38b4 <__pack_d+0x154>
    383c:	00801fc4 	movi	r2,127
    3840:	4089883a 	add	r4,r8,r2
    3844:	220d803a 	cmpltu	r6,r4,r8
    3848:	324d883a 	add	r6,r6,r9
    384c:	2011883a 	mov	r8,r4
    3850:	3013883a 	mov	r9,r6
    3854:	00880034 	movhi	r2,8192
    3858:	10bfffc4 	addi	r2,r2,-1
    385c:	12400d36 	bltu	r2,r9,3894 <__pack_d+0x134>
    3860:	4804963a 	slli	r2,r9,24
    3864:	400cd23a 	srli	r6,r8,8
    3868:	480ed23a 	srli	r7,r9,8
    386c:	013fffc4 	movi	r4,-1
    3870:	118cb03a 	or	r6,r2,r6
    3874:	01400434 	movhi	r5,16
    3878:	297fffc4 	addi	r5,r5,-1
    387c:	3104703a 	and	r2,r6,r4
    3880:	3946703a 	and	r3,r7,r5
    3884:	5201ffcc 	andi	r8,r10,2047
    3888:	100d883a 	mov	r6,r2
    388c:	180f883a 	mov	r7,r3
    3890:	003fc706 	br	37b0 <__pack_d+0x50>
    3894:	480897fa 	slli	r4,r9,31
    3898:	4004d07a 	srli	r2,r8,1
    389c:	4806d07a 	srli	r3,r9,1
    38a0:	52800044 	addi	r10,r10,1
    38a4:	2084b03a 	or	r2,r4,r2
    38a8:	1011883a 	mov	r8,r2
    38ac:	1813883a 	mov	r9,r3
    38b0:	003feb06 	br	3860 <__pack_d+0x100>
    38b4:	383fe11e 	bne	r7,zero,383c <__pack_d+0xdc>
    38b8:	01004004 	movi	r4,256
    38bc:	4104703a 	and	r2,r8,r4
    38c0:	10c4b03a 	or	r2,r2,r3
    38c4:	103fe326 	beq	r2,zero,3854 <__pack_d+0xf4>
    38c8:	3005883a 	mov	r2,r6
    38cc:	003fdc06 	br	3840 <__pack_d+0xe0>
    38d0:	000d883a 	mov	r6,zero
    38d4:	000f883a 	mov	r7,zero
    38d8:	0201ffc4 	movi	r8,2047
    38dc:	003fb406 	br	37b0 <__pack_d+0x50>
    38e0:	0005883a 	mov	r2,zero
    38e4:	00c00234 	movhi	r3,8
    38e8:	408cb03a 	or	r6,r8,r2
    38ec:	48ceb03a 	or	r7,r9,r3
    38f0:	013fffc4 	movi	r4,-1
    38f4:	01400434 	movhi	r5,16
    38f8:	297fffc4 	addi	r5,r5,-1
    38fc:	3104703a 	and	r2,r6,r4
    3900:	3946703a 	and	r3,r7,r5
    3904:	100d883a 	mov	r6,r2
    3908:	180f883a 	mov	r7,r3
    390c:	0201ffc4 	movi	r8,2047
    3910:	003fa706 	br	37b0 <__pack_d+0x50>
    3914:	1109c83a 	sub	r4,r2,r4
    3918:	00800e04 	movi	r2,56
    391c:	11004316 	blt	r2,r4,3a2c <__pack_d+0x2cc>
    3920:	21fff804 	addi	r7,r4,-32
    3924:	38004516 	blt	r7,zero,3a3c <__pack_d+0x2dc>
    3928:	49d8d83a 	srl	r12,r9,r7
    392c:	001b883a 	mov	r13,zero
    3930:	0023883a 	mov	r17,zero
    3934:	01400044 	movi	r5,1
    3938:	0025883a 	mov	r18,zero
    393c:	38004716 	blt	r7,zero,3a5c <__pack_d+0x2fc>
    3940:	29d6983a 	sll	r11,r5,r7
    3944:	0015883a 	mov	r10,zero
    3948:	00bfffc4 	movi	r2,-1
    394c:	5089883a 	add	r4,r10,r2
    3950:	588b883a 	add	r5,r11,r2
    3954:	228d803a 	cmpltu	r6,r4,r10
    3958:	314b883a 	add	r5,r6,r5
    395c:	4104703a 	and	r2,r8,r4
    3960:	4946703a 	and	r3,r9,r5
    3964:	10c4b03a 	or	r2,r2,r3
    3968:	10000226 	beq	r2,zero,3974 <__pack_d+0x214>
    396c:	04400044 	movi	r17,1
    3970:	0025883a 	mov	r18,zero
    3974:	00803fc4 	movi	r2,255
    3978:	644eb03a 	or	r7,r12,r17
    397c:	3892703a 	and	r9,r7,r2
    3980:	00802004 	movi	r2,128
    3984:	6c90b03a 	or	r8,r13,r18
    3988:	0015883a 	mov	r10,zero
    398c:	48801626 	beq	r9,r2,39e8 <__pack_d+0x288>
    3990:	01001fc4 	movi	r4,127
    3994:	3905883a 	add	r2,r7,r4
    3998:	11cd803a 	cmpltu	r6,r2,r7
    399c:	320d883a 	add	r6,r6,r8
    39a0:	100f883a 	mov	r7,r2
    39a4:	00840034 	movhi	r2,4096
    39a8:	10bfffc4 	addi	r2,r2,-1
    39ac:	3011883a 	mov	r8,r6
    39b0:	0007883a 	mov	r3,zero
    39b4:	11801b36 	bltu	r2,r6,3a24 <__pack_d+0x2c4>
    39b8:	4004963a 	slli	r2,r8,24
    39bc:	3808d23a 	srli	r4,r7,8
    39c0:	400ad23a 	srli	r5,r8,8
    39c4:	1813883a 	mov	r9,r3
    39c8:	1108b03a 	or	r4,r2,r4
    39cc:	00bfffc4 	movi	r2,-1
    39d0:	00c00434 	movhi	r3,16
    39d4:	18ffffc4 	addi	r3,r3,-1
    39d8:	208c703a 	and	r6,r4,r2
    39dc:	28ce703a 	and	r7,r5,r3
    39e0:	4a01ffcc 	andi	r8,r9,2047
    39e4:	003f7206 	br	37b0 <__pack_d+0x50>
    39e8:	503fe91e 	bne	r10,zero,3990 <__pack_d+0x230>
    39ec:	01004004 	movi	r4,256
    39f0:	3904703a 	and	r2,r7,r4
    39f4:	0007883a 	mov	r3,zero
    39f8:	10c4b03a 	or	r2,r2,r3
    39fc:	10000626 	beq	r2,zero,3a18 <__pack_d+0x2b8>
    3a00:	3a45883a 	add	r2,r7,r9
    3a04:	11cd803a 	cmpltu	r6,r2,r7
    3a08:	320d883a 	add	r6,r6,r8
    3a0c:	100f883a 	mov	r7,r2
    3a10:	3011883a 	mov	r8,r6
    3a14:	0007883a 	mov	r3,zero
    3a18:	00840034 	movhi	r2,4096
    3a1c:	10bfffc4 	addi	r2,r2,-1
    3a20:	123fe52e 	bgeu	r2,r8,39b8 <__pack_d+0x258>
    3a24:	00c00044 	movi	r3,1
    3a28:	003fe306 	br	39b8 <__pack_d+0x258>
    3a2c:	0009883a 	mov	r4,zero
    3a30:	0013883a 	mov	r9,zero
    3a34:	000b883a 	mov	r5,zero
    3a38:	003fe406 	br	39cc <__pack_d+0x26c>
    3a3c:	4a47883a 	add	r3,r9,r9
    3a40:	008007c4 	movi	r2,31
    3a44:	1105c83a 	sub	r2,r2,r4
    3a48:	1886983a 	sll	r3,r3,r2
    3a4c:	4118d83a 	srl	r12,r8,r4
    3a50:	491ad83a 	srl	r13,r9,r4
    3a54:	1b18b03a 	or	r12,r3,r12
    3a58:	003fb506 	br	3930 <__pack_d+0x1d0>
    3a5c:	2806d07a 	srli	r3,r5,1
    3a60:	008007c4 	movi	r2,31
    3a64:	1105c83a 	sub	r2,r2,r4
    3a68:	1896d83a 	srl	r11,r3,r2
    3a6c:	2914983a 	sll	r10,r5,r4
    3a70:	003fb506 	br	3948 <__pack_d+0x1e8>

00003a74 <memcpy>:
    3a74:	01c003c4 	movi	r7,15
    3a78:	2007883a 	mov	r3,r4
    3a7c:	3980032e 	bgeu	r7,r6,3a8c <memcpy+0x18>
    3a80:	2904b03a 	or	r2,r5,r4
    3a84:	108000cc 	andi	r2,r2,3
    3a88:	10000926 	beq	r2,zero,3ab0 <memcpy+0x3c>
    3a8c:	30000626 	beq	r6,zero,3aa8 <memcpy+0x34>
    3a90:	30cd883a 	add	r6,r6,r3
    3a94:	28800003 	ldbu	r2,0(r5)
    3a98:	29400044 	addi	r5,r5,1
    3a9c:	18800005 	stb	r2,0(r3)
    3aa0:	18c00044 	addi	r3,r3,1
    3aa4:	30fffb1e 	bne	r6,r3,3a94 <memcpy+0x20>
    3aa8:	2005883a 	mov	r2,r4
    3aac:	f800283a 	ret
    3ab0:	3811883a 	mov	r8,r7
    3ab4:	200f883a 	mov	r7,r4
    3ab8:	28c00017 	ldw	r3,0(r5)
    3abc:	31bffc04 	addi	r6,r6,-16
    3ac0:	38c00015 	stw	r3,0(r7)
    3ac4:	28800117 	ldw	r2,4(r5)
    3ac8:	38800115 	stw	r2,4(r7)
    3acc:	28c00217 	ldw	r3,8(r5)
    3ad0:	38c00215 	stw	r3,8(r7)
    3ad4:	28800317 	ldw	r2,12(r5)
    3ad8:	29400404 	addi	r5,r5,16
    3adc:	38800315 	stw	r2,12(r7)
    3ae0:	39c00404 	addi	r7,r7,16
    3ae4:	41bff436 	bltu	r8,r6,3ab8 <memcpy+0x44>
    3ae8:	008000c4 	movi	r2,3
    3aec:	1180072e 	bgeu	r2,r6,3b0c <memcpy+0x98>
    3af0:	1007883a 	mov	r3,r2
    3af4:	28800017 	ldw	r2,0(r5)
    3af8:	31bfff04 	addi	r6,r6,-4
    3afc:	29400104 	addi	r5,r5,4
    3b00:	38800015 	stw	r2,0(r7)
    3b04:	39c00104 	addi	r7,r7,4
    3b08:	19bffa36 	bltu	r3,r6,3af4 <memcpy+0x80>
    3b0c:	3807883a 	mov	r3,r7
    3b10:	003fde06 	br	3a8c <memcpy+0x18>

00003b14 <memset>:
    3b14:	008000c4 	movi	r2,3
    3b18:	29403fcc 	andi	r5,r5,255
    3b1c:	2007883a 	mov	r3,r4
    3b20:	1180022e 	bgeu	r2,r6,3b2c <memset+0x18>
    3b24:	2084703a 	and	r2,r4,r2
    3b28:	10000826 	beq	r2,zero,3b4c <memset+0x38>
    3b2c:	30000526 	beq	r6,zero,3b44 <memset+0x30>
    3b30:	2805883a 	mov	r2,r5
    3b34:	30cd883a 	add	r6,r6,r3
    3b38:	18800005 	stb	r2,0(r3)
    3b3c:	18c00044 	addi	r3,r3,1
    3b40:	19bffd1e 	bne	r3,r6,3b38 <memset+0x24>
    3b44:	2005883a 	mov	r2,r4
    3b48:	f800283a 	ret
    3b4c:	2804923a 	slli	r2,r5,8
    3b50:	020003c4 	movi	r8,15
    3b54:	200f883a 	mov	r7,r4
    3b58:	2884b03a 	or	r2,r5,r2
    3b5c:	1006943a 	slli	r3,r2,16
    3b60:	10c6b03a 	or	r3,r2,r3
    3b64:	41800a2e 	bgeu	r8,r6,3b90 <memset+0x7c>
    3b68:	4005883a 	mov	r2,r8
    3b6c:	31bffc04 	addi	r6,r6,-16
    3b70:	38c00015 	stw	r3,0(r7)
    3b74:	38c00115 	stw	r3,4(r7)
    3b78:	38c00215 	stw	r3,8(r7)
    3b7c:	38c00315 	stw	r3,12(r7)
    3b80:	39c00404 	addi	r7,r7,16
    3b84:	11bff936 	bltu	r2,r6,3b6c <memset+0x58>
    3b88:	008000c4 	movi	r2,3
    3b8c:	1180052e 	bgeu	r2,r6,3ba4 <memset+0x90>
    3b90:	31bfff04 	addi	r6,r6,-4
    3b94:	008000c4 	movi	r2,3
    3b98:	38c00015 	stw	r3,0(r7)
    3b9c:	39c00104 	addi	r7,r7,4
    3ba0:	11bffb36 	bltu	r2,r6,3b90 <memset+0x7c>
    3ba4:	3807883a 	mov	r3,r7
    3ba8:	003fe006 	br	3b2c <memset+0x18>

00003bac <printf>:
    3bac:	defffb04 	addi	sp,sp,-20
    3bb0:	dfc00115 	stw	ra,4(sp)
    3bb4:	d9400215 	stw	r5,8(sp)
    3bb8:	d9800315 	stw	r6,12(sp)
    3bbc:	d9c00415 	stw	r7,16(sp)
    3bc0:	00800074 	movhi	r2,1
    3bc4:	10981d04 	addi	r2,r2,24692
    3bc8:	10c00017 	ldw	r3,0(r2)
    3bcc:	200b883a 	mov	r5,r4
    3bd0:	d8800204 	addi	r2,sp,8
    3bd4:	19000217 	ldw	r4,8(r3)
    3bd8:	100d883a 	mov	r6,r2
    3bdc:	d8800015 	stw	r2,0(sp)
    3be0:	0005b280 	call	5b28 <__vfprintf_internal>
    3be4:	dfc00117 	ldw	ra,4(sp)
    3be8:	dec00504 	addi	sp,sp,20
    3bec:	f800283a 	ret

00003bf0 <_printf_r>:
    3bf0:	defffc04 	addi	sp,sp,-16
    3bf4:	dfc00115 	stw	ra,4(sp)
    3bf8:	d9800215 	stw	r6,8(sp)
    3bfc:	d9c00315 	stw	r7,12(sp)
    3c00:	280d883a 	mov	r6,r5
    3c04:	21400217 	ldw	r5,8(r4)
    3c08:	d8c00204 	addi	r3,sp,8
    3c0c:	180f883a 	mov	r7,r3
    3c10:	d8c00015 	stw	r3,0(sp)
    3c14:	0003c7c0 	call	3c7c <___vfprintf_internal_r>
    3c18:	dfc00117 	ldw	ra,4(sp)
    3c1c:	dec00404 	addi	sp,sp,16
    3c20:	f800283a 	ret

00003c24 <__sprint_r>:
    3c24:	30800217 	ldw	r2,8(r6)
    3c28:	defffe04 	addi	sp,sp,-8
    3c2c:	dc000015 	stw	r16,0(sp)
    3c30:	dfc00115 	stw	ra,4(sp)
    3c34:	3021883a 	mov	r16,r6
    3c38:	0007883a 	mov	r3,zero
    3c3c:	1000061e 	bne	r2,zero,3c58 <__sprint_r+0x34>
    3c40:	1805883a 	mov	r2,r3
    3c44:	30000115 	stw	zero,4(r6)
    3c48:	dfc00117 	ldw	ra,4(sp)
    3c4c:	dc000017 	ldw	r16,0(sp)
    3c50:	dec00204 	addi	sp,sp,8
    3c54:	f800283a 	ret
    3c58:	0007d840 	call	7d84 <__sfvwrite_r>
    3c5c:	1007883a 	mov	r3,r2
    3c60:	1805883a 	mov	r2,r3
    3c64:	80000115 	stw	zero,4(r16)
    3c68:	80000215 	stw	zero,8(r16)
    3c6c:	dfc00117 	ldw	ra,4(sp)
    3c70:	dc000017 	ldw	r16,0(sp)
    3c74:	dec00204 	addi	sp,sp,8
    3c78:	f800283a 	ret

00003c7c <___vfprintf_internal_r>:
    3c7c:	defea404 	addi	sp,sp,-1392
    3c80:	dd815815 	stw	r22,1376(sp)
    3c84:	dc015215 	stw	r16,1352(sp)
    3c88:	d9c15115 	stw	r7,1348(sp)
    3c8c:	dfc15b15 	stw	ra,1388(sp)
    3c90:	df015a15 	stw	fp,1384(sp)
    3c94:	ddc15915 	stw	r23,1380(sp)
    3c98:	dd415715 	stw	r21,1372(sp)
    3c9c:	dd015615 	stw	r20,1368(sp)
    3ca0:	dcc15515 	stw	r19,1364(sp)
    3ca4:	dc815415 	stw	r18,1360(sp)
    3ca8:	dc415315 	stw	r17,1356(sp)
    3cac:	282d883a 	mov	r22,r5
    3cb0:	3021883a 	mov	r16,r6
    3cb4:	d9014f15 	stw	r4,1340(sp)
    3cb8:	00083a80 	call	83a8 <_localeconv_r>
    3cbc:	10800017 	ldw	r2,0(r2)
    3cc0:	d9c15117 	ldw	r7,1348(sp)
    3cc4:	d8814915 	stw	r2,1316(sp)
    3cc8:	d8814f17 	ldw	r2,1340(sp)
    3ccc:	10000226 	beq	r2,zero,3cd8 <___vfprintf_internal_r+0x5c>
    3cd0:	10800e17 	ldw	r2,56(r2)
    3cd4:	10020d26 	beq	r2,zero,450c <___vfprintf_internal_r+0x890>
    3cd8:	b080030b 	ldhu	r2,12(r22)
    3cdc:	1080020c 	andi	r2,r2,8
    3ce0:	10020e26 	beq	r2,zero,451c <___vfprintf_internal_r+0x8a0>
    3ce4:	b0800417 	ldw	r2,16(r22)
    3ce8:	10020c26 	beq	r2,zero,451c <___vfprintf_internal_r+0x8a0>
    3cec:	b200030b 	ldhu	r8,12(r22)
    3cf0:	00800284 	movi	r2,10
    3cf4:	40c0068c 	andi	r3,r8,26
    3cf8:	18802f1e 	bne	r3,r2,3db8 <___vfprintf_internal_r+0x13c>
    3cfc:	b080038f 	ldh	r2,14(r22)
    3d00:	10002d16 	blt	r2,zero,3db8 <___vfprintf_internal_r+0x13c>
    3d04:	b240038b 	ldhu	r9,14(r22)
    3d08:	b2800717 	ldw	r10,28(r22)
    3d0c:	b2c00917 	ldw	r11,36(r22)
    3d10:	d9014f17 	ldw	r4,1340(sp)
    3d14:	dc402904 	addi	r17,sp,164
    3d18:	d8804004 	addi	r2,sp,256
    3d1c:	00c10004 	movi	r3,1024
    3d20:	423fff4c 	andi	r8,r8,65533
    3d24:	800d883a 	mov	r6,r16
    3d28:	880b883a 	mov	r5,r17
    3d2c:	da002c0d 	sth	r8,176(sp)
    3d30:	da402c8d 	sth	r9,178(sp)
    3d34:	da803015 	stw	r10,192(sp)
    3d38:	dac03215 	stw	r11,200(sp)
    3d3c:	d8802d15 	stw	r2,180(sp)
    3d40:	d8c02e15 	stw	r3,184(sp)
    3d44:	d8802915 	stw	r2,164(sp)
    3d48:	d8c02b15 	stw	r3,172(sp)
    3d4c:	d8002f15 	stw	zero,188(sp)
    3d50:	0003c7c0 	call	3c7c <___vfprintf_internal_r>
    3d54:	d8814b15 	stw	r2,1324(sp)
    3d58:	10000416 	blt	r2,zero,3d6c <___vfprintf_internal_r+0xf0>
    3d5c:	d9014f17 	ldw	r4,1340(sp)
    3d60:	880b883a 	mov	r5,r17
    3d64:	00074540 	call	7454 <_fflush_r>
    3d68:	1002321e 	bne	r2,zero,4634 <___vfprintf_internal_r+0x9b8>
    3d6c:	d8802c0b 	ldhu	r2,176(sp)
    3d70:	1080100c 	andi	r2,r2,64
    3d74:	10000326 	beq	r2,zero,3d84 <___vfprintf_internal_r+0x108>
    3d78:	b080030b 	ldhu	r2,12(r22)
    3d7c:	10801014 	ori	r2,r2,64
    3d80:	b080030d 	sth	r2,12(r22)
    3d84:	d8814b17 	ldw	r2,1324(sp)
    3d88:	dfc15b17 	ldw	ra,1388(sp)
    3d8c:	df015a17 	ldw	fp,1384(sp)
    3d90:	ddc15917 	ldw	r23,1380(sp)
    3d94:	dd815817 	ldw	r22,1376(sp)
    3d98:	dd415717 	ldw	r21,1372(sp)
    3d9c:	dd015617 	ldw	r20,1368(sp)
    3da0:	dcc15517 	ldw	r19,1364(sp)
    3da4:	dc815417 	ldw	r18,1360(sp)
    3da8:	dc415317 	ldw	r17,1356(sp)
    3dac:	dc015217 	ldw	r16,1352(sp)
    3db0:	dec15c04 	addi	sp,sp,1392
    3db4:	f800283a 	ret
    3db8:	0005883a 	mov	r2,zero
    3dbc:	0007883a 	mov	r3,zero
    3dc0:	dd401904 	addi	r21,sp,100
    3dc4:	d8814215 	stw	r2,1288(sp)
    3dc8:	802f883a 	mov	r23,r16
    3dcc:	d8c14315 	stw	r3,1292(sp)
    3dd0:	d8014b15 	stw	zero,1324(sp)
    3dd4:	d8014815 	stw	zero,1312(sp)
    3dd8:	d8014415 	stw	zero,1296(sp)
    3ddc:	d8014715 	stw	zero,1308(sp)
    3de0:	dd400c15 	stw	r21,48(sp)
    3de4:	d8000e15 	stw	zero,56(sp)
    3de8:	d8000d15 	stw	zero,52(sp)
    3dec:	b8800007 	ldb	r2,0(r23)
    3df0:	10001926 	beq	r2,zero,3e58 <___vfprintf_internal_r+0x1dc>
    3df4:	00c00944 	movi	r3,37
    3df8:	10c01726 	beq	r2,r3,3e58 <___vfprintf_internal_r+0x1dc>
    3dfc:	b821883a 	mov	r16,r23
    3e00:	00000106 	br	3e08 <___vfprintf_internal_r+0x18c>
    3e04:	10c00326 	beq	r2,r3,3e14 <___vfprintf_internal_r+0x198>
    3e08:	84000044 	addi	r16,r16,1
    3e0c:	80800007 	ldb	r2,0(r16)
    3e10:	103ffc1e 	bne	r2,zero,3e04 <___vfprintf_internal_r+0x188>
    3e14:	85e7c83a 	sub	r19,r16,r23
    3e18:	98000e26 	beq	r19,zero,3e54 <___vfprintf_internal_r+0x1d8>
    3e1c:	dc800e17 	ldw	r18,56(sp)
    3e20:	dc400d17 	ldw	r17,52(sp)
    3e24:	008001c4 	movi	r2,7
    3e28:	94e5883a 	add	r18,r18,r19
    3e2c:	8c400044 	addi	r17,r17,1
    3e30:	adc00015 	stw	r23,0(r21)
    3e34:	dc800e15 	stw	r18,56(sp)
    3e38:	acc00115 	stw	r19,4(r21)
    3e3c:	dc400d15 	stw	r17,52(sp)
    3e40:	14428b16 	blt	r2,r17,4870 <___vfprintf_internal_r+0xbf4>
    3e44:	ad400204 	addi	r21,r21,8
    3e48:	d9014b17 	ldw	r4,1324(sp)
    3e4c:	24c9883a 	add	r4,r4,r19
    3e50:	d9014b15 	stw	r4,1324(sp)
    3e54:	802f883a 	mov	r23,r16
    3e58:	b8800007 	ldb	r2,0(r23)
    3e5c:	10013c26 	beq	r2,zero,4350 <___vfprintf_internal_r+0x6d4>
    3e60:	bdc00044 	addi	r23,r23,1
    3e64:	d8000405 	stb	zero,16(sp)
    3e68:	b8c00007 	ldb	r3,0(r23)
    3e6c:	04ffffc4 	movi	r19,-1
    3e70:	d8014c15 	stw	zero,1328(sp)
    3e74:	d8014a15 	stw	zero,1320(sp)
    3e78:	d8c14d15 	stw	r3,1332(sp)
    3e7c:	bdc00044 	addi	r23,r23,1
    3e80:	d9414d17 	ldw	r5,1332(sp)
    3e84:	00801604 	movi	r2,88
    3e88:	28fff804 	addi	r3,r5,-32
    3e8c:	10c06036 	bltu	r2,r3,4010 <___vfprintf_internal_r+0x394>
    3e90:	18c5883a 	add	r2,r3,r3
    3e94:	1085883a 	add	r2,r2,r2
    3e98:	00c00034 	movhi	r3,0
    3e9c:	18cfab04 	addi	r3,r3,16044
    3ea0:	10c5883a 	add	r2,r2,r3
    3ea4:	11000017 	ldw	r4,0(r2)
    3ea8:	2000683a 	jmp	r4
    3eac:	00004e20 	cmpeqi	zero,zero,312
    3eb0:	00004010 	cmplti	zero,zero,256
    3eb4:	00004010 	cmplti	zero,zero,256
    3eb8:	00004e0c 	andi	zero,zero,312
    3ebc:	00004010 	cmplti	zero,zero,256
    3ec0:	00004010 	cmplti	zero,zero,256
    3ec4:	00004010 	cmplti	zero,zero,256
    3ec8:	00004010 	cmplti	zero,zero,256
    3ecc:	00004010 	cmplti	zero,zero,256
    3ed0:	00004010 	cmplti	zero,zero,256
    3ed4:	00004bec 	andhi	zero,zero,303
    3ed8:	00004dfc 	xorhi	zero,zero,311
    3edc:	00004010 	cmplti	zero,zero,256
    3ee0:	00004c04 	movi	zero,304
    3ee4:	00004e98 	cmpnei	zero,zero,314
    3ee8:	00004010 	cmplti	zero,zero,256
    3eec:	00004e84 	movi	zero,314
    3ef0:	00004e4c 	andi	zero,zero,313
    3ef4:	00004e4c 	andi	zero,zero,313
    3ef8:	00004e4c 	andi	zero,zero,313
    3efc:	00004e4c 	andi	zero,zero,313
    3f00:	00004e4c 	andi	zero,zero,313
    3f04:	00004e4c 	andi	zero,zero,313
    3f08:	00004e4c 	andi	zero,zero,313
    3f0c:	00004e4c 	andi	zero,zero,313
    3f10:	00004e4c 	andi	zero,zero,313
    3f14:	00004010 	cmplti	zero,zero,256
    3f18:	00004010 	cmplti	zero,zero,256
    3f1c:	00004010 	cmplti	zero,zero,256
    3f20:	00004010 	cmplti	zero,zero,256
    3f24:	00004010 	cmplti	zero,zero,256
    3f28:	00004010 	cmplti	zero,zero,256
    3f2c:	00004010 	cmplti	zero,zero,256
    3f30:	00004010 	cmplti	zero,zero,256
    3f34:	00004010 	cmplti	zero,zero,256
    3f38:	00004010 	cmplti	zero,zero,256
    3f3c:	00004668 	cmpgeui	zero,zero,281
    3f40:	00004cd4 	movui	zero,307
    3f44:	00004010 	cmplti	zero,zero,256
    3f48:	00004cd4 	movui	zero,307
    3f4c:	00004010 	cmplti	zero,zero,256
    3f50:	00004010 	cmplti	zero,zero,256
    3f54:	00004010 	cmplti	zero,zero,256
    3f58:	00004010 	cmplti	zero,zero,256
    3f5c:	00004e38 	rdprs	zero,zero,312
    3f60:	00004010 	cmplti	zero,zero,256
    3f64:	00004010 	cmplti	zero,zero,256
    3f68:	0000471c 	xori	zero,zero,284
    3f6c:	00004010 	cmplti	zero,zero,256
    3f70:	00004010 	cmplti	zero,zero,256
    3f74:	00004010 	cmplti	zero,zero,256
    3f78:	00004010 	cmplti	zero,zero,256
    3f7c:	00004010 	cmplti	zero,zero,256
    3f80:	00004768 	cmpgeui	zero,zero,285
    3f84:	00004010 	cmplti	zero,zero,256
    3f88:	00004010 	cmplti	zero,zero,256
    3f8c:	00004d88 	cmpgei	zero,zero,310
    3f90:	00004010 	cmplti	zero,zero,256
    3f94:	00004010 	cmplti	zero,zero,256
    3f98:	00004010 	cmplti	zero,zero,256
    3f9c:	00004010 	cmplti	zero,zero,256
    3fa0:	00004010 	cmplti	zero,zero,256
    3fa4:	00004010 	cmplti	zero,zero,256
    3fa8:	00004010 	cmplti	zero,zero,256
    3fac:	00004010 	cmplti	zero,zero,256
    3fb0:	00004010 	cmplti	zero,zero,256
    3fb4:	00004010 	cmplti	zero,zero,256
    3fb8:	00004d5c 	xori	zero,zero,309
    3fbc:	00004674 	movhi	zero,281
    3fc0:	00004cd4 	movui	zero,307
    3fc4:	00004cd4 	movui	zero,307
    3fc8:	00004cd4 	movui	zero,307
    3fcc:	00004cc0 	call	4cc <amplitude_circute_set_num+0x34>
    3fd0:	00004674 	movhi	zero,281
    3fd4:	00004010 	cmplti	zero,zero,256
    3fd8:	00004010 	cmplti	zero,zero,256
    3fdc:	00004c48 	cmpgei	zero,zero,305
    3fe0:	00004010 	cmplti	zero,zero,256
    3fe4:	00004c18 	cmpnei	zero,zero,304
    3fe8:	00004728 	cmpgeui	zero,zero,284
    3fec:	00004c78 	rdprs	zero,zero,305
    3ff0:	00004c64 	muli	zero,zero,305
    3ff4:	00004010 	cmplti	zero,zero,256
    3ff8:	00004ef4 	movhi	zero,315
    3ffc:	00004010 	cmplti	zero,zero,256
    4000:	00004774 	movhi	zero,285
    4004:	00004010 	cmplti	zero,zero,256
    4008:	00004010 	cmplti	zero,zero,256
    400c:	00004dec 	andhi	zero,zero,311
    4010:	d9014d17 	ldw	r4,1332(sp)
    4014:	2000ce26 	beq	r4,zero,4350 <___vfprintf_internal_r+0x6d4>
    4018:	01400044 	movi	r5,1
    401c:	d9800f04 	addi	r6,sp,60
    4020:	d9c14015 	stw	r7,1280(sp)
    4024:	d9414515 	stw	r5,1300(sp)
    4028:	d9814115 	stw	r6,1284(sp)
    402c:	280f883a 	mov	r7,r5
    4030:	d9000f05 	stb	r4,60(sp)
    4034:	d8000405 	stb	zero,16(sp)
    4038:	d8014615 	stw	zero,1304(sp)
    403c:	d8c14c17 	ldw	r3,1328(sp)
    4040:	1880008c 	andi	r2,r3,2
    4044:	1005003a 	cmpeq	r2,r2,zero
    4048:	d8815015 	stw	r2,1344(sp)
    404c:	1000031e 	bne	r2,zero,405c <___vfprintf_internal_r+0x3e0>
    4050:	d9014517 	ldw	r4,1300(sp)
    4054:	21000084 	addi	r4,r4,2
    4058:	d9014515 	stw	r4,1300(sp)
    405c:	d9414c17 	ldw	r5,1328(sp)
    4060:	2940210c 	andi	r5,r5,132
    4064:	d9414e15 	stw	r5,1336(sp)
    4068:	28002d1e 	bne	r5,zero,4120 <___vfprintf_internal_r+0x4a4>
    406c:	d9814a17 	ldw	r6,1320(sp)
    4070:	d8814517 	ldw	r2,1300(sp)
    4074:	30a1c83a 	sub	r16,r6,r2
    4078:	0400290e 	bge	zero,r16,4120 <___vfprintf_internal_r+0x4a4>
    407c:	00800404 	movi	r2,16
    4080:	1404580e 	bge	r2,r16,51e4 <___vfprintf_internal_r+0x1568>
    4084:	dc800e17 	ldw	r18,56(sp)
    4088:	dc400d17 	ldw	r17,52(sp)
    408c:	1027883a 	mov	r19,r2
    4090:	07000074 	movhi	fp,1
    4094:	e70f3484 	addi	fp,fp,15570
    4098:	050001c4 	movi	r20,7
    409c:	00000306 	br	40ac <___vfprintf_internal_r+0x430>
    40a0:	843ffc04 	addi	r16,r16,-16
    40a4:	ad400204 	addi	r21,r21,8
    40a8:	9c00130e 	bge	r19,r16,40f8 <___vfprintf_internal_r+0x47c>
    40ac:	94800404 	addi	r18,r18,16
    40b0:	8c400044 	addi	r17,r17,1
    40b4:	af000015 	stw	fp,0(r21)
    40b8:	acc00115 	stw	r19,4(r21)
    40bc:	dc800e15 	stw	r18,56(sp)
    40c0:	dc400d15 	stw	r17,52(sp)
    40c4:	a47ff60e 	bge	r20,r17,40a0 <___vfprintf_internal_r+0x424>
    40c8:	d9014f17 	ldw	r4,1340(sp)
    40cc:	b00b883a 	mov	r5,r22
    40d0:	d9800c04 	addi	r6,sp,48
    40d4:	d9c15115 	stw	r7,1348(sp)
    40d8:	0003c240 	call	3c24 <__sprint_r>
    40dc:	d9c15117 	ldw	r7,1348(sp)
    40e0:	10009e1e 	bne	r2,zero,435c <___vfprintf_internal_r+0x6e0>
    40e4:	843ffc04 	addi	r16,r16,-16
    40e8:	dc800e17 	ldw	r18,56(sp)
    40ec:	dc400d17 	ldw	r17,52(sp)
    40f0:	dd401904 	addi	r21,sp,100
    40f4:	9c3fed16 	blt	r19,r16,40ac <___vfprintf_internal_r+0x430>
    40f8:	9425883a 	add	r18,r18,r16
    40fc:	8c400044 	addi	r17,r17,1
    4100:	008001c4 	movi	r2,7
    4104:	af000015 	stw	fp,0(r21)
    4108:	ac000115 	stw	r16,4(r21)
    410c:	dc800e15 	stw	r18,56(sp)
    4110:	dc400d15 	stw	r17,52(sp)
    4114:	1441f516 	blt	r2,r17,48ec <___vfprintf_internal_r+0xc70>
    4118:	ad400204 	addi	r21,r21,8
    411c:	00000206 	br	4128 <___vfprintf_internal_r+0x4ac>
    4120:	dc800e17 	ldw	r18,56(sp)
    4124:	dc400d17 	ldw	r17,52(sp)
    4128:	d8800407 	ldb	r2,16(sp)
    412c:	10000b26 	beq	r2,zero,415c <___vfprintf_internal_r+0x4e0>
    4130:	00800044 	movi	r2,1
    4134:	94800044 	addi	r18,r18,1
    4138:	8c400044 	addi	r17,r17,1
    413c:	a8800115 	stw	r2,4(r21)
    4140:	d8c00404 	addi	r3,sp,16
    4144:	008001c4 	movi	r2,7
    4148:	a8c00015 	stw	r3,0(r21)
    414c:	dc800e15 	stw	r18,56(sp)
    4150:	dc400d15 	stw	r17,52(sp)
    4154:	1441da16 	blt	r2,r17,48c0 <___vfprintf_internal_r+0xc44>
    4158:	ad400204 	addi	r21,r21,8
    415c:	d9015017 	ldw	r4,1344(sp)
    4160:	20000b1e 	bne	r4,zero,4190 <___vfprintf_internal_r+0x514>
    4164:	d8800444 	addi	r2,sp,17
    4168:	94800084 	addi	r18,r18,2
    416c:	8c400044 	addi	r17,r17,1
    4170:	a8800015 	stw	r2,0(r21)
    4174:	00c00084 	movi	r3,2
    4178:	008001c4 	movi	r2,7
    417c:	a8c00115 	stw	r3,4(r21)
    4180:	dc800e15 	stw	r18,56(sp)
    4184:	dc400d15 	stw	r17,52(sp)
    4188:	1441c216 	blt	r2,r17,4894 <___vfprintf_internal_r+0xc18>
    418c:	ad400204 	addi	r21,r21,8
    4190:	d9414e17 	ldw	r5,1336(sp)
    4194:	00802004 	movi	r2,128
    4198:	2880b126 	beq	r5,r2,4460 <___vfprintf_internal_r+0x7e4>
    419c:	d8c14617 	ldw	r3,1304(sp)
    41a0:	19e1c83a 	sub	r16,r3,r7
    41a4:	0400260e 	bge	zero,r16,4240 <___vfprintf_internal_r+0x5c4>
    41a8:	00800404 	movi	r2,16
    41ac:	1403c90e 	bge	r2,r16,50d4 <___vfprintf_internal_r+0x1458>
    41b0:	1027883a 	mov	r19,r2
    41b4:	07000074 	movhi	fp,1
    41b8:	e70f3084 	addi	fp,fp,15554
    41bc:	050001c4 	movi	r20,7
    41c0:	00000306 	br	41d0 <___vfprintf_internal_r+0x554>
    41c4:	843ffc04 	addi	r16,r16,-16
    41c8:	ad400204 	addi	r21,r21,8
    41cc:	9c00130e 	bge	r19,r16,421c <___vfprintf_internal_r+0x5a0>
    41d0:	94800404 	addi	r18,r18,16
    41d4:	8c400044 	addi	r17,r17,1
    41d8:	af000015 	stw	fp,0(r21)
    41dc:	acc00115 	stw	r19,4(r21)
    41e0:	dc800e15 	stw	r18,56(sp)
    41e4:	dc400d15 	stw	r17,52(sp)
    41e8:	a47ff60e 	bge	r20,r17,41c4 <___vfprintf_internal_r+0x548>
    41ec:	d9014f17 	ldw	r4,1340(sp)
    41f0:	b00b883a 	mov	r5,r22
    41f4:	d9800c04 	addi	r6,sp,48
    41f8:	d9c15115 	stw	r7,1348(sp)
    41fc:	0003c240 	call	3c24 <__sprint_r>
    4200:	d9c15117 	ldw	r7,1348(sp)
    4204:	1000551e 	bne	r2,zero,435c <___vfprintf_internal_r+0x6e0>
    4208:	843ffc04 	addi	r16,r16,-16
    420c:	dc800e17 	ldw	r18,56(sp)
    4210:	dc400d17 	ldw	r17,52(sp)
    4214:	dd401904 	addi	r21,sp,100
    4218:	9c3fed16 	blt	r19,r16,41d0 <___vfprintf_internal_r+0x554>
    421c:	9425883a 	add	r18,r18,r16
    4220:	8c400044 	addi	r17,r17,1
    4224:	008001c4 	movi	r2,7
    4228:	af000015 	stw	fp,0(r21)
    422c:	ac000115 	stw	r16,4(r21)
    4230:	dc800e15 	stw	r18,56(sp)
    4234:	dc400d15 	stw	r17,52(sp)
    4238:	14418216 	blt	r2,r17,4844 <___vfprintf_internal_r+0xbc8>
    423c:	ad400204 	addi	r21,r21,8
    4240:	d9014c17 	ldw	r4,1328(sp)
    4244:	2080400c 	andi	r2,r4,256
    4248:	10004a1e 	bne	r2,zero,4374 <___vfprintf_internal_r+0x6f8>
    424c:	d9414117 	ldw	r5,1284(sp)
    4250:	91e5883a 	add	r18,r18,r7
    4254:	8c400044 	addi	r17,r17,1
    4258:	008001c4 	movi	r2,7
    425c:	a9400015 	stw	r5,0(r21)
    4260:	a9c00115 	stw	r7,4(r21)
    4264:	dc800e15 	stw	r18,56(sp)
    4268:	dc400d15 	stw	r17,52(sp)
    426c:	14416716 	blt	r2,r17,480c <___vfprintf_internal_r+0xb90>
    4270:	a8c00204 	addi	r3,r21,8
    4274:	d9814c17 	ldw	r6,1328(sp)
    4278:	3080010c 	andi	r2,r6,4
    427c:	10002826 	beq	r2,zero,4320 <___vfprintf_internal_r+0x6a4>
    4280:	d8814a17 	ldw	r2,1320(sp)
    4284:	d9014517 	ldw	r4,1300(sp)
    4288:	1121c83a 	sub	r16,r2,r4
    428c:	0400240e 	bge	zero,r16,4320 <___vfprintf_internal_r+0x6a4>
    4290:	00800404 	movi	r2,16
    4294:	14044f0e 	bge	r2,r16,53d4 <___vfprintf_internal_r+0x1758>
    4298:	dc400d17 	ldw	r17,52(sp)
    429c:	1027883a 	mov	r19,r2
    42a0:	07000074 	movhi	fp,1
    42a4:	e70f3484 	addi	fp,fp,15570
    42a8:	050001c4 	movi	r20,7
    42ac:	00000306 	br	42bc <___vfprintf_internal_r+0x640>
    42b0:	843ffc04 	addi	r16,r16,-16
    42b4:	18c00204 	addi	r3,r3,8
    42b8:	9c00110e 	bge	r19,r16,4300 <___vfprintf_internal_r+0x684>
    42bc:	94800404 	addi	r18,r18,16
    42c0:	8c400044 	addi	r17,r17,1
    42c4:	1f000015 	stw	fp,0(r3)
    42c8:	1cc00115 	stw	r19,4(r3)
    42cc:	dc800e15 	stw	r18,56(sp)
    42d0:	dc400d15 	stw	r17,52(sp)
    42d4:	a47ff60e 	bge	r20,r17,42b0 <___vfprintf_internal_r+0x634>
    42d8:	d9014f17 	ldw	r4,1340(sp)
    42dc:	b00b883a 	mov	r5,r22
    42e0:	d9800c04 	addi	r6,sp,48
    42e4:	0003c240 	call	3c24 <__sprint_r>
    42e8:	10001c1e 	bne	r2,zero,435c <___vfprintf_internal_r+0x6e0>
    42ec:	843ffc04 	addi	r16,r16,-16
    42f0:	dc800e17 	ldw	r18,56(sp)
    42f4:	dc400d17 	ldw	r17,52(sp)
    42f8:	d8c01904 	addi	r3,sp,100
    42fc:	9c3fef16 	blt	r19,r16,42bc <___vfprintf_internal_r+0x640>
    4300:	9425883a 	add	r18,r18,r16
    4304:	8c400044 	addi	r17,r17,1
    4308:	008001c4 	movi	r2,7
    430c:	1f000015 	stw	fp,0(r3)
    4310:	1c000115 	stw	r16,4(r3)
    4314:	dc800e15 	stw	r18,56(sp)
    4318:	dc400d15 	stw	r17,52(sp)
    431c:	1440cb16 	blt	r2,r17,464c <___vfprintf_internal_r+0x9d0>
    4320:	d8814a17 	ldw	r2,1320(sp)
    4324:	d9414517 	ldw	r5,1300(sp)
    4328:	1140010e 	bge	r2,r5,4330 <___vfprintf_internal_r+0x6b4>
    432c:	2805883a 	mov	r2,r5
    4330:	d9814b17 	ldw	r6,1324(sp)
    4334:	308d883a 	add	r6,r6,r2
    4338:	d9814b15 	stw	r6,1324(sp)
    433c:	90013b1e 	bne	r18,zero,482c <___vfprintf_internal_r+0xbb0>
    4340:	d9c14017 	ldw	r7,1280(sp)
    4344:	dd401904 	addi	r21,sp,100
    4348:	d8000d15 	stw	zero,52(sp)
    434c:	003ea706 	br	3dec <___vfprintf_internal_r+0x170>
    4350:	d8800e17 	ldw	r2,56(sp)
    4354:	10053f1e 	bne	r2,zero,5854 <___vfprintf_internal_r+0x1bd8>
    4358:	d8000d15 	stw	zero,52(sp)
    435c:	b080030b 	ldhu	r2,12(r22)
    4360:	1080100c 	andi	r2,r2,64
    4364:	103e8726 	beq	r2,zero,3d84 <___vfprintf_internal_r+0x108>
    4368:	00bfffc4 	movi	r2,-1
    436c:	d8814b15 	stw	r2,1324(sp)
    4370:	003e8406 	br	3d84 <___vfprintf_internal_r+0x108>
    4374:	d9814d17 	ldw	r6,1332(sp)
    4378:	00801944 	movi	r2,101
    437c:	11806e16 	blt	r2,r6,4538 <___vfprintf_internal_r+0x8bc>
    4380:	d9414717 	ldw	r5,1308(sp)
    4384:	00c00044 	movi	r3,1
    4388:	1943430e 	bge	r3,r5,5098 <___vfprintf_internal_r+0x141c>
    438c:	d8814117 	ldw	r2,1284(sp)
    4390:	94800044 	addi	r18,r18,1
    4394:	8c400044 	addi	r17,r17,1
    4398:	a8800015 	stw	r2,0(r21)
    439c:	008001c4 	movi	r2,7
    43a0:	a8c00115 	stw	r3,4(r21)
    43a4:	dc800e15 	stw	r18,56(sp)
    43a8:	dc400d15 	stw	r17,52(sp)
    43ac:	1441ca16 	blt	r2,r17,4ad8 <___vfprintf_internal_r+0xe5c>
    43b0:	a8c00204 	addi	r3,r21,8
    43b4:	d9014917 	ldw	r4,1316(sp)
    43b8:	00800044 	movi	r2,1
    43bc:	94800044 	addi	r18,r18,1
    43c0:	8c400044 	addi	r17,r17,1
    43c4:	18800115 	stw	r2,4(r3)
    43c8:	008001c4 	movi	r2,7
    43cc:	19000015 	stw	r4,0(r3)
    43d0:	dc800e15 	stw	r18,56(sp)
    43d4:	dc400d15 	stw	r17,52(sp)
    43d8:	1441b616 	blt	r2,r17,4ab4 <___vfprintf_internal_r+0xe38>
    43dc:	1cc00204 	addi	r19,r3,8
    43e0:	d9014217 	ldw	r4,1288(sp)
    43e4:	d9414317 	ldw	r5,1292(sp)
    43e8:	000d883a 	mov	r6,zero
    43ec:	000f883a 	mov	r7,zero
    43f0:	000c4080 	call	c408 <__nedf2>
    43f4:	10017426 	beq	r2,zero,49c8 <___vfprintf_internal_r+0xd4c>
    43f8:	d9414717 	ldw	r5,1308(sp)
    43fc:	d9814117 	ldw	r6,1284(sp)
    4400:	8c400044 	addi	r17,r17,1
    4404:	2c85883a 	add	r2,r5,r18
    4408:	14bfffc4 	addi	r18,r2,-1
    440c:	28bfffc4 	addi	r2,r5,-1
    4410:	30c00044 	addi	r3,r6,1
    4414:	98800115 	stw	r2,4(r19)
    4418:	008001c4 	movi	r2,7
    441c:	98c00015 	stw	r3,0(r19)
    4420:	dc800e15 	stw	r18,56(sp)
    4424:	dc400d15 	stw	r17,52(sp)
    4428:	14418e16 	blt	r2,r17,4a64 <___vfprintf_internal_r+0xde8>
    442c:	9cc00204 	addi	r19,r19,8
    4430:	d9414817 	ldw	r5,1312(sp)
    4434:	d8800804 	addi	r2,sp,32
    4438:	8c400044 	addi	r17,r17,1
    443c:	9165883a 	add	r18,r18,r5
    4440:	98800015 	stw	r2,0(r19)
    4444:	008001c4 	movi	r2,7
    4448:	99400115 	stw	r5,4(r19)
    444c:	dc800e15 	stw	r18,56(sp)
    4450:	dc400d15 	stw	r17,52(sp)
    4454:	1440ed16 	blt	r2,r17,480c <___vfprintf_internal_r+0xb90>
    4458:	98c00204 	addi	r3,r19,8
    445c:	003f8506 	br	4274 <___vfprintf_internal_r+0x5f8>
    4460:	d9814a17 	ldw	r6,1320(sp)
    4464:	d8814517 	ldw	r2,1300(sp)
    4468:	30a1c83a 	sub	r16,r6,r2
    446c:	043f4b0e 	bge	zero,r16,419c <___vfprintf_internal_r+0x520>
    4470:	00800404 	movi	r2,16
    4474:	1404340e 	bge	r2,r16,5548 <___vfprintf_internal_r+0x18cc>
    4478:	1027883a 	mov	r19,r2
    447c:	07000074 	movhi	fp,1
    4480:	e70f3084 	addi	fp,fp,15554
    4484:	050001c4 	movi	r20,7
    4488:	00000306 	br	4498 <___vfprintf_internal_r+0x81c>
    448c:	843ffc04 	addi	r16,r16,-16
    4490:	ad400204 	addi	r21,r21,8
    4494:	9c00130e 	bge	r19,r16,44e4 <___vfprintf_internal_r+0x868>
    4498:	94800404 	addi	r18,r18,16
    449c:	8c400044 	addi	r17,r17,1
    44a0:	af000015 	stw	fp,0(r21)
    44a4:	acc00115 	stw	r19,4(r21)
    44a8:	dc800e15 	stw	r18,56(sp)
    44ac:	dc400d15 	stw	r17,52(sp)
    44b0:	a47ff60e 	bge	r20,r17,448c <___vfprintf_internal_r+0x810>
    44b4:	d9014f17 	ldw	r4,1340(sp)
    44b8:	b00b883a 	mov	r5,r22
    44bc:	d9800c04 	addi	r6,sp,48
    44c0:	d9c15115 	stw	r7,1348(sp)
    44c4:	0003c240 	call	3c24 <__sprint_r>
    44c8:	d9c15117 	ldw	r7,1348(sp)
    44cc:	103fa31e 	bne	r2,zero,435c <___vfprintf_internal_r+0x6e0>
    44d0:	843ffc04 	addi	r16,r16,-16
    44d4:	dc800e17 	ldw	r18,56(sp)
    44d8:	dc400d17 	ldw	r17,52(sp)
    44dc:	dd401904 	addi	r21,sp,100
    44e0:	9c3fed16 	blt	r19,r16,4498 <___vfprintf_internal_r+0x81c>
    44e4:	9425883a 	add	r18,r18,r16
    44e8:	8c400044 	addi	r17,r17,1
    44ec:	008001c4 	movi	r2,7
    44f0:	af000015 	stw	fp,0(r21)
    44f4:	ac000115 	stw	r16,4(r21)
    44f8:	dc800e15 	stw	r18,56(sp)
    44fc:	dc400d15 	stw	r17,52(sp)
    4500:	14416116 	blt	r2,r17,4a88 <___vfprintf_internal_r+0xe0c>
    4504:	ad400204 	addi	r21,r21,8
    4508:	003f2406 	br	419c <___vfprintf_internal_r+0x520>
    450c:	d9014f17 	ldw	r4,1340(sp)
    4510:	00076ec0 	call	76ec <__sinit>
    4514:	d9c15117 	ldw	r7,1348(sp)
    4518:	003def06 	br	3cd8 <___vfprintf_internal_r+0x5c>
    451c:	d9014f17 	ldw	r4,1340(sp)
    4520:	b00b883a 	mov	r5,r22
    4524:	d9c15115 	stw	r7,1348(sp)
    4528:	0005b4c0 	call	5b4c <__swsetup_r>
    452c:	d9c15117 	ldw	r7,1348(sp)
    4530:	103dee26 	beq	r2,zero,3cec <___vfprintf_internal_r+0x70>
    4534:	003f8c06 	br	4368 <___vfprintf_internal_r+0x6ec>
    4538:	d9014217 	ldw	r4,1288(sp)
    453c:	d9414317 	ldw	r5,1292(sp)
    4540:	000d883a 	mov	r6,zero
    4544:	000f883a 	mov	r7,zero
    4548:	000c3800 	call	c380 <__eqdf2>
    454c:	1000f21e 	bne	r2,zero,4918 <___vfprintf_internal_r+0xc9c>
    4550:	00800074 	movhi	r2,1
    4554:	108f3004 	addi	r2,r2,15552
    4558:	94800044 	addi	r18,r18,1
    455c:	8c400044 	addi	r17,r17,1
    4560:	a8800015 	stw	r2,0(r21)
    4564:	00c00044 	movi	r3,1
    4568:	008001c4 	movi	r2,7
    456c:	a8c00115 	stw	r3,4(r21)
    4570:	dc800e15 	stw	r18,56(sp)
    4574:	dc400d15 	stw	r17,52(sp)
    4578:	1442fa16 	blt	r2,r17,5164 <___vfprintf_internal_r+0x14e8>
    457c:	a8c00204 	addi	r3,r21,8
    4580:	d8800517 	ldw	r2,20(sp)
    4584:	d9014717 	ldw	r4,1308(sp)
    4588:	11015c0e 	bge	r2,r4,4afc <___vfprintf_internal_r+0xe80>
    458c:	dc400d17 	ldw	r17,52(sp)
    4590:	d9814917 	ldw	r6,1316(sp)
    4594:	00800044 	movi	r2,1
    4598:	94800044 	addi	r18,r18,1
    459c:	8c400044 	addi	r17,r17,1
    45a0:	18800115 	stw	r2,4(r3)
    45a4:	008001c4 	movi	r2,7
    45a8:	19800015 	stw	r6,0(r3)
    45ac:	dc800e15 	stw	r18,56(sp)
    45b0:	dc400d15 	stw	r17,52(sp)
    45b4:	14431016 	blt	r2,r17,51f8 <___vfprintf_internal_r+0x157c>
    45b8:	18c00204 	addi	r3,r3,8
    45bc:	d8814717 	ldw	r2,1308(sp)
    45c0:	143fffc4 	addi	r16,r2,-1
    45c4:	043f2b0e 	bge	zero,r16,4274 <___vfprintf_internal_r+0x5f8>
    45c8:	00800404 	movi	r2,16
    45cc:	1402a20e 	bge	r2,r16,5058 <___vfprintf_internal_r+0x13dc>
    45d0:	dc400d17 	ldw	r17,52(sp)
    45d4:	1027883a 	mov	r19,r2
    45d8:	07000074 	movhi	fp,1
    45dc:	e70f3084 	addi	fp,fp,15554
    45e0:	050001c4 	movi	r20,7
    45e4:	00000306 	br	45f4 <___vfprintf_internal_r+0x978>
    45e8:	18c00204 	addi	r3,r3,8
    45ec:	843ffc04 	addi	r16,r16,-16
    45f0:	9c029c0e 	bge	r19,r16,5064 <___vfprintf_internal_r+0x13e8>
    45f4:	94800404 	addi	r18,r18,16
    45f8:	8c400044 	addi	r17,r17,1
    45fc:	1f000015 	stw	fp,0(r3)
    4600:	1cc00115 	stw	r19,4(r3)
    4604:	dc800e15 	stw	r18,56(sp)
    4608:	dc400d15 	stw	r17,52(sp)
    460c:	a47ff60e 	bge	r20,r17,45e8 <___vfprintf_internal_r+0x96c>
    4610:	d9014f17 	ldw	r4,1340(sp)
    4614:	b00b883a 	mov	r5,r22
    4618:	d9800c04 	addi	r6,sp,48
    461c:	0003c240 	call	3c24 <__sprint_r>
    4620:	103f4e1e 	bne	r2,zero,435c <___vfprintf_internal_r+0x6e0>
    4624:	dc800e17 	ldw	r18,56(sp)
    4628:	dc400d17 	ldw	r17,52(sp)
    462c:	d8c01904 	addi	r3,sp,100
    4630:	003fee06 	br	45ec <___vfprintf_internal_r+0x970>
    4634:	d8802c0b 	ldhu	r2,176(sp)
    4638:	00ffffc4 	movi	r3,-1
    463c:	d8c14b15 	stw	r3,1324(sp)
    4640:	1080100c 	andi	r2,r2,64
    4644:	103dcc1e 	bne	r2,zero,3d78 <___vfprintf_internal_r+0xfc>
    4648:	003dce06 	br	3d84 <___vfprintf_internal_r+0x108>
    464c:	d9014f17 	ldw	r4,1340(sp)
    4650:	b00b883a 	mov	r5,r22
    4654:	d9800c04 	addi	r6,sp,48
    4658:	0003c240 	call	3c24 <__sprint_r>
    465c:	103f3f1e 	bne	r2,zero,435c <___vfprintf_internal_r+0x6e0>
    4660:	dc800e17 	ldw	r18,56(sp)
    4664:	003f2e06 	br	4320 <___vfprintf_internal_r+0x6a4>
    4668:	d9414c17 	ldw	r5,1328(sp)
    466c:	29400414 	ori	r5,r5,16
    4670:	d9414c15 	stw	r5,1328(sp)
    4674:	d9814c17 	ldw	r6,1328(sp)
    4678:	3080080c 	andi	r2,r6,32
    467c:	10014f1e 	bne	r2,zero,4bbc <___vfprintf_internal_r+0xf40>
    4680:	d8c14c17 	ldw	r3,1328(sp)
    4684:	1880040c 	andi	r2,r3,16
    4688:	1002ea1e 	bne	r2,zero,5234 <___vfprintf_internal_r+0x15b8>
    468c:	d9014c17 	ldw	r4,1328(sp)
    4690:	2080100c 	andi	r2,r4,64
    4694:	1002e726 	beq	r2,zero,5234 <___vfprintf_internal_r+0x15b8>
    4698:	3880000f 	ldh	r2,0(r7)
    469c:	39c00104 	addi	r7,r7,4
    46a0:	d9c14015 	stw	r7,1280(sp)
    46a4:	1023d7fa 	srai	r17,r2,31
    46a8:	1021883a 	mov	r16,r2
    46ac:	88037216 	blt	r17,zero,5478 <___vfprintf_internal_r+0x17fc>
    46b0:	01000044 	movi	r4,1
    46b4:	98000416 	blt	r19,zero,46c8 <___vfprintf_internal_r+0xa4c>
    46b8:	d8c14c17 	ldw	r3,1328(sp)
    46bc:	00bfdfc4 	movi	r2,-129
    46c0:	1886703a 	and	r3,r3,r2
    46c4:	d8c14c15 	stw	r3,1328(sp)
    46c8:	8444b03a 	or	r2,r16,r17
    46cc:	1002261e 	bne	r2,zero,4f68 <___vfprintf_internal_r+0x12ec>
    46d0:	9802251e 	bne	r19,zero,4f68 <___vfprintf_internal_r+0x12ec>
    46d4:	20803fcc 	andi	r2,r4,255
    46d8:	10029b26 	beq	r2,zero,5148 <___vfprintf_internal_r+0x14cc>
    46dc:	d8c01904 	addi	r3,sp,100
    46e0:	dd000f04 	addi	r20,sp,60
    46e4:	d8c14115 	stw	r3,1284(sp)
    46e8:	d8c14117 	ldw	r3,1284(sp)
    46ec:	dcc14515 	stw	r19,1300(sp)
    46f0:	a0c5c83a 	sub	r2,r20,r3
    46f4:	11c00a04 	addi	r7,r2,40
    46f8:	99c0010e 	bge	r19,r7,4700 <___vfprintf_internal_r+0xa84>
    46fc:	d9c14515 	stw	r7,1300(sp)
    4700:	dcc14615 	stw	r19,1304(sp)
    4704:	d8800407 	ldb	r2,16(sp)
    4708:	103e4c26 	beq	r2,zero,403c <___vfprintf_internal_r+0x3c0>
    470c:	d8814517 	ldw	r2,1300(sp)
    4710:	10800044 	addi	r2,r2,1
    4714:	d8814515 	stw	r2,1300(sp)
    4718:	003e4806 	br	403c <___vfprintf_internal_r+0x3c0>
    471c:	d9814c17 	ldw	r6,1328(sp)
    4720:	31800414 	ori	r6,r6,16
    4724:	d9814c15 	stw	r6,1328(sp)
    4728:	d8c14c17 	ldw	r3,1328(sp)
    472c:	1880080c 	andi	r2,r3,32
    4730:	1001271e 	bne	r2,zero,4bd0 <___vfprintf_internal_r+0xf54>
    4734:	d9414c17 	ldw	r5,1328(sp)
    4738:	2880040c 	andi	r2,r5,16
    473c:	1002b61e 	bne	r2,zero,5218 <___vfprintf_internal_r+0x159c>
    4740:	d9814c17 	ldw	r6,1328(sp)
    4744:	3080100c 	andi	r2,r6,64
    4748:	1002b326 	beq	r2,zero,5218 <___vfprintf_internal_r+0x159c>
    474c:	3c00000b 	ldhu	r16,0(r7)
    4750:	0009883a 	mov	r4,zero
    4754:	39c00104 	addi	r7,r7,4
    4758:	0023883a 	mov	r17,zero
    475c:	d9c14015 	stw	r7,1280(sp)
    4760:	d8000405 	stb	zero,16(sp)
    4764:	003fd306 	br	46b4 <___vfprintf_internal_r+0xa38>
    4768:	d9014c17 	ldw	r4,1328(sp)
    476c:	21000414 	ori	r4,r4,16
    4770:	d9014c15 	stw	r4,1328(sp)
    4774:	d9414c17 	ldw	r5,1328(sp)
    4778:	2880080c 	andi	r2,r5,32
    477c:	1001081e 	bne	r2,zero,4ba0 <___vfprintf_internal_r+0xf24>
    4780:	d8c14c17 	ldw	r3,1328(sp)
    4784:	1880040c 	andi	r2,r3,16
    4788:	1002b01e 	bne	r2,zero,524c <___vfprintf_internal_r+0x15d0>
    478c:	d9014c17 	ldw	r4,1328(sp)
    4790:	2080100c 	andi	r2,r4,64
    4794:	1002ad26 	beq	r2,zero,524c <___vfprintf_internal_r+0x15d0>
    4798:	3c00000b 	ldhu	r16,0(r7)
    479c:	01000044 	movi	r4,1
    47a0:	39c00104 	addi	r7,r7,4
    47a4:	0023883a 	mov	r17,zero
    47a8:	d9c14015 	stw	r7,1280(sp)
    47ac:	d8000405 	stb	zero,16(sp)
    47b0:	003fc006 	br	46b4 <___vfprintf_internal_r+0xa38>
    47b4:	d9014f17 	ldw	r4,1340(sp)
    47b8:	b00b883a 	mov	r5,r22
    47bc:	d9800c04 	addi	r6,sp,48
    47c0:	0003c240 	call	3c24 <__sprint_r>
    47c4:	103ee51e 	bne	r2,zero,435c <___vfprintf_internal_r+0x6e0>
    47c8:	dc800e17 	ldw	r18,56(sp)
    47cc:	d8c01904 	addi	r3,sp,100
    47d0:	d9814c17 	ldw	r6,1328(sp)
    47d4:	3080004c 	andi	r2,r6,1
    47d8:	1005003a 	cmpeq	r2,r2,zero
    47dc:	103ea51e 	bne	r2,zero,4274 <___vfprintf_internal_r+0x5f8>
    47e0:	00800044 	movi	r2,1
    47e4:	dc400d17 	ldw	r17,52(sp)
    47e8:	18800115 	stw	r2,4(r3)
    47ec:	d8814917 	ldw	r2,1316(sp)
    47f0:	94800044 	addi	r18,r18,1
    47f4:	8c400044 	addi	r17,r17,1
    47f8:	18800015 	stw	r2,0(r3)
    47fc:	008001c4 	movi	r2,7
    4800:	dc800e15 	stw	r18,56(sp)
    4804:	dc400d15 	stw	r17,52(sp)
    4808:	14421e0e 	bge	r2,r17,5084 <___vfprintf_internal_r+0x1408>
    480c:	d9014f17 	ldw	r4,1340(sp)
    4810:	b00b883a 	mov	r5,r22
    4814:	d9800c04 	addi	r6,sp,48
    4818:	0003c240 	call	3c24 <__sprint_r>
    481c:	103ecf1e 	bne	r2,zero,435c <___vfprintf_internal_r+0x6e0>
    4820:	dc800e17 	ldw	r18,56(sp)
    4824:	d8c01904 	addi	r3,sp,100
    4828:	003e9206 	br	4274 <___vfprintf_internal_r+0x5f8>
    482c:	d9014f17 	ldw	r4,1340(sp)
    4830:	b00b883a 	mov	r5,r22
    4834:	d9800c04 	addi	r6,sp,48
    4838:	0003c240 	call	3c24 <__sprint_r>
    483c:	103ec026 	beq	r2,zero,4340 <___vfprintf_internal_r+0x6c4>
    4840:	003ec606 	br	435c <___vfprintf_internal_r+0x6e0>
    4844:	d9014f17 	ldw	r4,1340(sp)
    4848:	b00b883a 	mov	r5,r22
    484c:	d9800c04 	addi	r6,sp,48
    4850:	d9c15115 	stw	r7,1348(sp)
    4854:	0003c240 	call	3c24 <__sprint_r>
    4858:	d9c15117 	ldw	r7,1348(sp)
    485c:	103ebf1e 	bne	r2,zero,435c <___vfprintf_internal_r+0x6e0>
    4860:	dc800e17 	ldw	r18,56(sp)
    4864:	dc400d17 	ldw	r17,52(sp)
    4868:	dd401904 	addi	r21,sp,100
    486c:	003e7406 	br	4240 <___vfprintf_internal_r+0x5c4>
    4870:	d9014f17 	ldw	r4,1340(sp)
    4874:	b00b883a 	mov	r5,r22
    4878:	d9800c04 	addi	r6,sp,48
    487c:	d9c15115 	stw	r7,1348(sp)
    4880:	0003c240 	call	3c24 <__sprint_r>
    4884:	d9c15117 	ldw	r7,1348(sp)
    4888:	103eb41e 	bne	r2,zero,435c <___vfprintf_internal_r+0x6e0>
    488c:	dd401904 	addi	r21,sp,100
    4890:	003d6d06 	br	3e48 <___vfprintf_internal_r+0x1cc>
    4894:	d9014f17 	ldw	r4,1340(sp)
    4898:	b00b883a 	mov	r5,r22
    489c:	d9800c04 	addi	r6,sp,48
    48a0:	d9c15115 	stw	r7,1348(sp)
    48a4:	0003c240 	call	3c24 <__sprint_r>
    48a8:	d9c15117 	ldw	r7,1348(sp)
    48ac:	103eab1e 	bne	r2,zero,435c <___vfprintf_internal_r+0x6e0>
    48b0:	dc800e17 	ldw	r18,56(sp)
    48b4:	dc400d17 	ldw	r17,52(sp)
    48b8:	dd401904 	addi	r21,sp,100
    48bc:	003e3406 	br	4190 <___vfprintf_internal_r+0x514>
    48c0:	d9014f17 	ldw	r4,1340(sp)
    48c4:	b00b883a 	mov	r5,r22
    48c8:	d9800c04 	addi	r6,sp,48
    48cc:	d9c15115 	stw	r7,1348(sp)
    48d0:	0003c240 	call	3c24 <__sprint_r>
    48d4:	d9c15117 	ldw	r7,1348(sp)
    48d8:	103ea01e 	bne	r2,zero,435c <___vfprintf_internal_r+0x6e0>
    48dc:	dc800e17 	ldw	r18,56(sp)
    48e0:	dc400d17 	ldw	r17,52(sp)
    48e4:	dd401904 	addi	r21,sp,100
    48e8:	003e1c06 	br	415c <___vfprintf_internal_r+0x4e0>
    48ec:	d9014f17 	ldw	r4,1340(sp)
    48f0:	b00b883a 	mov	r5,r22
    48f4:	d9800c04 	addi	r6,sp,48
    48f8:	d9c15115 	stw	r7,1348(sp)
    48fc:	0003c240 	call	3c24 <__sprint_r>
    4900:	d9c15117 	ldw	r7,1348(sp)
    4904:	103e951e 	bne	r2,zero,435c <___vfprintf_internal_r+0x6e0>
    4908:	dc800e17 	ldw	r18,56(sp)
    490c:	dc400d17 	ldw	r17,52(sp)
    4910:	dd401904 	addi	r21,sp,100
    4914:	003e0406 	br	4128 <___vfprintf_internal_r+0x4ac>
    4918:	d9000517 	ldw	r4,20(sp)
    491c:	0102520e 	bge	zero,r4,5268 <___vfprintf_internal_r+0x15ec>
    4920:	d9814717 	ldw	r6,1308(sp)
    4924:	21807a16 	blt	r4,r6,4b10 <___vfprintf_internal_r+0xe94>
    4928:	d8814117 	ldw	r2,1284(sp)
    492c:	91a5883a 	add	r18,r18,r6
    4930:	8c400044 	addi	r17,r17,1
    4934:	a8800015 	stw	r2,0(r21)
    4938:	008001c4 	movi	r2,7
    493c:	a9800115 	stw	r6,4(r21)
    4940:	dc800e15 	stw	r18,56(sp)
    4944:	dc400d15 	stw	r17,52(sp)
    4948:	1442f616 	blt	r2,r17,5524 <___vfprintf_internal_r+0x18a8>
    494c:	a8c00204 	addi	r3,r21,8
    4950:	d9414717 	ldw	r5,1308(sp)
    4954:	2161c83a 	sub	r16,r4,r5
    4958:	043f9d0e 	bge	zero,r16,47d0 <___vfprintf_internal_r+0xb54>
    495c:	00800404 	movi	r2,16
    4960:	1402130e 	bge	r2,r16,51b0 <___vfprintf_internal_r+0x1534>
    4964:	dc400d17 	ldw	r17,52(sp)
    4968:	1027883a 	mov	r19,r2
    496c:	07000074 	movhi	fp,1
    4970:	e70f3084 	addi	fp,fp,15554
    4974:	050001c4 	movi	r20,7
    4978:	00000306 	br	4988 <___vfprintf_internal_r+0xd0c>
    497c:	18c00204 	addi	r3,r3,8
    4980:	843ffc04 	addi	r16,r16,-16
    4984:	9c020d0e 	bge	r19,r16,51bc <___vfprintf_internal_r+0x1540>
    4988:	94800404 	addi	r18,r18,16
    498c:	8c400044 	addi	r17,r17,1
    4990:	1f000015 	stw	fp,0(r3)
    4994:	1cc00115 	stw	r19,4(r3)
    4998:	dc800e15 	stw	r18,56(sp)
    499c:	dc400d15 	stw	r17,52(sp)
    49a0:	a47ff60e 	bge	r20,r17,497c <___vfprintf_internal_r+0xd00>
    49a4:	d9014f17 	ldw	r4,1340(sp)
    49a8:	b00b883a 	mov	r5,r22
    49ac:	d9800c04 	addi	r6,sp,48
    49b0:	0003c240 	call	3c24 <__sprint_r>
    49b4:	103e691e 	bne	r2,zero,435c <___vfprintf_internal_r+0x6e0>
    49b8:	dc800e17 	ldw	r18,56(sp)
    49bc:	dc400d17 	ldw	r17,52(sp)
    49c0:	d8c01904 	addi	r3,sp,100
    49c4:	003fee06 	br	4980 <___vfprintf_internal_r+0xd04>
    49c8:	d8814717 	ldw	r2,1308(sp)
    49cc:	143fffc4 	addi	r16,r2,-1
    49d0:	043e970e 	bge	zero,r16,4430 <___vfprintf_internal_r+0x7b4>
    49d4:	00800404 	movi	r2,16
    49d8:	1400180e 	bge	r2,r16,4a3c <___vfprintf_internal_r+0xdc0>
    49dc:	1029883a 	mov	r20,r2
    49e0:	07000074 	movhi	fp,1
    49e4:	e70f3084 	addi	fp,fp,15554
    49e8:	054001c4 	movi	r21,7
    49ec:	00000306 	br	49fc <___vfprintf_internal_r+0xd80>
    49f0:	9cc00204 	addi	r19,r19,8
    49f4:	843ffc04 	addi	r16,r16,-16
    49f8:	a400120e 	bge	r20,r16,4a44 <___vfprintf_internal_r+0xdc8>
    49fc:	94800404 	addi	r18,r18,16
    4a00:	8c400044 	addi	r17,r17,1
    4a04:	9f000015 	stw	fp,0(r19)
    4a08:	9d000115 	stw	r20,4(r19)
    4a0c:	dc800e15 	stw	r18,56(sp)
    4a10:	dc400d15 	stw	r17,52(sp)
    4a14:	ac7ff60e 	bge	r21,r17,49f0 <___vfprintf_internal_r+0xd74>
    4a18:	d9014f17 	ldw	r4,1340(sp)
    4a1c:	b00b883a 	mov	r5,r22
    4a20:	d9800c04 	addi	r6,sp,48
    4a24:	0003c240 	call	3c24 <__sprint_r>
    4a28:	103e4c1e 	bne	r2,zero,435c <___vfprintf_internal_r+0x6e0>
    4a2c:	dc800e17 	ldw	r18,56(sp)
    4a30:	dc400d17 	ldw	r17,52(sp)
    4a34:	dcc01904 	addi	r19,sp,100
    4a38:	003fee06 	br	49f4 <___vfprintf_internal_r+0xd78>
    4a3c:	07000074 	movhi	fp,1
    4a40:	e70f3084 	addi	fp,fp,15554
    4a44:	9425883a 	add	r18,r18,r16
    4a48:	8c400044 	addi	r17,r17,1
    4a4c:	008001c4 	movi	r2,7
    4a50:	9f000015 	stw	fp,0(r19)
    4a54:	9c000115 	stw	r16,4(r19)
    4a58:	dc800e15 	stw	r18,56(sp)
    4a5c:	dc400d15 	stw	r17,52(sp)
    4a60:	147e720e 	bge	r2,r17,442c <___vfprintf_internal_r+0x7b0>
    4a64:	d9014f17 	ldw	r4,1340(sp)
    4a68:	b00b883a 	mov	r5,r22
    4a6c:	d9800c04 	addi	r6,sp,48
