Archive member included because of file (symbol)

c:/altera/13.0sp1/nios2eds/bin/gnu/h-i686-mingw32/bin/../lib/gcc/nios2-elf/4.1.2\libgcc.a(_muldi3.o)
                              obj/default/media_interrupt_HAL.o (__muldi3)
c:/altera/13.0sp1/nios2eds/bin/gnu/h-i686-mingw32/bin/../lib/gcc/nios2-elf/4.1.2\libgcc.a(_divdi3.o)
                              obj/default/media_interrupt_HAL.o (__divdi3)
c:/altera/13.0sp1/nios2eds/bin/gnu/h-i686-mingw32/bin/../lib/gcc/nios2-elf/4.1.2\libgcc.a(lib2-divmod.o)
                              c:/altera/13.0sp1/nios2eds/bin/gnu/h-i686-mingw32/bin/../lib/gcc/nios2-elf/4.1.2\libgcc.a(_divdi3.o) (__udivsi3)
c:/altera/13.0sp1/nios2eds/bin/gnu/h-i686-mingw32/bin/../lib/gcc/nios2-elf/4.1.2\libgcc.a(_clz.o)
                              c:/altera/13.0sp1/nios2eds/bin/gnu/h-i686-mingw32/bin/../lib/gcc/nios2-elf/4.1.2\libgcc.a(_divdi3.o) (__clz_tab)
c:/altera/13.0sp1/nios2eds/bin/gnu/h-i686-mingw32/bin/../lib/gcc/nios2-elf/4.1.2/../../../../nios2-elf/lib\libc.a(lib_a-memcpy.o)
                              obj/default/media_interrupt_HAL.o (memcpy)
c:/altera/13.0sp1/nios2eds/bin/gnu/h-i686-mingw32/bin/../lib/gcc/nios2-elf/4.1.2/../../../../nios2-elf/lib\libc.a(lib_a-memset.o)
                              obj/default/media_interrupt_HAL.o (memset)
../VGA_Audio_PS2_bsp/\libhal_bsp.a(alt_irq_register.o)
                              obj/default/media_interrupt_HAL.o (alt_irq_register)
../VGA_Audio_PS2_bsp/\libhal_bsp.a(alt_irq_vars.o)
                              ../VGA_Audio_PS2_bsp/\libhal_bsp.a(alt_irq_register.o) (alt_irq_active)
../VGA_Audio_PS2_bsp/\libhal_bsp.a(alt_load.o)
                              ../VGA_Audio_PS2_bsp//obj/HAL/src/crt0.o (alt_load)
../VGA_Audio_PS2_bsp/\libhal_bsp.a(alt_main.o)
                              ../VGA_Audio_PS2_bsp//obj/HAL/src/crt0.o (alt_main)
../VGA_Audio_PS2_bsp/\libhal_bsp.a(alt_printf.o)
                              obj/default/media_interrupt_HAL.o (alt_printf)
../VGA_Audio_PS2_bsp/\libhal_bsp.a(alt_putchar.o)
                              ../VGA_Audio_PS2_bsp/\libhal_bsp.a(alt_printf.o) (alt_putchar)
../VGA_Audio_PS2_bsp/\libhal_bsp.a(alt_sys_init.o)
                              ../VGA_Audio_PS2_bsp/\libhal_bsp.a(alt_main.o) (alt_irq_init)
../VGA_Audio_PS2_bsp/\libhal_bsp.a(altera_avalon_jtag_uart_fd.o)
                              ../VGA_Audio_PS2_bsp/\libhal_bsp.a(alt_sys_init.o) (altera_avalon_jtag_uart_read_fd)
../VGA_Audio_PS2_bsp/\libhal_bsp.a(altera_avalon_jtag_uart_init.o)
                              ../VGA_Audio_PS2_bsp/\libhal_bsp.a(alt_sys_init.o) (altera_avalon_jtag_uart_init)
../VGA_Audio_PS2_bsp/\libhal_bsp.a(altera_avalon_jtag_uart_ioctl.o)
                              ../VGA_Audio_PS2_bsp/\libhal_bsp.a(altera_avalon_jtag_uart_fd.o) (altera_avalon_jtag_uart_ioctl)
../VGA_Audio_PS2_bsp/\libhal_bsp.a(altera_avalon_jtag_uart_read.o)
                              ../VGA_Audio_PS2_bsp/\libhal_bsp.a(altera_avalon_jtag_uart_fd.o) (altera_avalon_jtag_uart_read)
../VGA_Audio_PS2_bsp/\libhal_bsp.a(altera_avalon_jtag_uart_write.o)
                              ../VGA_Audio_PS2_bsp/\libhal_bsp.a(altera_avalon_jtag_uart_fd.o) (altera_avalon_jtag_uart_write)
../VGA_Audio_PS2_bsp/\libhal_bsp.a(altera_avalon_timer_sc.o)
                              ../VGA_Audio_PS2_bsp/\libhal_bsp.a(alt_sys_init.o) (alt_avalon_timer_sc_init)
../VGA_Audio_PS2_bsp/\libhal_bsp.a(altera_up_avalon_audio.o)
                              obj/default/media_interrupt_HAL.o (alt_up_audio_open_dev)
../VGA_Audio_PS2_bsp/\libhal_bsp.a(altera_up_avalon_character_lcd.o)
                              ../VGA_Audio_PS2_bsp/\libhal_bsp.a(alt_sys_init.o) (alt_up_character_lcd_init)
../VGA_Audio_PS2_bsp/\libhal_bsp.a(altera_up_avalon_ethernet.o)
                              ../VGA_Audio_PS2_bsp/\libhal_bsp.a(alt_sys_init.o) (alt_up_ethernet_init)
../VGA_Audio_PS2_bsp/\libhal_bsp.a(altera_up_avalon_ethernet_low_level_driver.o)
                              ../VGA_Audio_PS2_bsp/\libhal_bsp.a(altera_up_avalon_ethernet.o) (alt_up_ethernet_reg_write)
../VGA_Audio_PS2_bsp/\libhal_bsp.a(altera_up_avalon_irda.o)
                              ../VGA_Audio_PS2_bsp/\libhal_bsp.a(alt_sys_init.o) (alt_up_irda_read_fd)
../VGA_Audio_PS2_bsp/\libhal_bsp.a(altera_up_avalon_parallel_port.o)
                              obj/default/media_interrupt_HAL.o (alt_up_parallel_port_open_dev)
../VGA_Audio_PS2_bsp/\libhal_bsp.a(altera_up_avalon_ps2.o)
                              ../VGA_Audio_PS2_bsp/\libhal_bsp.a(alt_sys_init.o) (alt_up_ps2_init)
../VGA_Audio_PS2_bsp/\libhal_bsp.a(altera_up_avalon_rs232.o)
                              ../VGA_Audio_PS2_bsp/\libhal_bsp.a(alt_sys_init.o) (alt_up_rs232_read_fd)
../VGA_Audio_PS2_bsp/\libhal_bsp.a(altera_up_avalon_video_character_buffer_with_dma.o)
                              ../VGA_Audio_PS2_bsp/\libhal_bsp.a(alt_sys_init.o) (alt_up_char_buffer_init)
../VGA_Audio_PS2_bsp/\libhal_bsp.a(altera_up_avalon_video_pixel_buffer_dma.o)
                              obj/default/media_interrupt_HAL.o (alt_up_pixel_buffer_dma_open_dev)
../VGA_Audio_PS2_bsp/\libhal_bsp.a(alt_alarm_start.o)
                              ../VGA_Audio_PS2_bsp/\libhal_bsp.a(altera_avalon_jtag_uart_init.o) (alt_alarm_start)
../VGA_Audio_PS2_bsp/\libhal_bsp.a(alt_close.o)
                              ../VGA_Audio_PS2_bsp/\libhal_bsp.a(alt_main.o) (close)
../VGA_Audio_PS2_bsp/\libhal_bsp.a(alt_dcache_flush_all.o)
                              ../VGA_Audio_PS2_bsp/\libhal_bsp.a(alt_load.o) (alt_dcache_flush_all)
../VGA_Audio_PS2_bsp/\libhal_bsp.a(alt_dev.o)
                              ../VGA_Audio_PS2_bsp/\libhal_bsp.a(alt_sys_init.o) (alt_dev_list)
../VGA_Audio_PS2_bsp/\libhal_bsp.a(alt_dev_llist_insert.o)
                              ../VGA_Audio_PS2_bsp/\libhal_bsp.a(alt_sys_init.o) (alt_dev_llist_insert)
../VGA_Audio_PS2_bsp/\libhal_bsp.a(alt_do_ctors.o)
                              ../VGA_Audio_PS2_bsp/\libhal_bsp.a(alt_main.o) (_do_ctors)
../VGA_Audio_PS2_bsp/\libhal_bsp.a(alt_do_dtors.o)
                              ../VGA_Audio_PS2_bsp/\libhal_bsp.a(alt_main.o) (_do_dtors)
../VGA_Audio_PS2_bsp/\libhal_bsp.a(alt_errno.o)
                              ../VGA_Audio_PS2_bsp/\libhal_bsp.a(alt_close.o) (alt_errno)
../VGA_Audio_PS2_bsp/\libhal_bsp.a(alt_find_dev.o)
                              ../VGA_Audio_PS2_bsp/\libhal_bsp.a(altera_up_avalon_audio.o) (alt_find_dev)
../VGA_Audio_PS2_bsp/\libhal_bsp.a(alt_icache_flush_all.o)
                              ../VGA_Audio_PS2_bsp/\libhal_bsp.a(alt_load.o) (alt_icache_flush_all)
../VGA_Audio_PS2_bsp/\libhal_bsp.a(alt_io_redirect.o)
                              ../VGA_Audio_PS2_bsp/\libhal_bsp.a(alt_main.o) (alt_io_redirect)
../VGA_Audio_PS2_bsp/\libhal_bsp.a(alt_irq_entry.o)
                              ../VGA_Audio_PS2_bsp/\libhal_bsp.a(alt_irq_register.o) (alt_irq_entry)
../VGA_Audio_PS2_bsp/\libhal_bsp.a(alt_irq_handler.o)
                              ../VGA_Audio_PS2_bsp/\libhal_bsp.a(alt_irq_register.o) (alt_irq_handler)
../VGA_Audio_PS2_bsp/\libhal_bsp.a(alt_open.o)
                              ../VGA_Audio_PS2_bsp/\libhal_bsp.a(alt_io_redirect.o) (open)
../VGA_Audio_PS2_bsp/\libhal_bsp.a(alt_release_fd.o)
                              ../VGA_Audio_PS2_bsp/\libhal_bsp.a(alt_close.o) (alt_release_fd)
../VGA_Audio_PS2_bsp/\libhal_bsp.a(alt_tick.o)
                              ../VGA_Audio_PS2_bsp/\libhal_bsp.a(altera_avalon_jtag_uart_init.o) (_alt_tick_rate)
../VGA_Audio_PS2_bsp/\libhal_bsp.a(alt_usleep.o)
                              ../VGA_Audio_PS2_bsp/\libhal_bsp.a(altera_up_avalon_ethernet.o) (usleep)
../VGA_Audio_PS2_bsp/\libhal_bsp.a(altera_nios2_qsys_irq.o)
                              ../VGA_Audio_PS2_bsp/\libhal_bsp.a(alt_sys_init.o) (altera_nios2_qsys_irq_init)
../VGA_Audio_PS2_bsp/\libhal_bsp.a(alt_busy_sleep.o)
                              ../VGA_Audio_PS2_bsp/\libhal_bsp.a(alt_usleep.o) (alt_busy_sleep)
../VGA_Audio_PS2_bsp/\libhal_bsp.a(alt_exception_entry.o)
                              ../VGA_Audio_PS2_bsp/\libhal_bsp.a(alt_irq_entry.o) (alt_exception)
../VGA_Audio_PS2_bsp/\libhal_bsp.a(alt_find_file.o)
                              ../VGA_Audio_PS2_bsp/\libhal_bsp.a(alt_open.o) (alt_find_file)
../VGA_Audio_PS2_bsp/\libhal_bsp.a(alt_get_fd.o)
                              ../VGA_Audio_PS2_bsp/\libhal_bsp.a(alt_open.o) (alt_get_fd)
../VGA_Audio_PS2_bsp/\libhal_bsp.a(alt_icache_flush.o)
                              ../VGA_Audio_PS2_bsp/\libhal_bsp.a(alt_icache_flush_all.o) (alt_icache_flush)
c:/altera/13.0sp1/nios2eds/bin/gnu/h-i686-mingw32/bin/../lib/gcc/nios2-elf/4.1.2/../../../../nios2-elf/lib\libc.a(lib_a-atexit.o)
                              ../VGA_Audio_PS2_bsp/\libhal_bsp.a(alt_main.o) (atexit)
c:/altera/13.0sp1/nios2eds/bin/gnu/h-i686-mingw32/bin/../lib/gcc/nios2-elf/4.1.2/../../../../nios2-elf/lib\libc.a(lib_a-exit.o)
                              ../VGA_Audio_PS2_bsp/\libhal_bsp.a(alt_main.o) (exit)
c:/altera/13.0sp1/nios2eds/bin/gnu/h-i686-mingw32/bin/../lib/gcc/nios2-elf/4.1.2/../../../../nios2-elf/lib\libc.a(lib_a-impure.o)
                              ../VGA_Audio_PS2_bsp/\libhal_bsp.a(alt_putchar.o) (_impure_ptr)
c:/altera/13.0sp1/nios2eds/bin/gnu/h-i686-mingw32/bin/../lib/gcc/nios2-elf/4.1.2/../../../../nios2-elf/lib\libc.a(lib_a-int_errno.o)
                              ../VGA_Audio_PS2_bsp/\libhal_bsp.a(alt_close.o) (errno)
c:/altera/13.0sp1/nios2eds/bin/gnu/h-i686-mingw32/bin/../lib/gcc/nios2-elf/4.1.2/../../../../nios2-elf/lib\libc.a(lib_a-memcmp.o)
                              ../VGA_Audio_PS2_bsp/\libhal_bsp.a(alt_find_dev.o) (memcmp)
c:/altera/13.0sp1/nios2eds/bin/gnu/h-i686-mingw32/bin/../lib/gcc/nios2-elf/4.1.2/../../../../nios2-elf/lib\libc.a(lib_a-putc.o)
                              ../VGA_Audio_PS2_bsp/\libhal_bsp.a(alt_putchar.o) (putc)
c:/altera/13.0sp1/nios2eds/bin/gnu/h-i686-mingw32/bin/../lib/gcc/nios2-elf/4.1.2/../../../../nios2-elf/lib\libc.a(lib_a-strcmp.o)
                              ../VGA_Audio_PS2_bsp/\libhal_bsp.a(altera_up_avalon_video_character_buffer_with_dma.o) (strcmp)
c:/altera/13.0sp1/nios2eds/bin/gnu/h-i686-mingw32/bin/../lib/gcc/nios2-elf/4.1.2/../../../../nios2-elf/lib\libc.a(lib_a-strlen.o)
                              ../VGA_Audio_PS2_bsp/\libhal_bsp.a(alt_find_dev.o) (strlen)
c:/altera/13.0sp1/nios2eds/bin/gnu/h-i686-mingw32/bin/../lib/gcc/nios2-elf/4.1.2/../../../../nios2-elf/lib\libc.a(lib_a-wbuf.o)
                              c:/altera/13.0sp1/nios2eds/bin/gnu/h-i686-mingw32/bin/../lib/gcc/nios2-elf/4.1.2/../../../../nios2-elf/lib\libc.a(lib_a-putc.o) (__swbuf_r)
c:/altera/13.0sp1/nios2eds/bin/gnu/h-i686-mingw32/bin/../lib/gcc/nios2-elf/4.1.2/../../../../nios2-elf/lib\libc.a(lib_a-wsetup.o)
                              c:/altera/13.0sp1/nios2eds/bin/gnu/h-i686-mingw32/bin/../lib/gcc/nios2-elf/4.1.2/../../../../nios2-elf/lib\libc.a(lib_a-wbuf.o) (__swsetup_r)
c:/altera/13.0sp1/nios2eds/bin/gnu/h-i686-mingw32/bin/../lib/gcc/nios2-elf/4.1.2/../../../../nios2-elf/lib\libc.a(lib_a-__atexit.o)
                              c:/altera/13.0sp1/nios2eds/bin/gnu/h-i686-mingw32/bin/../lib/gcc/nios2-elf/4.1.2/../../../../nios2-elf/lib\libc.a(lib_a-atexit.o) (__register_exitproc)
c:/altera/13.0sp1/nios2eds/bin/gnu/h-i686-mingw32/bin/../lib/gcc/nios2-elf/4.1.2/../../../../nios2-elf/lib\libc.a(lib_a-__call_atexit.o)
                              c:/altera/13.0sp1/nios2eds/bin/gnu/h-i686-mingw32/bin/../lib/gcc/nios2-elf/4.1.2/../../../../nios2-elf/lib\libc.a(lib_a-exit.o) (__call_exitprocs)
c:/altera/13.0sp1/nios2eds/bin/gnu/h-i686-mingw32/bin/../lib/gcc/nios2-elf/4.1.2/../../../../nios2-elf/lib\libc.a(lib_a-fflush.o)
                              c:/altera/13.0sp1/nios2eds/bin/gnu/h-i686-mingw32/bin/../lib/gcc/nios2-elf/4.1.2/../../../../nios2-elf/lib\libc.a(lib_a-wbuf.o) (_fflush_r)
c:/altera/13.0sp1/nios2eds/bin/gnu/h-i686-mingw32/bin/../lib/gcc/nios2-elf/4.1.2/../../../../nios2-elf/lib\libc.a(lib_a-findfp.o)
                              c:/altera/13.0sp1/nios2eds/bin/gnu/h-i686-mingw32/bin/../lib/gcc/nios2-elf/4.1.2/../../../../nios2-elf/lib\libc.a(lib_a-putc.o) (__sinit)
c:/altera/13.0sp1/nios2eds/bin/gnu/h-i686-mingw32/bin/../lib/gcc/nios2-elf/4.1.2/../../../../nios2-elf/lib\libc.a(lib_a-freer.o)
                              c:/altera/13.0sp1/nios2eds/bin/gnu/h-i686-mingw32/bin/../lib/gcc/nios2-elf/4.1.2/../../../../nios2-elf/lib\libc.a(lib_a-wsetup.o) (_free_r)
c:/altera/13.0sp1/nios2eds/bin/gnu/h-i686-mingw32/bin/../lib/gcc/nios2-elf/4.1.2/../../../../nios2-elf/lib\libc.a(lib_a-fwalk.o)
                              c:/altera/13.0sp1/nios2eds/bin/gnu/h-i686-mingw32/bin/../lib/gcc/nios2-elf/4.1.2/../../../../nios2-elf/lib\libc.a(lib_a-fflush.o) (_fwalk_reent)
c:/altera/13.0sp1/nios2eds/bin/gnu/h-i686-mingw32/bin/../lib/gcc/nios2-elf/4.1.2/../../../../nios2-elf/lib\libc.a(lib_a-makebuf.o)
                              c:/altera/13.0sp1/nios2eds/bin/gnu/h-i686-mingw32/bin/../lib/gcc/nios2-elf/4.1.2/../../../../nios2-elf/lib\libc.a(lib_a-wsetup.o) (__smakebuf_r)
c:/altera/13.0sp1/nios2eds/bin/gnu/h-i686-mingw32/bin/../lib/gcc/nios2-elf/4.1.2/../../../../nios2-elf/lib\libc.a(lib_a-mallocr.o)
                              c:/altera/13.0sp1/nios2eds/bin/gnu/h-i686-mingw32/bin/../lib/gcc/nios2-elf/4.1.2/../../../../nios2-elf/lib\libc.a(lib_a-findfp.o) (_malloc_r)
c:/altera/13.0sp1/nios2eds/bin/gnu/h-i686-mingw32/bin/../lib/gcc/nios2-elf/4.1.2/../../../../nios2-elf/lib\libc.a(lib_a-sbrkr.o)
                              c:/altera/13.0sp1/nios2eds/bin/gnu/h-i686-mingw32/bin/../lib/gcc/nios2-elf/4.1.2/../../../../nios2-elf/lib\libc.a(lib_a-freer.o) (_sbrk_r)
c:/altera/13.0sp1/nios2eds/bin/gnu/h-i686-mingw32/bin/../lib/gcc/nios2-elf/4.1.2/../../../../nios2-elf/lib\libc.a(lib_a-stdio.o)
                              c:/altera/13.0sp1/nios2eds/bin/gnu/h-i686-mingw32/bin/../lib/gcc/nios2-elf/4.1.2/../../../../nios2-elf/lib\libc.a(lib_a-findfp.o) (__sclose)
c:/altera/13.0sp1/nios2eds/bin/gnu/h-i686-mingw32/bin/../lib/gcc/nios2-elf/4.1.2/../../../../nios2-elf/lib\libc.a(lib_a-writer.o)
                              c:/altera/13.0sp1/nios2eds/bin/gnu/h-i686-mingw32/bin/../lib/gcc/nios2-elf/4.1.2/../../../../nios2-elf/lib\libc.a(lib_a-stdio.o) (_write_r)
c:/altera/13.0sp1/nios2eds/bin/gnu/h-i686-mingw32/bin/../lib/gcc/nios2-elf/4.1.2/../../../../nios2-elf/lib\libc.a(lib_a-closer.o)
                              c:/altera/13.0sp1/nios2eds/bin/gnu/h-i686-mingw32/bin/../lib/gcc/nios2-elf/4.1.2/../../../../nios2-elf/lib\libc.a(lib_a-stdio.o) (_close_r)
c:/altera/13.0sp1/nios2eds/bin/gnu/h-i686-mingw32/bin/../lib/gcc/nios2-elf/4.1.2/../../../../nios2-elf/lib\libc.a(lib_a-fclose.o)
                              c:/altera/13.0sp1/nios2eds/bin/gnu/h-i686-mingw32/bin/../lib/gcc/nios2-elf/4.1.2/../../../../nios2-elf/lib\libc.a(lib_a-findfp.o) (fclose)
c:/altera/13.0sp1/nios2eds/bin/gnu/h-i686-mingw32/bin/../lib/gcc/nios2-elf/4.1.2/../../../../nios2-elf/lib\libc.a(lib_a-fstatr.o)
                              c:/altera/13.0sp1/nios2eds/bin/gnu/h-i686-mingw32/bin/../lib/gcc/nios2-elf/4.1.2/../../../../nios2-elf/lib\libc.a(lib_a-makebuf.o) (_fstat_r)
c:/altera/13.0sp1/nios2eds/bin/gnu/h-i686-mingw32/bin/../lib/gcc/nios2-elf/4.1.2/../../../../nios2-elf/lib\libc.a(lib_a-isattyr.o)
                              c:/altera/13.0sp1/nios2eds/bin/gnu/h-i686-mingw32/bin/../lib/gcc/nios2-elf/4.1.2/../../../../nios2-elf/lib\libc.a(lib_a-makebuf.o) (_isatty_r)
c:/altera/13.0sp1/nios2eds/bin/gnu/h-i686-mingw32/bin/../lib/gcc/nios2-elf/4.1.2/../../../../nios2-elf/lib\libc.a(lib_a-lseekr.o)
                              c:/altera/13.0sp1/nios2eds/bin/gnu/h-i686-mingw32/bin/../lib/gcc/nios2-elf/4.1.2/../../../../nios2-elf/lib\libc.a(lib_a-stdio.o) (_lseek_r)
c:/altera/13.0sp1/nios2eds/bin/gnu/h-i686-mingw32/bin/../lib/gcc/nios2-elf/4.1.2/../../../../nios2-elf/lib\libc.a(lib_a-readr.o)
                              c:/altera/13.0sp1/nios2eds/bin/gnu/h-i686-mingw32/bin/../lib/gcc/nios2-elf/4.1.2/../../../../nios2-elf/lib\libc.a(lib_a-stdio.o) (_read_r)
../VGA_Audio_PS2_bsp/\libhal_bsp.a(alt_exit.o)
                              c:/altera/13.0sp1/nios2eds/bin/gnu/h-i686-mingw32/bin/../lib/gcc/nios2-elf/4.1.2/../../../../nios2-elf/lib\libc.a(lib_a-exit.o) (_exit)
../VGA_Audio_PS2_bsp/\libhal_bsp.a(alt_fstat.o)
                              c:/altera/13.0sp1/nios2eds/bin/gnu/h-i686-mingw32/bin/../lib/gcc/nios2-elf/4.1.2/../../../../nios2-elf/lib\libc.a(lib_a-fstatr.o) (fstat)
../VGA_Audio_PS2_bsp/\libhal_bsp.a(alt_isatty.o)
                              c:/altera/13.0sp1/nios2eds/bin/gnu/h-i686-mingw32/bin/../lib/gcc/nios2-elf/4.1.2/../../../../nios2-elf/lib\libc.a(lib_a-isattyr.o) (isatty)
../VGA_Audio_PS2_bsp/\libhal_bsp.a(alt_lseek.o)
                              c:/altera/13.0sp1/nios2eds/bin/gnu/h-i686-mingw32/bin/../lib/gcc/nios2-elf/4.1.2/../../../../nios2-elf/lib\libc.a(lib_a-lseekr.o) (lseek)
../VGA_Audio_PS2_bsp/\libhal_bsp.a(alt_malloc_lock.o)
                              c:/altera/13.0sp1/nios2eds/bin/gnu/h-i686-mingw32/bin/../lib/gcc/nios2-elf/4.1.2/../../../../nios2-elf/lib\libc.a(lib_a-freer.o) (__malloc_lock)
../VGA_Audio_PS2_bsp/\libhal_bsp.a(alt_read.o)
                              c:/altera/13.0sp1/nios2eds/bin/gnu/h-i686-mingw32/bin/../lib/gcc/nios2-elf/4.1.2/../../../../nios2-elf/lib\libc.a(lib_a-readr.o) (read)
../VGA_Audio_PS2_bsp/\libhal_bsp.a(alt_sbrk.o)
                              c:/altera/13.0sp1/nios2eds/bin/gnu/h-i686-mingw32/bin/../lib/gcc/nios2-elf/4.1.2/../../../../nios2-elf/lib\libc.a(lib_a-sbrkr.o) (sbrk)
../VGA_Audio_PS2_bsp/\libhal_bsp.a(alt_write.o)
                              c:/altera/13.0sp1/nios2eds/bin/gnu/h-i686-mingw32/bin/../lib/gcc/nios2-elf/4.1.2/../../../../nios2-elf/lib\libc.a(lib_a-writer.o) (write)

Allocating common symbols
Common symbol       size              file

alt_irq             0x100             ../VGA_Audio_PS2_bsp/\libhal_bsp.a(alt_irq_handler.o)
byte2               0x1               obj/default/globals.o
byte3               0x1               obj/default/globals.o
Play_Index          0x4               obj/default/globals.o
byte1               0x1               obj/default/globals.o
errno               0x4               c:/altera/13.0sp1/nios2eds/bin/gnu/h-i686-mingw32/bin/../lib/gcc/nios2-elf/4.1.2/../../../../nios2-elf/lib\libc.a(lib_a-int_errno.o)
Read_Data           0x4               obj/default/amplitude_calculation.o
XoverFlow           0x4               obj/default/media_interrupt_HAL.o
MiddleBtn           0x4               obj/default/media_interrupt_HAL.o
Out_Ram             0x80              obj/default/media_interrupt_HAL.o
local_b2            0x1               obj/default/globals.o
index_Echo          0x4               obj/default/media_interrupt_HAL.o
local_b1            0x1               obj/default/globals.o
up_dev              0x20              obj/default/globals.o
Echo_End            0x4               obj/default/globals.o
Right_Ram           0x80              obj/default/media_interrupt_HAL.o
Avrage_Hardware     0xf0              obj/default/media_interrupt_HAL.o
Read_Reg0           0x4               obj/default/amplitude_calculation.o
Echo_buf_l          0x1e8480          obj/default/globals.o
Echo_complete       0x4               obj/default/globals.o
nibble_TempY        0x4               obj/default/media_interrupt_HAL.o
nibble_TempX        0x4               obj/default/media_interrupt_HAL.o
Average             0xf0              obj/default/media_interrupt_HAL.o
Play_Flag           0x4               obj/default/globals.o
RightBtn            0x4               obj/default/media_interrupt_HAL.o
r_buf               0x1e8480          obj/default/globals.o
Left_Ram            0x80              obj/default/media_interrupt_HAL.o
Xsign               0x4               obj/default/media_interrupt_HAL.o
Echo_buf_r          0x1e8480          obj/default/globals.o
Clear_Play_Plot     0x4               obj/default/globals.o
End_Record          0x4               obj/default/globals.o
timeout             0x4               obj/default/globals.o
_atexit0            0x190             c:/altera/13.0sp1/nios2eds/bin/gnu/h-i686-mingw32/bin/../lib/gcc/nios2-elf/4.1.2/../../../../nios2-elf/lib\libc.a(lib_a-atexit.o)
Done_Bit            0x4               obj/default/amplitude_calculation.o
count               0x4               obj/default/globals.o
Temp_Sign           0x4               obj/default/media_interrupt_HAL.o
buf_index_play      0x4               obj/default/globals.o
l_buf               0x1e8480          obj/default/globals.o
local_b3            0x1               obj/default/globals.o
LeftBtn             0x4               obj/default/media_interrupt_HAL.o
buf_index_record    0x4               obj/default/globals.o
YoverFlow           0x4               obj/default/media_interrupt_HAL.o
Click_Echo          0x4               obj/default/globals.o
Ysign               0x4               obj/default/media_interrupt_HAL.o

Memory Configuration

Name             Origin             Length             Attributes
reset            0x00000000         0x00000020
SDRAM            0x00000020         0x007fffe0
Flash_flash_data 0x0c000000         0x00400000
*default*        0x00000000         0xffffffff

Linker script and memory map

LOAD ../VGA_Audio_PS2_bsp//obj/HAL/src/crt0.o
LOAD obj/default/PS2_ISR.o
LOAD obj/default/amplitude_calculation.o
LOAD obj/default/audio_ISR.o
LOAD obj/default/globals.o
LOAD obj/default/interval_timer_ISR.o
LOAD obj/default/media_interrupt_HAL.o
LOAD obj/default/pushbutton_ISR.o
LOAD c:/altera/13.0sp1/nios2eds/bin/gnu/h-i686-mingw32/bin/../lib/gcc/nios2-elf/4.1.2/../../../../nios2-elf/lib\libstdc++.a
LOAD c:/altera/13.0sp1/nios2eds/bin/gnu/h-i686-mingw32/bin/../lib/gcc/nios2-elf/4.1.2/../../../../nios2-elf/lib\libm.a
LOAD c:/altera/13.0sp1/nios2eds/bin/gnu/h-i686-mingw32/bin/../lib/gcc/nios2-elf/4.1.2\libgcc.a
START GROUP
LOAD c:/altera/13.0sp1/nios2eds/bin/gnu/h-i686-mingw32/bin/../lib/gcc/nios2-elf/4.1.2/../../../../nios2-elf/lib\libc.a
LOAD c:/altera/13.0sp1/nios2eds/bin/gnu/h-i686-mingw32/bin/../lib/gcc/nios2-elf/4.1.2\libgcc.a
LOAD ../VGA_Audio_PS2_bsp/\libhal_bsp.a
END GROUP
LOAD c:/altera/13.0sp1/nios2eds/bin/gnu/h-i686-mingw32/bin/../lib/gcc/nios2-elf/4.1.2\libgcc.a
                0x00000000                __alt_mem_SDRAM = 0x0
                0x0c000000                __alt_mem_Flash_flash_data = 0xc000000

.entry          0x00000000       0x20
 *(.entry)
 .entry         0x00000000       0x20 ../VGA_Audio_PS2_bsp//obj/HAL/src/crt0.o
                0x00000000                __reset

.exceptions     0x00000020      0x198
                0x00000020                PROVIDE (__ram_exceptions_start, ABSOLUTE (.))
                0x00000020                . = ALIGN (0x20)
 *(.irq)
 *(.exceptions.entry.label)
 .exceptions.entry.label
                0x00000020        0x0 ../VGA_Audio_PS2_bsp/\libhal_bsp.a(alt_irq_entry.o)
                0x00000020                alt_irq_entry
 .exceptions.entry.label
                0x00000020        0x0 ../VGA_Audio_PS2_bsp/\libhal_bsp.a(alt_exception_entry.o)
                0x00000020                alt_exception
 *(.exceptions.entry.user)
 *(.exceptions.entry)
 .exceptions.entry
                0x00000020       0x54 ../VGA_Audio_PS2_bsp/\libhal_bsp.a(alt_exception_entry.o)
 *(.exceptions.irqtest.user)
 *(.exceptions.irqtest)
 .exceptions.irqtest
                0x00000074       0x10 ../VGA_Audio_PS2_bsp/\libhal_bsp.a(alt_irq_entry.o)
 *(.exceptions.irqhandler.user)
 *(.exceptions.irqhandler)
 .exceptions.irqhandler
                0x00000084        0x4 ../VGA_Audio_PS2_bsp/\libhal_bsp.a(alt_irq_entry.o)
 *(.exceptions.irqreturn.user)
 *(.exceptions.irqreturn)
 .exceptions.irqreturn
                0x00000088        0x4 ../VGA_Audio_PS2_bsp/\libhal_bsp.a(alt_irq_entry.o)
 *(.exceptions.notirq.label)
 .exceptions.notirq.label
                0x0000008c        0x0 ../VGA_Audio_PS2_bsp/\libhal_bsp.a(alt_irq_entry.o)
 *(.exceptions.notirq.user)
 *(.exceptions.notirq)
 .exceptions.notirq
                0x0000008c        0x8 ../VGA_Audio_PS2_bsp/\libhal_bsp.a(alt_exception_entry.o)
 *(.exceptions.soft.user)
 *(.exceptions.soft)
 *(.exceptions.unknown.user)
 *(.exceptions.unknown)
 .exceptions.unknown
                0x00000094        0x4 ../VGA_Audio_PS2_bsp/\libhal_bsp.a(alt_exception_entry.o)
 *(.exceptions.exit.label)
 .exceptions.exit.label
                0x00000098        0x0 ../VGA_Audio_PS2_bsp/\libhal_bsp.a(alt_irq_entry.o)
 .exceptions.exit.label
                0x00000098        0x0 ../VGA_Audio_PS2_bsp/\libhal_bsp.a(alt_exception_entry.o)
 *(.exceptions.exit.user)
 *(.exceptions.exit)
 .exceptions.exit
                0x00000098       0x54 ../VGA_Audio_PS2_bsp/\libhal_bsp.a(alt_exception_entry.o)
 *(.exceptions)
 .exceptions    0x000000ec       0xcc ../VGA_Audio_PS2_bsp/\libhal_bsp.a(alt_irq_handler.o)
                0x000000ec                alt_irq_handler
                0x000001b8                PROVIDE (__ram_exceptions_end, ABSOLUTE (.))
                0x00000020                PROVIDE (__flash_exceptions_start, LOADADDR (.exceptions))

.text           0x000001b8     0xb918
                0x000001b8                PROVIDE (stext, ABSOLUTE (.))
 *(.interp)
 *(.hash)
 *(.dynsym)
 *(.dynstr)
 *(.gnu.version)
 *(.gnu.version_d)
 *(.gnu.version_r)
 *(.rel.init)
 *(.rela.init)
 *(.rel.text .rel.text.* .rel.gnu.linkonce.t.*)
 *(.rela.text .rela.text.* .rela.gnu.linkonce.t.*)
 *(.rel.fini)
 *(.rela.fini)
 *(.rel.rodata .rel.rodata.* .rel.gnu.linkonce.r.*)
 *(.rela.rodata .rela.rodata.* .rela.gnu.linkonce.r.*)
 *(.rel.data .rel.data.* .rel.gnu.linkonce.d.*)
 *(.rela.data .rela.data.* .rela.gnu.linkonce.d.*)
 *(.rel.tdata .rel.tdata.* .rel.gnu.linkonce.td.*)
 *(.rela.tdata .rela.tdata.* .rela.gnu.linkonce.td.*)
 *(.rel.tbss .rel.tbss.* .rel.gnu.linkonce.tb.*)
 *(.rela.tbss .rela.tbss.* .rela.gnu.linkonce.tb.*)
 *(.rel.ctors)
 *(.rela.ctors)
 *(.rel.dtors)
 *(.rela.dtors)
 *(.rel.got)
 *(.rela.got)
 *(.rel.sdata .rel.sdata.* .rel.gnu.linkonce.s.*)
 *(.rela.sdata .rela.sdata.* .rela.gnu.linkonce.s.*)
 *(.rel.sbss .rel.sbss.* .rel.gnu.linkonce.sb.*)
 *(.rela.sbss .rela.sbss.* .rela.gnu.linkonce.sb.*)
 *(.rel.sdata2 .rel.sdata2.* .rel.gnu.linkonce.s2.*)
 *(.rela.sdata2 .rela.sdata2.* .rela.gnu.linkonce.s2.*)
 *(.rel.sbss2 .rel.sbss2.* .rel.gnu.linkonce.sb2.*)
 *(.rela.sbss2 .rela.sbss2.* .rela.gnu.linkonce.sb2.*)
 *(.rel.bss .rel.bss.* .rel.gnu.linkonce.b.*)
 *(.rela.bss .rela.bss.* .rela.gnu.linkonce.b.*)
 *(.rel.plt)
 *(.rela.plt)
 *(.rel.dyn)
 *(.init)
 *(.plt)
 *(.text .stub .text.* .gnu.linkonce.t.*)
 .text          0x000001b8       0x3c ../VGA_Audio_PS2_bsp//obj/HAL/src/crt0.o
                0x000001b8                _start
 .text          0x000001f4      0x148 obj/default/PS2_ISR.o
                0x000001f4                PS2_ISR
 .text          0x0000033c      0x300 obj/default/amplitude_calculation.o
                0x0000033c                amplitude_operation
                0x000003ac                amplitude_circute_stop
                0x00000420                amplitude_circute_set_size
                0x00000494                amplitude_circute_set_num
                0x00000508                amplitude_circute_set_rbuff_addr
                0x00000538                amplitude_circute_set_lbuff_addr
                0x00000568                amplitude_circute_set_dest_addr
                0x00000598                amplitude_circute_start
                0x000005cc                amplitude_circute_get_status
 .text          0x0000063c      0x438 obj/default/audio_ISR.o
                0x0000063c                audio_ISR
 .text          0x00000a74        0x0 obj/default/globals.o
 .text          0x00000a74       0x60 obj/default/interval_timer_ISR.o
                0x00000a74                interval_timer_ISR
 .text          0x00000ad4     0x1e58 obj/default/media_interrupt_HAL.o
                0x00000ad4                main
                0x00001d8c                HEXxy_PS2
                0x00002098                Do_Soft_Echo
                0x0000223c                Plot_AudioRecord
                0x000023c8                Audio_Average
                0x000026a0                Plot_Play_Audio
                0x000027ac                Do_Hardware_Calculate
                0x000027f8                Calculate_Avrage
 .text          0x0000292c       0xb8 obj/default/pushbutton_ISR.o
                0x0000292c                pushbutton_ISR
 .text          0x000029e4       0x98 c:/altera/13.0sp1/nios2eds/bin/gnu/h-i686-mingw32/bin/../lib/gcc/nios2-elf/4.1.2\libgcc.a(_muldi3.o)
                0x000029e4                __muldi3
 .text          0x00002a7c      0x680 c:/altera/13.0sp1/nios2eds/bin/gnu/h-i686-mingw32/bin/../lib/gcc/nios2-elf/4.1.2\libgcc.a(_divdi3.o)
                0x00002a7c                __divdi3
 .text          0x000030fc      0x14c c:/altera/13.0sp1/nios2eds/bin/gnu/h-i686-mingw32/bin/../lib/gcc/nios2-elf/4.1.2\libgcc.a(lib2-divmod.o)
                0x00003178                __divsi3
                0x000031d8                __modsi3
                0x00003238                __udivsi3
                0x00003240                __umodsi3
 .text          0x00003248        0x0 c:/altera/13.0sp1/nios2eds/bin/gnu/h-i686-mingw32/bin/../lib/gcc/nios2-elf/4.1.2\libgcc.a(_clz.o)
 .text          0x00003248       0xa0 c:/altera/13.0sp1/nios2eds/bin/gnu/h-i686-mingw32/bin/../lib/gcc/nios2-elf/4.1.2/../../../../nios2-elf/lib\libc.a(lib_a-memcpy.o)
                0x00003248                memcpy
 .text          0x000032e8       0x98 c:/altera/13.0sp1/nios2eds/bin/gnu/h-i686-mingw32/bin/../lib/gcc/nios2-elf/4.1.2/../../../../nios2-elf/lib\libc.a(lib_a-memset.o)
                0x000032e8                memset
 .text          0x00003380      0x1c0 ../VGA_Audio_PS2_bsp/\libhal_bsp.a(alt_irq_register.o)
                0x00003380                alt_irq_register
 .text          0x00003540        0x0 ../VGA_Audio_PS2_bsp/\libhal_bsp.a(alt_irq_vars.o)
 .text          0x00003540       0xec ../VGA_Audio_PS2_bsp/\libhal_bsp.a(alt_load.o)
                0x00003540                alt_load
 .text          0x0000362c       0x6c ../VGA_Audio_PS2_bsp/\libhal_bsp.a(alt_main.o)
                0x0000362c                alt_main
 .text          0x00003698      0x258 ../VGA_Audio_PS2_bsp/\libhal_bsp.a(alt_printf.o)
                0x00003698                alt_printf
 .text          0x000038f0       0x40 ../VGA_Audio_PS2_bsp/\libhal_bsp.a(alt_putchar.o)
                0x000038f0                alt_putchar
 .text          0x00003930      0x46c ../VGA_Audio_PS2_bsp/\libhal_bsp.a(alt_sys_init.o)
                0x00003930                alt_irq_init
                0x00003964                alt_sys_init
 .text          0x00003d9c      0x148 ../VGA_Audio_PS2_bsp/\libhal_bsp.a(altera_avalon_jtag_uart_fd.o)
                0x00003d9c                altera_avalon_jtag_uart_read_fd
                0x00003df4                altera_avalon_jtag_uart_write_fd
                0x00003e4c                altera_avalon_jtag_uart_close_fd
                0x00003e94                altera_avalon_jtag_uart_ioctl_fd
 .text          0x00003ee4      0x408 ../VGA_Audio_PS2_bsp/\libhal_bsp.a(altera_avalon_jtag_uart_init.o)
                0x00003ee4                altera_avalon_jtag_uart_init
                0x00004278                altera_avalon_jtag_uart_close
 .text          0x000042ec       0xf4 ../VGA_Audio_PS2_bsp/\libhal_bsp.a(altera_avalon_jtag_uart_ioctl.o)
                0x000042ec                altera_avalon_jtag_uart_ioctl
 .text          0x000043e0      0x224 ../VGA_Audio_PS2_bsp/\libhal_bsp.a(altera_avalon_jtag_uart_read.o)
                0x000043e0                altera_avalon_jtag_uart_read
 .text          0x00004604      0x240 ../VGA_Audio_PS2_bsp/\libhal_bsp.a(altera_avalon_jtag_uart_write.o)
                0x00004604                altera_avalon_jtag_uart_write
 .text          0x00004844       0xfc ../VGA_Audio_PS2_bsp/\libhal_bsp.a(altera_avalon_timer_sc.o)
                0x000048b8                alt_avalon_timer_sc_init
 .text          0x00004940      0x80c ../VGA_Audio_PS2_bsp/\libhal_bsp.a(altera_up_avalon_audio.o)
                0x00004940                alt_up_audio_open_dev
                0x00004980                alt_up_audio_enable_read_interrupt
                0x000049cc                alt_up_audio_disable_read_interrupt
                0x00004a1c                alt_up_audio_enable_write_interrupt
                0x00004a68                alt_up_audio_disable_write_interrupt
                0x00004ab8                alt_up_audio_read_interrupt_pending
                0x00004af4                alt_up_audio_write_interrupt_pending
                0x00004b30                alt_up_audio_reset_audio_core
                0x00004bb8                alt_up_audio_read_fifo_avail
                0x00004c28                alt_up_audio_record_r
                0x00004c98                alt_up_audio_record_l
                0x00004d08                alt_up_audio_write_fifo_space
                0x00004d7c                alt_up_audio_play_r
                0x00004dec                alt_up_audio_play_l
                0x00004e5c                alt_up_audio_read_fifo
                0x00004f60                alt_up_audio_write_fifo
                0x0000508c                alt_up_audio_read_fifo_head
                0x000050ec                alt_up_audio_write_fifo_head
 .text          0x0000514c      0x530 ../VGA_Audio_PS2_bsp/\libhal_bsp.a(altera_up_avalon_character_lcd.o)
                0x0000514c                get_DDRAM_addr
                0x000051c8                alt_up_character_lcd_send_cmd
                0x000051fc                alt_up_character_lcd_init
                0x00005230                alt_up_character_lcd_open_dev
                0x00005270                alt_up_character_lcd_write
                0x000052e8                alt_up_character_lcd_string
                0x00005360                alt_up_character_lcd_write_fd
                0x000053ac                alt_up_character_lcd_set_cursor_pos
                0x00005424                alt_up_character_lcd_shift_cursor
                0x000054d4                alt_up_character_lcd_shift_display
                0x00005584                alt_up_character_lcd_erase_pos
                0x00005614                alt_up_character_lcd_cursor_off
                0x00005648                alt_up_character_lcd_cursor_blink_on
 .text          0x0000567c      0x150 ../VGA_Audio_PS2_bsp/\libhal_bsp.a(altera_up_avalon_ethernet.o)
                0x0000567c                alt_up_ethernet_init
                0x0000578c                alt_up_ethernet_open_dev
 .text          0x000057cc      0x238 ../VGA_Audio_PS2_bsp/\libhal_bsp.a(altera_up_avalon_ethernet_low_level_driver.o)
                0x000057cc                alt_up_ethernet_reg_read
                0x00005808                alt_up_ethernet_reg_write
                0x0000584c                alt_up_ethernet_phy_reg_read
                0x0000592c                alt_up_ethernet_phy_reg_write
 .text          0x00005a04      0x394 ../VGA_Audio_PS2_bsp/\libhal_bsp.a(altera_up_avalon_irda.o)
                0x00005a04                alt_up_irda_enable_read_interrupt
                0x00005a58                alt_up_irda_disable_read_interrupt
                0x00005ab0                alt_up_irda_get_used_space_in_read_FIFO
                0x00005aec                alt_up_irda_get_available_space_in_write_FIFO
                0x00005b2c                alt_up_irda_check_parity
                0x00005b7c                alt_up_irda_write_data
                0x00005bc4                alt_up_irda_read_data
                0x00005c38                alt_up_irda_read_fd
                0x00005cc8                alt_up_irda_write_fd
                0x00005d58                alt_up_irda_open_dev
 .text          0x00005d98       0x40 ../VGA_Audio_PS2_bsp/\libhal_bsp.a(altera_up_avalon_parallel_port.o)
                0x00005d98                alt_up_parallel_port_open_dev
 .text          0x00005dd8      0x700 ../VGA_Audio_PS2_bsp/\libhal_bsp.a(altera_up_avalon_ps2.o)
                0x00005dd8                read_RI_bit
                0x00005e0c                read_RE_bit
                0x00005e3c                read_CE_bit
                0x00005e70                read_num_bytes_available
                0x00005ea4                read_data_valid
                0x00005ed8                read_data_byte
                0x00005f04                alt_up_ps2_init
                0x00005fd0                alt_up_ps2_enable_read_interrupt
                0x00006024                alt_up_ps2_disable_read_interrupt
                0x0000607c                alt_up_ps2_write_data_byte
                0x000060f4                alt_up_ps2_wait_for_ack
                0x00006164                alt_up_ps2_write_data_byte_with_ack
                0x000061d0                alt_up_ps2_read_data_byte_timeout
                0x00006280                alt_up_ps2_read_data_byte
                0x000062fc                alt_up_ps2_clear_fifo
                0x00006354                alt_up_ps2_read_fd
                0x000063f0                alt_up_ps2_write_fd
                0x00006498                alt_up_ps2_open_dev
 .text          0x000064d8      0x398 ../VGA_Audio_PS2_bsp/\libhal_bsp.a(altera_up_avalon_rs232.o)
                0x000064d8                alt_up_rs232_enable_read_interrupt
                0x0000652c                alt_up_rs232_disable_read_interrupt
                0x00006584                alt_up_rs232_get_used_space_in_read_FIFO
                0x000065c0                alt_up_rs232_get_available_space_in_write_FIFO
                0x00006600                alt_up_rs232_check_parity
                0x00006650                alt_up_rs232_write_data
                0x00006698                alt_up_rs232_read_data
                0x0000670c                alt_up_rs232_read_fd
                0x0000679c                alt_up_rs232_write_fd
                0x00006830                alt_up_rs232_open_dev
 .text          0x00006870      0x304 ../VGA_Audio_PS2_bsp/\libhal_bsp.a(altera_up_avalon_video_character_buffer_with_dma.o)
                0x00006870                alt_up_char_buffer_init
                0x000068f4                alt_up_char_buffer_open_dev
                0x00006934                alt_up_char_buffer_draw
                0x00006a04                alt_up_char_buffer_string
                0x00006b18                alt_up_char_buffer_clear
 .text          0x00006b74     0x156c ../VGA_Audio_PS2_bsp/\libhal_bsp.a(altera_up_avalon_video_pixel_buffer_dma.o)
                0x00006b74                alt_up_pixel_buffer_dma_open_dev
                0x00006bb4                alt_up_pixel_buffer_dma_draw
                0x00006d54                alt_up_pixel_buffer_dma_change_back_buffer_address
                0x00006dac                alt_up_pixel_buffer_dma_swap_buffers
                0x00006e04                alt_up_pixel_buffer_dma_check_swap_buffers_status
                0x00006e38                alt_up_pixel_buffer_dma_clear_screen
                0x00006f9c                alt_up_pixel_buffer_dma_draw_box
                0x00007490                alt_up_pixel_buffer_dma_draw_hline
                0x000077e0                alt_up_pixel_buffer_dma_draw_vline
                0x00007bb0                alt_up_pixel_buffer_dma_draw_rectangle
                0x00007c74                helper_plot_pixel
                0x00007d44                alt_up_pixel_buffer_dma_draw_line
 .text          0x000080e0      0x154 ../VGA_Audio_PS2_bsp/\libhal_bsp.a(alt_alarm_start.o)
                0x000080e0                alt_alarm_start
 .text          0x00008234      0x15c ../VGA_Audio_PS2_bsp/\libhal_bsp.a(alt_close.o)
                0x00008234                close
 .text          0x00008390       0x1c ../VGA_Audio_PS2_bsp/\libhal_bsp.a(alt_dcache_flush_all.o)
                0x00008390                alt_dcache_flush_all
 .text          0x000083ac       0x2c ../VGA_Audio_PS2_bsp/\libhal_bsp.a(alt_dev.o)
 .text          0x000083d8      0x114 ../VGA_Audio_PS2_bsp/\libhal_bsp.a(alt_dev_llist_insert.o)
                0x000083d8                alt_dev_llist_insert
 .text          0x000084ec       0x64 ../VGA_Audio_PS2_bsp/\libhal_bsp.a(alt_do_ctors.o)
                0x000084ec                _do_ctors
 .text          0x00008550       0x64 ../VGA_Audio_PS2_bsp/\libhal_bsp.a(alt_do_dtors.o)
                0x00008550                _do_dtors
 .text          0x000085b4        0x0 ../VGA_Audio_PS2_bsp/\libhal_bsp.a(alt_errno.o)
 .text          0x000085b4       0x94 ../VGA_Audio_PS2_bsp/\libhal_bsp.a(alt_find_dev.o)
                0x000085b4                alt_find_dev
 .text          0x00008648       0x30 ../VGA_Audio_PS2_bsp/\libhal_bsp.a(alt_icache_flush_all.o)
                0x00008648                alt_icache_flush_all
 .text          0x00008678      0x13c ../VGA_Audio_PS2_bsp/\libhal_bsp.a(alt_io_redirect.o)
                0x0000873c                alt_io_redirect
 .text          0x000087b4        0x0 ../VGA_Audio_PS2_bsp/\libhal_bsp.a(alt_irq_entry.o)
 .text          0x000087b4        0x0 ../VGA_Audio_PS2_bsp/\libhal_bsp.a(alt_irq_handler.o)
 .text          0x000087b4      0x2c4 ../VGA_Audio_PS2_bsp/\libhal_bsp.a(alt_open.o)
                0x00008890                open
 .text          0x00008a78       0x60 ../VGA_Audio_PS2_bsp/\libhal_bsp.a(alt_release_fd.o)
                0x00008a78                alt_release_fd
 .text          0x00008ad8      0x1a4 ../VGA_Audio_PS2_bsp/\libhal_bsp.a(alt_tick.o)
                0x00008ad8                alt_alarm_stop
                0x00008b70                alt_tick
 .text          0x00008c7c       0x30 ../VGA_Audio_PS2_bsp/\libhal_bsp.a(alt_usleep.o)
                0x00008c7c                usleep
 .text          0x00008cac       0x20 ../VGA_Audio_PS2_bsp/\libhal_bsp.a(altera_nios2_qsys_irq.o)
                0x00008cac                altera_nios2_qsys_irq_init
 .text          0x00008ccc      0x12c ../VGA_Audio_PS2_bsp/\libhal_bsp.a(alt_busy_sleep.o)
                0x00008ccc                alt_busy_sleep
 .text          0x00008df8        0x0 ../VGA_Audio_PS2_bsp/\libhal_bsp.a(alt_exception_entry.o)
 .text          0x00008df8      0x120 ../VGA_Audio_PS2_bsp/\libhal_bsp.a(alt_find_file.o)
                0x00008df8                alt_find_file
 .text          0x00008f18       0xb8 ../VGA_Audio_PS2_bsp/\libhal_bsp.a(alt_get_fd.o)
                0x00008f18                alt_get_fd
 .text          0x00008fd0       0x90 ../VGA_Audio_PS2_bsp/\libhal_bsp.a(alt_icache_flush.o)
                0x00008fd0                alt_icache_flush
 .text          0x00009060       0x14 c:/altera/13.0sp1/nios2eds/bin/gnu/h-i686-mingw32/bin/../lib/gcc/nios2-elf/4.1.2/../../../../nios2-elf/lib\libc.a(lib_a-atexit.o)
                0x00009060                atexit
 .text          0x00009074       0x38 c:/altera/13.0sp1/nios2eds/bin/gnu/h-i686-mingw32/bin/../lib/gcc/nios2-elf/4.1.2/../../../../nios2-elf/lib\libc.a(lib_a-exit.o)
                0x00009074                exit
 .text          0x000090ac        0x0 c:/altera/13.0sp1/nios2eds/bin/gnu/h-i686-mingw32/bin/../lib/gcc/nios2-elf/4.1.2/../../../../nios2-elf/lib\libc.a(lib_a-impure.o)
 .text          0x000090ac        0x0 c:/altera/13.0sp1/nios2eds/bin/gnu/h-i686-mingw32/bin/../lib/gcc/nios2-elf/4.1.2/../../../../nios2-elf/lib\libc.a(lib_a-int_errno.o)
 .text          0x000090ac       0x74 c:/altera/13.0sp1/nios2eds/bin/gnu/h-i686-mingw32/bin/../lib/gcc/nios2-elf/4.1.2/../../../../nios2-elf/lib\libc.a(lib_a-memcmp.o)
                0x000090ac                memcmp
 .text          0x00009120      0x1ec c:/altera/13.0sp1/nios2eds/bin/gnu/h-i686-mingw32/bin/../lib/gcc/nios2-elf/4.1.2/../../../../nios2-elf/lib\libc.a(lib_a-putc.o)
                0x00009120                putc
                0x00009224                _putc_r
 .text          0x0000930c       0xbc c:/altera/13.0sp1/nios2eds/bin/gnu/h-i686-mingw32/bin/../lib/gcc/nios2-elf/4.1.2/../../../../nios2-elf/lib\libc.a(lib_a-strcmp.o)
                0x0000930c                strcmp
 .text          0x000093c8       0x74 c:/altera/13.0sp1/nios2eds/bin/gnu/h-i686-mingw32/bin/../lib/gcc/nios2-elf/4.1.2/../../../../nios2-elf/lib\libc.a(lib_a-strlen.o)
                0x000093c8                strlen
 .text          0x0000943c      0x14c c:/altera/13.0sp1/nios2eds/bin/gnu/h-i686-mingw32/bin/../lib/gcc/nios2-elf/4.1.2/../../../../nios2-elf/lib\libc.a(lib_a-wbuf.o)
                0x0000943c                __swbuf_r
                0x0000956c                __swbuf
 .text          0x00009588      0x13c c:/altera/13.0sp1/nios2eds/bin/gnu/h-i686-mingw32/bin/../lib/gcc/nios2-elf/4.1.2/../../../../nios2-elf/lib\libc.a(lib_a-wsetup.o)
                0x00009588                __swsetup_r
 .text          0x000096c4      0x134 c:/altera/13.0sp1/nios2eds/bin/gnu/h-i686-mingw32/bin/../lib/gcc/nios2-elf/4.1.2/../../../../nios2-elf/lib\libc.a(lib_a-__atexit.o)
                0x000096c4                __register_exitproc
 .text          0x000097f8      0x1b4 c:/altera/13.0sp1/nios2eds/bin/gnu/h-i686-mingw32/bin/../lib/gcc/nios2-elf/4.1.2/../../../../nios2-elf/lib\libc.a(lib_a-__call_atexit.o)
                0x000097fc                __call_exitprocs
 .text          0x000099ac      0x230 c:/altera/13.0sp1/nios2eds/bin/gnu/h-i686-mingw32/bin/../lib/gcc/nios2-elf/4.1.2/../../../../nios2-elf/lib\libc.a(lib_a-fflush.o)
                0x000099ac                _fflush_r
                0x00009ba8                fflush
 .text          0x00009bdc      0x2c0 c:/altera/13.0sp1/nios2eds/bin/gnu/h-i686-mingw32/bin/../lib/gcc/nios2-elf/4.1.2/../../../../nios2-elf/lib\libc.a(lib_a-findfp.o)
                0x00009c34                __sfp_lock_acquire
                0x00009c38                __sfp_lock_release
                0x00009c3c                __sinit_lock_acquire
                0x00009c40                __sinit_lock_release
                0x00009c44                __sinit
                0x00009cf8                __fp_unlock_all
                0x00009d10                __fp_lock_all
                0x00009d28                _cleanup_r
                0x00009d34                _cleanup
                0x00009d44                __sfmoreglue
                0x00009dac                __sfp
 .text          0x00009e9c      0x440 c:/altera/13.0sp1/nios2eds/bin/gnu/h-i686-mingw32/bin/../lib/gcc/nios2-elf/4.1.2/../../../../nios2-elf/lib\libc.a(lib_a-freer.o)
                0x00009e9c                _malloc_trim_r
                0x00009fc8                _free_r
 .text          0x0000a2dc      0x180 c:/altera/13.0sp1/nios2eds/bin/gnu/h-i686-mingw32/bin/../lib/gcc/nios2-elf/4.1.2/../../../../nios2-elf/lib\libc.a(lib_a-fwalk.o)
                0x0000a2dc                _fwalk_reent
                0x0000a3a4                _fwalk
 .text          0x0000a45c      0x194 c:/altera/13.0sp1/nios2eds/bin/gnu/h-i686-mingw32/bin/../lib/gcc/nios2-elf/4.1.2/../../../../nios2-elf/lib\libc.a(lib_a-makebuf.o)
                0x0000a45c                __smakebuf_r
 .text          0x0000a5f0      0x740 c:/altera/13.0sp1/nios2eds/bin/gnu/h-i686-mingw32/bin/../lib/gcc/nios2-elf/4.1.2/../../../../nios2-elf/lib\libc.a(lib_a-mallocr.o)
                0x0000a5f0                _malloc_r
 .text          0x0000ad30       0x70 c:/altera/13.0sp1/nios2eds/bin/gnu/h-i686-mingw32/bin/../lib/gcc/nios2-elf/4.1.2/../../../../nios2-elf/lib\libc.a(lib_a-sbrkr.o)
                0x0000ad30                _sbrk_r
 .text          0x0000ada0      0x14c c:/altera/13.0sp1/nios2eds/bin/gnu/h-i686-mingw32/bin/../lib/gcc/nios2-elf/4.1.2/../../../../nios2-elf/lib\libc.a(lib_a-stdio.o)
                0x0000ada0                __sclose
                0x0000ada8                __sseek
                0x0000ae10                __swrite
                0x0000ae8c                __sread
 .text          0x0000aeec       0x78 c:/altera/13.0sp1/nios2eds/bin/gnu/h-i686-mingw32/bin/../lib/gcc/nios2-elf/4.1.2/../../../../nios2-elf/lib\libc.a(lib_a-writer.o)
                0x0000aeec                _write_r
 .text          0x0000af64       0x70 c:/altera/13.0sp1/nios2eds/bin/gnu/h-i686-mingw32/bin/../lib/gcc/nios2-elf/4.1.2/../../../../nios2-elf/lib\libc.a(lib_a-closer.o)
                0x0000af64                _close_r
 .text          0x0000afd4      0x124 c:/altera/13.0sp1/nios2eds/bin/gnu/h-i686-mingw32/bin/../lib/gcc/nios2-elf/4.1.2/../../../../nios2-elf/lib\libc.a(lib_a-fclose.o)
                0x0000afd4                _fclose_r
                0x0000b0e4                fclose
 .text          0x0000b0f8       0x74 c:/altera/13.0sp1/nios2eds/bin/gnu/h-i686-mingw32/bin/../lib/gcc/nios2-elf/4.1.2/../../../../nios2-elf/lib\libc.a(lib_a-fstatr.o)
                0x0000b0f8                _fstat_r
 .text          0x0000b16c       0x70 c:/altera/13.0sp1/nios2eds/bin/gnu/h-i686-mingw32/bin/../lib/gcc/nios2-elf/4.1.2/../../../../nios2-elf/lib\libc.a(lib_a-isattyr.o)
                0x0000b16c                _isatty_r
 .text          0x0000b1dc       0x78 c:/altera/13.0sp1/nios2eds/bin/gnu/h-i686-mingw32/bin/../lib/gcc/nios2-elf/4.1.2/../../../../nios2-elf/lib\libc.a(lib_a-lseekr.o)
                0x0000b1dc                _lseek_r
 .text          0x0000b254       0x78 c:/altera/13.0sp1/nios2eds/bin/gnu/h-i686-mingw32/bin/../lib/gcc/nios2-elf/4.1.2/../../../../nios2-elf/lib\libc.a(lib_a-readr.o)
                0x0000b254                _read_r
 .text          0x0000b2cc       0x60 ../VGA_Audio_PS2_bsp/\libhal_bsp.a(alt_exit.o)
                0x0000b30c                _exit
 .text          0x0000b32c      0x134 ../VGA_Audio_PS2_bsp/\libhal_bsp.a(alt_fstat.o)
                0x0000b32c                fstat
 .text          0x0000b460      0x120 ../VGA_Audio_PS2_bsp/\libhal_bsp.a(alt_isatty.o)
                0x0000b460                isatty
 .text          0x0000b580      0x150 ../VGA_Audio_PS2_bsp/\libhal_bsp.a(alt_lseek.o)
                0x0000b580                lseek
 .text          0x0000b6d0       0x40 ../VGA_Audio_PS2_bsp/\libhal_bsp.a(alt_malloc_lock.o)
                0x0000b6d0                __malloc_lock
                0x0000b6f0                __malloc_unlock
 .text          0x0000b710      0x180 ../VGA_Audio_PS2_bsp/\libhal_bsp.a(alt_read.o)
                0x0000b710                read
 .text          0x0000b890       0xbc ../VGA_Audio_PS2_bsp/\libhal_bsp.a(alt_sbrk.o)
                0x0000b890                sbrk
 .text          0x0000b94c      0x180 ../VGA_Audio_PS2_bsp/\libhal_bsp.a(alt_write.o)
                0x0000b94c                write
 *(.gnu.warning.*)
 *(.fini)
                0x0000bacc                PROVIDE (__etext, ABSOLUTE (.))
                0x0000bacc                PROVIDE (_etext, ABSOLUTE (.))
                0x0000bacc                PROVIDE (etext, ABSOLUTE (.))
 *(.eh_frame_hdr)
                0x0000bacc                . = ALIGN (0x4)
                0x0000bacc                PROVIDE (__preinit_array_start, ABSOLUTE (.))
 *(.preinit_array)
                0x0000bacc                PROVIDE (__preinit_array_end, ABSOLUTE (.))
                0x0000bacc                PROVIDE (__init_array_start, ABSOLUTE (.))
 *(.init_array)
                0x0000bacc                PROVIDE (__init_array_end, ABSOLUTE (.))
                0x0000bacc                PROVIDE (__fini_array_start, ABSOLUTE (.))
 *(.fini_array)
                0x0000bacc                PROVIDE (__fini_array_end, ABSOLUTE (.))
 *(.eh_frame)
 *(.gcc_except_table)
 *(.dynamic)
                0x0000bacc                PROVIDE (__CTOR_LIST__, ABSOLUTE (.))
 *(.ctors)
 *(SORT(.ctors.*))
 .ctors.65535   0x0000bacc        0x4 c:/altera/13.0sp1/nios2eds/bin/gnu/h-i686-mingw32/bin/../lib/gcc/nios2-elf/4.1.2/../../../../nios2-elf/lib\libc.a(lib_a-__call_atexit.o)
                0x0000bad0                PROVIDE (__CTOR_END__, ABSOLUTE (.))
                0x0000bad0                PROVIDE (__DTOR_LIST__, ABSOLUTE (.))
 *(.dtors)
 *(SORT(.dtors.*))
                0x0000bad0                PROVIDE (__DTOR_END__, ABSOLUTE (.))
 *(.jcr)
                0x0000bad0                . = ALIGN (0x4)

.rodata         0x0000bad0      0x62c
                0x0000bad0                PROVIDE (__ram_rodata_start, ABSOLUTE (.))
                0x0000bad0                . = ALIGN (0x4)
 *(.rodata .rodata.* .gnu.linkonce.r.*)
 .rodata        0x0000bad0      0x374 obj/default/media_interrupt_HAL.o
 .rodata        0x0000be44      0x100 c:/altera/13.0sp1/nios2eds/bin/gnu/h-i686-mingw32/bin/../lib/gcc/nios2-elf/4.1.2\libgcc.a(_clz.o)
                0x0000be44                __clz_tab
 .rodata        0x0000bf44       0x10 ../VGA_Audio_PS2_bsp/\libhal_bsp.a(alt_main.o)
 .rodata        0x0000bf54      0x17c ../VGA_Audio_PS2_bsp/\libhal_bsp.a(alt_sys_init.o)
 .rodata        0x0000c0d0       0x1c ../VGA_Audio_PS2_bsp/\libhal_bsp.a(altera_up_avalon_video_character_buffer_with_dma.o)
 .rodata        0x0000c0ec        0xc ../VGA_Audio_PS2_bsp/\libhal_bsp.a(alt_dev.o)
 .rodata.str1.4
                0x0000c0f8        0x4 c:/altera/13.0sp1/nios2eds/bin/gnu/h-i686-mingw32/bin/../lib/gcc/nios2-elf/4.1.2/../../../../nios2-elf/lib\libc.a(lib_a-impure.o)
 *(.rodata1)
                0x0000c0fc                . = ALIGN (0x4)
                0x0000c0fc                PROVIDE (__ram_rodata_end, ABSOLUTE (.))
                0x0000bad0                PROVIDE (__flash_rodata_start, LOADADDR (.rodata))

.rwdata         0x0000c0fc     0x207c load address 0x0000e178
                0x0000c0fc                PROVIDE (__ram_rwdata_start, ABSOLUTE (.))
                0x0000c0fc                . = ALIGN (0x4)
 *(.got.plt)
 *(.got)
 *(.data1)
 *(.data .data.* .gnu.linkonce.d.*)
 .data          0x0000c0fc        0x0 ../VGA_Audio_PS2_bsp//obj/HAL/src/crt0.o
 .data          0x0000c0fc        0x0 obj/default/PS2_ISR.o
 .data          0x0000c0fc        0x0 obj/default/amplitude_calculation.o
 .data          0x0000c0fc        0x0 obj/default/audio_ISR.o
 .data          0x0000c0fc        0x0 obj/default/globals.o
 .data          0x0000c0fc        0x0 obj/default/interval_timer_ISR.o
 .data          0x0000c0fc      0x280 obj/default/media_interrupt_HAL.o
                0x0000c0fc                coeff
                0x0000c17c                Mouse_Icon
 .data          0x0000c37c        0x0 obj/default/pushbutton_ISR.o
 .data          0x0000c37c        0x0 c:/altera/13.0sp1/nios2eds/bin/gnu/h-i686-mingw32/bin/../lib/gcc/nios2-elf/4.1.2\libgcc.a(_muldi3.o)
 .data          0x0000c37c        0x0 c:/altera/13.0sp1/nios2eds/bin/gnu/h-i686-mingw32/bin/../lib/gcc/nios2-elf/4.1.2\libgcc.a(_divdi3.o)
 .data          0x0000c37c        0x0 c:/altera/13.0sp1/nios2eds/bin/gnu/h-i686-mingw32/bin/../lib/gcc/nios2-elf/4.1.2\libgcc.a(lib2-divmod.o)
 .data          0x0000c37c        0x0 c:/altera/13.0sp1/nios2eds/bin/gnu/h-i686-mingw32/bin/../lib/gcc/nios2-elf/4.1.2\libgcc.a(_clz.o)
 .data          0x0000c37c        0x0 c:/altera/13.0sp1/nios2eds/bin/gnu/h-i686-mingw32/bin/../lib/gcc/nios2-elf/4.1.2/../../../../nios2-elf/lib\libc.a(lib_a-memcpy.o)
 .data          0x0000c37c        0x0 c:/altera/13.0sp1/nios2eds/bin/gnu/h-i686-mingw32/bin/../lib/gcc/nios2-elf/4.1.2/../../../../nios2-elf/lib\libc.a(lib_a-memset.o)
 .data          0x0000c37c        0x0 ../VGA_Audio_PS2_bsp/\libhal_bsp.a(alt_irq_register.o)
 .data          0x0000c37c        0x0 ../VGA_Audio_PS2_bsp/\libhal_bsp.a(alt_irq_vars.o)
 .data          0x0000c37c        0x0 ../VGA_Audio_PS2_bsp/\libhal_bsp.a(alt_load.o)
 .data          0x0000c37c        0x0 ../VGA_Audio_PS2_bsp/\libhal_bsp.a(alt_main.o)
 .data          0x0000c37c        0x0 ../VGA_Audio_PS2_bsp/\libhal_bsp.a(alt_printf.o)
 .data          0x0000c37c        0x0 ../VGA_Audio_PS2_bsp/\libhal_bsp.a(alt_putchar.o)
 .data          0x0000c37c     0x1414 ../VGA_Audio_PS2_bsp/\libhal_bsp.a(alt_sys_init.o)
 .data          0x0000d790        0x0 ../VGA_Audio_PS2_bsp/\libhal_bsp.a(altera_avalon_jtag_uart_fd.o)
 .data          0x0000d790        0x0 ../VGA_Audio_PS2_bsp/\libhal_bsp.a(altera_avalon_jtag_uart_init.o)
 .data          0x0000d790        0x0 ../VGA_Audio_PS2_bsp/\libhal_bsp.a(altera_avalon_jtag_uart_ioctl.o)
 .data          0x0000d790        0x0 ../VGA_Audio_PS2_bsp/\libhal_bsp.a(altera_avalon_jtag_uart_read.o)
 .data          0x0000d790        0x0 ../VGA_Audio_PS2_bsp/\libhal_bsp.a(altera_avalon_jtag_uart_write.o)
 .data          0x0000d790        0x0 ../VGA_Audio_PS2_bsp/\libhal_bsp.a(altera_avalon_timer_sc.o)
 .data          0x0000d790        0x0 ../VGA_Audio_PS2_bsp/\libhal_bsp.a(altera_up_avalon_audio.o)
 .data          0x0000d790        0x0 ../VGA_Audio_PS2_bsp/\libhal_bsp.a(altera_up_avalon_character_lcd.o)
 .data          0x0000d790        0x0 ../VGA_Audio_PS2_bsp/\libhal_bsp.a(altera_up_avalon_ethernet.o)
 .data          0x0000d790        0x0 ../VGA_Audio_PS2_bsp/\libhal_bsp.a(altera_up_avalon_ethernet_low_level_driver.o)
 .data          0x0000d790        0x0 ../VGA_Audio_PS2_bsp/\libhal_bsp.a(altera_up_avalon_irda.o)
 .data          0x0000d790        0x0 ../VGA_Audio_PS2_bsp/\libhal_bsp.a(altera_up_avalon_parallel_port.o)
 .data          0x0000d790        0x0 ../VGA_Audio_PS2_bsp/\libhal_bsp.a(altera_up_avalon_ps2.o)
 .data          0x0000d790        0x0 ../VGA_Audio_PS2_bsp/\libhal_bsp.a(altera_up_avalon_rs232.o)
 .data          0x0000d790        0x0 ../VGA_Audio_PS2_bsp/\libhal_bsp.a(altera_up_avalon_video_character_buffer_with_dma.o)
 .data          0x0000d790        0x0 ../VGA_Audio_PS2_bsp/\libhal_bsp.a(altera_up_avalon_video_pixel_buffer_dma.o)
 .data          0x0000d790        0x0 ../VGA_Audio_PS2_bsp/\libhal_bsp.a(alt_alarm_start.o)
 .data          0x0000d790        0x0 ../VGA_Audio_PS2_bsp/\libhal_bsp.a(alt_close.o)
 .data          0x0000d790        0x0 ../VGA_Audio_PS2_bsp/\libhal_bsp.a(alt_dcache_flush_all.o)
 .data          0x0000d790      0x1a8 ../VGA_Audio_PS2_bsp/\libhal_bsp.a(alt_dev.o)
                0x0000d790                alt_dev_null
                0x0000d7b8                alt_fd_list
 .data          0x0000d938        0x0 ../VGA_Audio_PS2_bsp/\libhal_bsp.a(alt_dev_llist_insert.o)
 .data          0x0000d938        0x0 ../VGA_Audio_PS2_bsp/\libhal_bsp.a(alt_do_ctors.o)
 .data          0x0000d938        0x0 ../VGA_Audio_PS2_bsp/\libhal_bsp.a(alt_do_dtors.o)
 .data          0x0000d938        0x0 ../VGA_Audio_PS2_bsp/\libhal_bsp.a(alt_errno.o)
 .data          0x0000d938        0x0 ../VGA_Audio_PS2_bsp/\libhal_bsp.a(alt_find_dev.o)
 .data          0x0000d938        0x0 ../VGA_Audio_PS2_bsp/\libhal_bsp.a(alt_icache_flush_all.o)
 .data          0x0000d938        0x0 ../VGA_Audio_PS2_bsp/\libhal_bsp.a(alt_io_redirect.o)
 .data          0x0000d938        0x0 ../VGA_Audio_PS2_bsp/\libhal_bsp.a(alt_irq_entry.o)
 .data          0x0000d938        0x0 ../VGA_Audio_PS2_bsp/\libhal_bsp.a(alt_irq_handler.o)
 .data          0x0000d938        0x0 ../VGA_Audio_PS2_bsp/\libhal_bsp.a(alt_open.o)
 .data          0x0000d938        0x0 ../VGA_Audio_PS2_bsp/\libhal_bsp.a(alt_release_fd.o)
 .data          0x0000d938        0x0 ../VGA_Audio_PS2_bsp/\libhal_bsp.a(alt_tick.o)
 .data          0x0000d938        0x0 ../VGA_Audio_PS2_bsp/\libhal_bsp.a(alt_usleep.o)
 .data          0x0000d938        0x0 ../VGA_Audio_PS2_bsp/\libhal_bsp.a(altera_nios2_qsys_irq.o)
 .data          0x0000d938        0x0 ../VGA_Audio_PS2_bsp/\libhal_bsp.a(alt_busy_sleep.o)
 .data          0x0000d938        0x0 ../VGA_Audio_PS2_bsp/\libhal_bsp.a(alt_exception_entry.o)
 .data          0x0000d938        0x0 ../VGA_Audio_PS2_bsp/\libhal_bsp.a(alt_find_file.o)
 .data          0x0000d938        0x0 ../VGA_Audio_PS2_bsp/\libhal_bsp.a(alt_get_fd.o)
 .data          0x0000d938        0x0 ../VGA_Audio_PS2_bsp/\libhal_bsp.a(alt_icache_flush.o)
 .data          0x0000d938        0x0 c:/altera/13.0sp1/nios2eds/bin/gnu/h-i686-mingw32/bin/../lib/gcc/nios2-elf/4.1.2/../../../../nios2-elf/lib\libc.a(lib_a-atexit.o)
 .data          0x0000d938        0x0 c:/altera/13.0sp1/nios2eds/bin/gnu/h-i686-mingw32/bin/../lib/gcc/nios2-elf/4.1.2/../../../../nios2-elf/lib\libc.a(lib_a-exit.o)
 .data          0x0000d938      0x400 c:/altera/13.0sp1/nios2eds/bin/gnu/h-i686-mingw32/bin/../lib/gcc/nios2-elf/4.1.2/../../../../nios2-elf/lib\libc.a(lib_a-impure.o)
 .data          0x0000dd38        0x0 c:/altera/13.0sp1/nios2eds/bin/gnu/h-i686-mingw32/bin/../lib/gcc/nios2-elf/4.1.2/../../../../nios2-elf/lib\libc.a(lib_a-int_errno.o)
 .data          0x0000dd38        0x0 c:/altera/13.0sp1/nios2eds/bin/gnu/h-i686-mingw32/bin/../lib/gcc/nios2-elf/4.1.2/../../../../nios2-elf/lib\libc.a(lib_a-memcmp.o)
 .data          0x0000dd38        0x0 c:/altera/13.0sp1/nios2eds/bin/gnu/h-i686-mingw32/bin/../lib/gcc/nios2-elf/4.1.2/../../../../nios2-elf/lib\libc.a(lib_a-putc.o)
 .data          0x0000dd38        0x0 c:/altera/13.0sp1/nios2eds/bin/gnu/h-i686-mingw32/bin/../lib/gcc/nios2-elf/4.1.2/../../../../nios2-elf/lib\libc.a(lib_a-strcmp.o)
 .data          0x0000dd38        0x0 c:/altera/13.0sp1/nios2eds/bin/gnu/h-i686-mingw32/bin/../lib/gcc/nios2-elf/4.1.2/../../../../nios2-elf/lib\libc.a(lib_a-strlen.o)
 .data          0x0000dd38        0x0 c:/altera/13.0sp1/nios2eds/bin/gnu/h-i686-mingw32/bin/../lib/gcc/nios2-elf/4.1.2/../../../../nios2-elf/lib\libc.a(lib_a-wbuf.o)
 .data          0x0000dd38        0x0 c:/altera/13.0sp1/nios2eds/bin/gnu/h-i686-mingw32/bin/../lib/gcc/nios2-elf/4.1.2/../../../../nios2-elf/lib\libc.a(lib_a-wsetup.o)
 .data          0x0000dd38        0x0 c:/altera/13.0sp1/nios2eds/bin/gnu/h-i686-mingw32/bin/../lib/gcc/nios2-elf/4.1.2/../../../../nios2-elf/lib\libc.a(lib_a-__atexit.o)
 .data          0x0000dd38        0x0 c:/altera/13.0sp1/nios2eds/bin/gnu/h-i686-mingw32/bin/../lib/gcc/nios2-elf/4.1.2/../../../../nios2-elf/lib\libc.a(lib_a-__call_atexit.o)
 .data          0x0000dd38        0x0 c:/altera/13.0sp1/nios2eds/bin/gnu/h-i686-mingw32/bin/../lib/gcc/nios2-elf/4.1.2/../../../../nios2-elf/lib\libc.a(lib_a-fflush.o)
 .data          0x0000dd38        0x0 c:/altera/13.0sp1/nios2eds/bin/gnu/h-i686-mingw32/bin/../lib/gcc/nios2-elf/4.1.2/../../../../nios2-elf/lib\libc.a(lib_a-findfp.o)
 .data          0x0000dd38        0x0 c:/altera/13.0sp1/nios2eds/bin/gnu/h-i686-mingw32/bin/../lib/gcc/nios2-elf/4.1.2/../../../../nios2-elf/lib\libc.a(lib_a-freer.o)
 .data          0x0000dd38        0x0 c:/altera/13.0sp1/nios2eds/bin/gnu/h-i686-mingw32/bin/../lib/gcc/nios2-elf/4.1.2/../../../../nios2-elf/lib\libc.a(lib_a-fwalk.o)
 .data          0x0000dd38        0x0 c:/altera/13.0sp1/nios2eds/bin/gnu/h-i686-mingw32/bin/../lib/gcc/nios2-elf/4.1.2/../../../../nios2-elf/lib\libc.a(lib_a-makebuf.o)
 .data          0x0000dd38      0x408 c:/altera/13.0sp1/nios2eds/bin/gnu/h-i686-mingw32/bin/../lib/gcc/nios2-elf/4.1.2/../../../../nios2-elf/lib\libc.a(lib_a-mallocr.o)
                0x0000dd38                __malloc_av_
 .data          0x0000e140        0x0 c:/altera/13.0sp1/nios2eds/bin/gnu/h-i686-mingw32/bin/../lib/gcc/nios2-elf/4.1.2/../../../../nios2-elf/lib\libc.a(lib_a-sbrkr.o)
 .data          0x0000e140        0x0 c:/altera/13.0sp1/nios2eds/bin/gnu/h-i686-mingw32/bin/../lib/gcc/nios2-elf/4.1.2/../../../../nios2-elf/lib\libc.a(lib_a-stdio.o)
 .data          0x0000e140        0x0 c:/altera/13.0sp1/nios2eds/bin/gnu/h-i686-mingw32/bin/../lib/gcc/nios2-elf/4.1.2/../../../../nios2-elf/lib\libc.a(lib_a-writer.o)
 .data          0x0000e140        0x0 c:/altera/13.0sp1/nios2eds/bin/gnu/h-i686-mingw32/bin/../lib/gcc/nios2-elf/4.1.2/../../../../nios2-elf/lib\libc.a(lib_a-closer.o)
 .data          0x0000e140        0x0 c:/altera/13.0sp1/nios2eds/bin/gnu/h-i686-mingw32/bin/../lib/gcc/nios2-elf/4.1.2/../../../../nios2-elf/lib\libc.a(lib_a-fclose.o)
 .data          0x0000e140        0x0 c:/altera/13.0sp1/nios2eds/bin/gnu/h-i686-mingw32/bin/../lib/gcc/nios2-elf/4.1.2/../../../../nios2-elf/lib\libc.a(lib_a-fstatr.o)
 .data          0x0000e140        0x0 c:/altera/13.0sp1/nios2eds/bin/gnu/h-i686-mingw32/bin/../lib/gcc/nios2-elf/4.1.2/../../../../nios2-elf/lib\libc.a(lib_a-isattyr.o)
 .data          0x0000e140        0x0 c:/altera/13.0sp1/nios2eds/bin/gnu/h-i686-mingw32/bin/../lib/gcc/nios2-elf/4.1.2/../../../../nios2-elf/lib\libc.a(lib_a-lseekr.o)
 .data          0x0000e140        0x0 c:/altera/13.0sp1/nios2eds/bin/gnu/h-i686-mingw32/bin/../lib/gcc/nios2-elf/4.1.2/../../../../nios2-elf/lib\libc.a(lib_a-readr.o)
 .data          0x0000e140        0x0 ../VGA_Audio_PS2_bsp/\libhal_bsp.a(alt_exit.o)
 .data          0x0000e140        0x0 ../VGA_Audio_PS2_bsp/\libhal_bsp.a(alt_fstat.o)
 .data          0x0000e140        0x0 ../VGA_Audio_PS2_bsp/\libhal_bsp.a(alt_isatty.o)
 .data          0x0000e140        0x0 ../VGA_Audio_PS2_bsp/\libhal_bsp.a(alt_lseek.o)
 .data          0x0000e140        0x0 ../VGA_Audio_PS2_bsp/\libhal_bsp.a(alt_malloc_lock.o)
 .data          0x0000e140        0x0 ../VGA_Audio_PS2_bsp/\libhal_bsp.a(alt_read.o)
 .data          0x0000e140        0x0 ../VGA_Audio_PS2_bsp/\libhal_bsp.a(alt_sbrk.o)
 .data          0x0000e140        0x0 ../VGA_Audio_PS2_bsp/\libhal_bsp.a(alt_write.o)
                0x00016140                _gp = ABSOLUTE ((. + 0x8000))
                0x00016140                PROVIDE (gp, _gp)
 *(.rwdata .rwdata.*)
 *(.sdata .sdata.* .gnu.linkonce.s.*)
 .sdata         0x0000e140        0x4 ../VGA_Audio_PS2_bsp/\libhal_bsp.a(alt_irq_vars.o)
                0x0000e140                alt_priority_mask
 .sdata         0x0000e144       0x14 ../VGA_Audio_PS2_bsp/\libhal_bsp.a(alt_dev.o)
                0x0000e144                alt_fs_list
                0x0000e14c                alt_dev_list
                0x0000e154                alt_max_fd
 .sdata         0x0000e158        0x4 ../VGA_Audio_PS2_bsp/\libhal_bsp.a(alt_errno.o)
                0x0000e158                alt_errno
 .sdata         0x0000e15c        0x8 ../VGA_Audio_PS2_bsp/\libhal_bsp.a(alt_tick.o)
                0x0000e15c                alt_alarm_list
 .sdata         0x0000e164        0x8 c:/altera/13.0sp1/nios2eds/bin/gnu/h-i686-mingw32/bin/../lib/gcc/nios2-elf/4.1.2/../../../../nios2-elf/lib\libc.a(lib_a-impure.o)
                0x0000e164                _impure_ptr
                0x0000e168                _global_impure_ptr
 .sdata         0x0000e16c        0x8 c:/altera/13.0sp1/nios2eds/bin/gnu/h-i686-mingw32/bin/../lib/gcc/nios2-elf/4.1.2/../../../../nios2-elf/lib\libc.a(lib_a-mallocr.o)
                0x0000e16c                __malloc_trim_threshold
                0x0000e170                __malloc_sbrk_base
 .sdata         0x0000e174        0x4 ../VGA_Audio_PS2_bsp/\libhal_bsp.a(alt_sbrk.o)
 *(.sdata2 .sdata2.* .gnu.linkonce.s2.*)
                0x0000e178                . = ALIGN (0x4)
                0x0000e178                _edata = ABSOLUTE (.)
                0x0000e178                PROVIDE (edata, ABSOLUTE (.))
                0x0000e178                PROVIDE (__ram_rwdata_end, ABSOLUTE (.))
                0x0000e178                PROVIDE (__flash_rwdata_start, LOADADDR (.rwdata))

.bss            0x000101f4   0x7a18e4
                0x000101f4                __bss_start = ABSOLUTE (.)
                0x000101f4                PROVIDE (__sbss_start, ABSOLUTE (.))
                0x000101f4                PROVIDE (___sbss_start, ABSOLUTE (.))
 *(.dynsbss)
 *(.sbss .sbss.* .gnu.linkonce.sb.*)
 .sbss          0x000101f4        0x4 obj/default/amplitude_calculation.o
                0x000101f4                Base_Data
 .sbss          0x000101f8        0xc obj/default/amplitude_calculation.o
                0x000101f8                Read_Data
                0x000101fc                Read_Reg0
                0x00010200                Done_Bit
 .sbss          0x00010204       0x38 obj/default/globals.o
                0x00010204                byte2
                0x00010205                byte3
                0x00010208                Play_Index
                0x0001020c                byte1
                0x0001020d                local_b2
                0x0001020e                local_b1
                0x00010210                Echo_End
                0x00010214                Echo_complete
                0x00010218                Play_Flag
                0x0001021c                Clear_Play_Plot
                0x00010220                End_Record
                0x00010224                timeout
                0x00010228                count
                0x0001022c                buf_index_play
                0x00010230                local_b3
                0x00010234                buf_index_record
                0x00010238                Click_Echo
 .sbss          0x0001023c       0x3c obj/default/media_interrupt_HAL.o
                0x0001023c                Echo
                0x00010240                anita0
                0x00010244                anita1
                0x00010248                anita2
                0x0001024c                XoverFlow
                0x00010250                MiddleBtn
                0x00010254                index_Echo
                0x00010258                nibble_TempY
                0x0001025c                nibble_TempX
                0x00010260                RightBtn
                0x00010264                Xsign
                0x00010268                Temp_Sign
                0x0001026c                LeftBtn
                0x00010270                YoverFlow
                0x00010274                Ysign
 .sbss          0x00010278        0x4 ../VGA_Audio_PS2_bsp/\libhal_bsp.a(alt_irq_vars.o)
                0x00010278                alt_irq_active
 .sbss          0x0001027c        0xc ../VGA_Audio_PS2_bsp/\libhal_bsp.a(alt_main.o)
                0x0001027c                alt_argc
                0x00010280                alt_argv
                0x00010284                alt_envp
 .sbss          0x00010288        0x8 ../VGA_Audio_PS2_bsp/\libhal_bsp.a(alt_tick.o)
                0x00010288                _alt_tick_rate
                0x0001028c                _alt_nticks
 .sbss          0x00010290        0x4 c:/altera/13.0sp1/nios2eds/bin/gnu/h-i686-mingw32/bin/../lib/gcc/nios2-elf/4.1.2/../../../../nios2-elf/lib\libc.a(lib_a-int_errno.o)
                0x00010290                errno
 .sbss          0x00010294        0xc c:/altera/13.0sp1/nios2eds/bin/gnu/h-i686-mingw32/bin/../lib/gcc/nios2-elf/4.1.2/../../../../nios2-elf/lib\libc.a(lib_a-mallocr.o)
                0x00010294                __malloc_top_pad
                0x00010298                __malloc_max_sbrked_mem
                0x0001029c                __malloc_max_total_mem
 *(.sbss2 .sbss2.* .gnu.linkonce.sb2.*)
 *(.scommon)
                0x000102a0                PROVIDE (__sbss_end, ABSOLUTE (.))
                0x000102a0                PROVIDE (___sbss_end, ABSOLUTE (.))
 *(.dynbss)
 *(.bss .bss.* .gnu.linkonce.b.*)
 .bss           0x000102a0        0x0 ../VGA_Audio_PS2_bsp//obj/HAL/src/crt0.o
 .bss           0x000102a0        0x0 obj/default/PS2_ISR.o
 .bss           0x000102a0        0x0 obj/default/amplitude_calculation.o
 .bss           0x000102a0        0x0 obj/default/audio_ISR.o
 .bss           0x000102a0        0x0 obj/default/globals.o
 .bss           0x000102a0        0x0 obj/default/interval_timer_ISR.o
 .bss           0x000102a0        0x0 obj/default/media_interrupt_HAL.o
 .bss           0x000102a0        0x0 obj/default/pushbutton_ISR.o
 .bss           0x000102a0        0x0 c:/altera/13.0sp1/nios2eds/bin/gnu/h-i686-mingw32/bin/../lib/gcc/nios2-elf/4.1.2\libgcc.a(_muldi3.o)
 .bss           0x000102a0        0x0 c:/altera/13.0sp1/nios2eds/bin/gnu/h-i686-mingw32/bin/../lib/gcc/nios2-elf/4.1.2\libgcc.a(_divdi3.o)
 .bss           0x000102a0        0x0 c:/altera/13.0sp1/nios2eds/bin/gnu/h-i686-mingw32/bin/../lib/gcc/nios2-elf/4.1.2\libgcc.a(lib2-divmod.o)
 .bss           0x000102a0        0x0 c:/altera/13.0sp1/nios2eds/bin/gnu/h-i686-mingw32/bin/../lib/gcc/nios2-elf/4.1.2\libgcc.a(_clz.o)
 .bss           0x000102a0        0x0 c:/altera/13.0sp1/nios2eds/bin/gnu/h-i686-mingw32/bin/../lib/gcc/nios2-elf/4.1.2/../../../../nios2-elf/lib\libc.a(lib_a-memcpy.o)
 .bss           0x000102a0        0x0 c:/altera/13.0sp1/nios2eds/bin/gnu/h-i686-mingw32/bin/../lib/gcc/nios2-elf/4.1.2/../../../../nios2-elf/lib\libc.a(lib_a-memset.o)
 .bss           0x000102a0        0x0 ../VGA_Audio_PS2_bsp/\libhal_bsp.a(alt_irq_register.o)
 .bss           0x000102a0        0x0 ../VGA_Audio_PS2_bsp/\libhal_bsp.a(alt_irq_vars.o)
 .bss           0x000102a0        0x0 ../VGA_Audio_PS2_bsp/\libhal_bsp.a(alt_load.o)
 .bss           0x000102a0        0x0 ../VGA_Audio_PS2_bsp/\libhal_bsp.a(alt_main.o)
 .bss           0x000102a0        0x0 ../VGA_Audio_PS2_bsp/\libhal_bsp.a(alt_printf.o)
 .bss           0x000102a0        0x0 ../VGA_Audio_PS2_bsp/\libhal_bsp.a(alt_putchar.o)
 .bss           0x000102a0        0x0 ../VGA_Audio_PS2_bsp/\libhal_bsp.a(alt_sys_init.o)
 .bss           0x000102a0        0x0 ../VGA_Audio_PS2_bsp/\libhal_bsp.a(altera_avalon_jtag_uart_fd.o)
 .bss           0x000102a0        0x0 ../VGA_Audio_PS2_bsp/\libhal_bsp.a(altera_avalon_jtag_uart_init.o)
 .bss           0x000102a0        0x0 ../VGA_Audio_PS2_bsp/\libhal_bsp.a(altera_avalon_jtag_uart_ioctl.o)
 .bss           0x000102a0        0x0 ../VGA_Audio_PS2_bsp/\libhal_bsp.a(altera_avalon_jtag_uart_read.o)
 .bss           0x000102a0        0x0 ../VGA_Audio_PS2_bsp/\libhal_bsp.a(altera_avalon_jtag_uart_write.o)
 .bss           0x000102a0        0x0 ../VGA_Audio_PS2_bsp/\libhal_bsp.a(altera_avalon_timer_sc.o)
 .bss           0x000102a0        0x0 ../VGA_Audio_PS2_bsp/\libhal_bsp.a(altera_up_avalon_audio.o)
 .bss           0x000102a0        0x0 ../VGA_Audio_PS2_bsp/\libhal_bsp.a(altera_up_avalon_character_lcd.o)
 .bss           0x000102a0        0x0 ../VGA_Audio_PS2_bsp/\libhal_bsp.a(altera_up_avalon_ethernet.o)
 .bss           0x000102a0        0x0 ../VGA_Audio_PS2_bsp/\libhal_bsp.a(altera_up_avalon_ethernet_low_level_driver.o)
 .bss           0x000102a0        0x0 ../VGA_Audio_PS2_bsp/\libhal_bsp.a(altera_up_avalon_irda.o)
 .bss           0x000102a0        0x0 ../VGA_Audio_PS2_bsp/\libhal_bsp.a(altera_up_avalon_parallel_port.o)
 .bss           0x000102a0        0x0 ../VGA_Audio_PS2_bsp/\libhal_bsp.a(altera_up_avalon_ps2.o)
 .bss           0x000102a0        0x0 ../VGA_Audio_PS2_bsp/\libhal_bsp.a(altera_up_avalon_rs232.o)
 .bss           0x000102a0        0x0 ../VGA_Audio_PS2_bsp/\libhal_bsp.a(altera_up_avalon_video_character_buffer_with_dma.o)
 .bss           0x000102a0        0x0 ../VGA_Audio_PS2_bsp/\libhal_bsp.a(altera_up_avalon_video_pixel_buffer_dma.o)
 .bss           0x000102a0        0x0 ../VGA_Audio_PS2_bsp/\libhal_bsp.a(alt_alarm_start.o)
 .bss           0x000102a0        0x0 ../VGA_Audio_PS2_bsp/\libhal_bsp.a(alt_close.o)
 .bss           0x000102a0        0x0 ../VGA_Audio_PS2_bsp/\libhal_bsp.a(alt_dcache_flush_all.o)
 .bss           0x000102a0        0x0 ../VGA_Audio_PS2_bsp/\libhal_bsp.a(alt_dev.o)
 .bss           0x000102a0        0x0 ../VGA_Audio_PS2_bsp/\libhal_bsp.a(alt_dev_llist_insert.o)
 .bss           0x000102a0        0x0 ../VGA_Audio_PS2_bsp/\libhal_bsp.a(alt_do_ctors.o)
 .bss           0x000102a0        0x0 ../VGA_Audio_PS2_bsp/\libhal_bsp.a(alt_do_dtors.o)
 .bss           0x000102a0        0x0 ../VGA_Audio_PS2_bsp/\libhal_bsp.a(alt_errno.o)
 .bss           0x000102a0        0x0 ../VGA_Audio_PS2_bsp/\libhal_bsp.a(alt_find_dev.o)
 .bss           0x000102a0        0x0 ../VGA_Audio_PS2_bsp/\libhal_bsp.a(alt_icache_flush_all.o)
 .bss           0x000102a0        0x0 ../VGA_Audio_PS2_bsp/\libhal_bsp.a(alt_io_redirect.o)
 .bss           0x000102a0        0x0 ../VGA_Audio_PS2_bsp/\libhal_bsp.a(alt_irq_entry.o)
 .bss           0x000102a0        0x0 ../VGA_Audio_PS2_bsp/\libhal_bsp.a(alt_irq_handler.o)
 .bss           0x000102a0        0x0 ../VGA_Audio_PS2_bsp/\libhal_bsp.a(alt_open.o)
 .bss           0x000102a0        0x0 ../VGA_Audio_PS2_bsp/\libhal_bsp.a(alt_release_fd.o)
 .bss           0x000102a0        0x0 ../VGA_Audio_PS2_bsp/\libhal_bsp.a(alt_tick.o)
 .bss           0x000102a0        0x0 ../VGA_Audio_PS2_bsp/\libhal_bsp.a(alt_usleep.o)
 .bss           0x000102a0        0x0 ../VGA_Audio_PS2_bsp/\libhal_bsp.a(altera_nios2_qsys_irq.o)
 .bss           0x000102a0        0x0 ../VGA_Audio_PS2_bsp/\libhal_bsp.a(alt_busy_sleep.o)
 .bss           0x000102a0        0x0 ../VGA_Audio_PS2_bsp/\libhal_bsp.a(alt_exception_entry.o)
 .bss           0x000102a0        0x0 ../VGA_Audio_PS2_bsp/\libhal_bsp.a(alt_find_file.o)
 .bss           0x000102a0        0x0 ../VGA_Audio_PS2_bsp/\libhal_bsp.a(alt_get_fd.o)
 .bss           0x000102a0        0x0 ../VGA_Audio_PS2_bsp/\libhal_bsp.a(alt_icache_flush.o)
 .bss           0x000102a0        0x0 c:/altera/13.0sp1/nios2eds/bin/gnu/h-i686-mingw32/bin/../lib/gcc/nios2-elf/4.1.2/../../../../nios2-elf/lib\libc.a(lib_a-atexit.o)
 .bss           0x000102a0        0x0 c:/altera/13.0sp1/nios2eds/bin/gnu/h-i686-mingw32/bin/../lib/gcc/nios2-elf/4.1.2/../../../../nios2-elf/lib\libc.a(lib_a-exit.o)
 .bss           0x000102a0        0x0 c:/altera/13.0sp1/nios2eds/bin/gnu/h-i686-mingw32/bin/../lib/gcc/nios2-elf/4.1.2/../../../../nios2-elf/lib\libc.a(lib_a-impure.o)
 .bss           0x000102a0        0x0 c:/altera/13.0sp1/nios2eds/bin/gnu/h-i686-mingw32/bin/../lib/gcc/nios2-elf/4.1.2/../../../../nios2-elf/lib\libc.a(lib_a-int_errno.o)
 .bss           0x000102a0        0x0 c:/altera/13.0sp1/nios2eds/bin/gnu/h-i686-mingw32/bin/../lib/gcc/nios2-elf/4.1.2/../../../../nios2-elf/lib\libc.a(lib_a-memcmp.o)
 .bss           0x000102a0        0x0 c:/altera/13.0sp1/nios2eds/bin/gnu/h-i686-mingw32/bin/../lib/gcc/nios2-elf/4.1.2/../../../../nios2-elf/lib\libc.a(lib_a-putc.o)
 .bss           0x000102a0        0x0 c:/altera/13.0sp1/nios2eds/bin/gnu/h-i686-mingw32/bin/../lib/gcc/nios2-elf/4.1.2/../../../../nios2-elf/lib\libc.a(lib_a-strcmp.o)
 .bss           0x000102a0        0x0 c:/altera/13.0sp1/nios2eds/bin/gnu/h-i686-mingw32/bin/../lib/gcc/nios2-elf/4.1.2/../../../../nios2-elf/lib\libc.a(lib_a-strlen.o)
 .bss           0x000102a0        0x0 c:/altera/13.0sp1/nios2eds/bin/gnu/h-i686-mingw32/bin/../lib/gcc/nios2-elf/4.1.2/../../../../nios2-elf/lib\libc.a(lib_a-wbuf.o)
 .bss           0x000102a0        0x0 c:/altera/13.0sp1/nios2eds/bin/gnu/h-i686-mingw32/bin/../lib/gcc/nios2-elf/4.1.2/../../../../nios2-elf/lib\libc.a(lib_a-wsetup.o)
 .bss           0x000102a0        0x0 c:/altera/13.0sp1/nios2eds/bin/gnu/h-i686-mingw32/bin/../lib/gcc/nios2-elf/4.1.2/../../../../nios2-elf/lib\libc.a(lib_a-__atexit.o)
 .bss           0x000102a0        0x0 c:/altera/13.0sp1/nios2eds/bin/gnu/h-i686-mingw32/bin/../lib/gcc/nios2-elf/4.1.2/../../../../nios2-elf/lib\libc.a(lib_a-__call_atexit.o)
 .bss           0x000102a0        0x0 c:/altera/13.0sp1/nios2eds/bin/gnu/h-i686-mingw32/bin/../lib/gcc/nios2-elf/4.1.2/../../../../nios2-elf/lib\libc.a(lib_a-fflush.o)
 .bss           0x000102a0        0x0 c:/altera/13.0sp1/nios2eds/bin/gnu/h-i686-mingw32/bin/../lib/gcc/nios2-elf/4.1.2/../../../../nios2-elf/lib\libc.a(lib_a-findfp.o)
 .bss           0x000102a0        0x0 c:/altera/13.0sp1/nios2eds/bin/gnu/h-i686-mingw32/bin/../lib/gcc/nios2-elf/4.1.2/../../../../nios2-elf/lib\libc.a(lib_a-freer.o)
 .bss           0x000102a0        0x0 c:/altera/13.0sp1/nios2eds/bin/gnu/h-i686-mingw32/bin/../lib/gcc/nios2-elf/4.1.2/../../../../nios2-elf/lib\libc.a(lib_a-fwalk.o)
 .bss           0x000102a0        0x0 c:/altera/13.0sp1/nios2eds/bin/gnu/h-i686-mingw32/bin/../lib/gcc/nios2-elf/4.1.2/../../../../nios2-elf/lib\libc.a(lib_a-makebuf.o)
 .bss           0x000102a0       0x28 c:/altera/13.0sp1/nios2eds/bin/gnu/h-i686-mingw32/bin/../lib/gcc/nios2-elf/4.1.2/../../../../nios2-elf/lib\libc.a(lib_a-mallocr.o)
                0x000102a0                __malloc_current_mallinfo
 .bss           0x000102c8        0x0 c:/altera/13.0sp1/nios2eds/bin/gnu/h-i686-mingw32/bin/../lib/gcc/nios2-elf/4.1.2/../../../../nios2-elf/lib\libc.a(lib_a-sbrkr.o)
 .bss           0x000102c8        0x0 c:/altera/13.0sp1/nios2eds/bin/gnu/h-i686-mingw32/bin/../lib/gcc/nios2-elf/4.1.2/../../../../nios2-elf/lib\libc.a(lib_a-stdio.o)
 .bss           0x000102c8        0x0 c:/altera/13.0sp1/nios2eds/bin/gnu/h-i686-mingw32/bin/../lib/gcc/nios2-elf/4.1.2/../../../../nios2-elf/lib\libc.a(lib_a-writer.o)
 .bss           0x000102c8        0x0 c:/altera/13.0sp1/nios2eds/bin/gnu/h-i686-mingw32/bin/../lib/gcc/nios2-elf/4.1.2/../../../../nios2-elf/lib\libc.a(lib_a-closer.o)
 .bss           0x000102c8        0x0 c:/altera/13.0sp1/nios2eds/bin/gnu/h-i686-mingw32/bin/../lib/gcc/nios2-elf/4.1.2/../../../../nios2-elf/lib\libc.a(lib_a-fclose.o)
 .bss           0x000102c8        0x0 c:/altera/13.0sp1/nios2eds/bin/gnu/h-i686-mingw32/bin/../lib/gcc/nios2-elf/4.1.2/../../../../nios2-elf/lib\libc.a(lib_a-fstatr.o)
 .bss           0x000102c8        0x0 c:/altera/13.0sp1/nios2eds/bin/gnu/h-i686-mingw32/bin/../lib/gcc/nios2-elf/4.1.2/../../../../nios2-elf/lib\libc.a(lib_a-isattyr.o)
 .bss           0x000102c8        0x0 c:/altera/13.0sp1/nios2eds/bin/gnu/h-i686-mingw32/bin/../lib/gcc/nios2-elf/4.1.2/../../../../nios2-elf/lib\libc.a(lib_a-lseekr.o)
 .bss           0x000102c8        0x0 c:/altera/13.0sp1/nios2eds/bin/gnu/h-i686-mingw32/bin/../lib/gcc/nios2-elf/4.1.2/../../../../nios2-elf/lib\libc.a(lib_a-readr.o)
 .bss           0x000102c8        0x0 ../VGA_Audio_PS2_bsp/\libhal_bsp.a(alt_exit.o)
 .bss           0x000102c8        0x0 ../VGA_Audio_PS2_bsp/\libhal_bsp.a(alt_fstat.o)
 .bss           0x000102c8        0x0 ../VGA_Audio_PS2_bsp/\libhal_bsp.a(alt_isatty.o)
 .bss           0x000102c8        0x0 ../VGA_Audio_PS2_bsp/\libhal_bsp.a(alt_lseek.o)
 .bss           0x000102c8        0x0 ../VGA_Audio_PS2_bsp/\libhal_bsp.a(alt_malloc_lock.o)
 .bss           0x000102c8        0x0 ../VGA_Audio_PS2_bsp/\libhal_bsp.a(alt_read.o)
 .bss           0x000102c8        0x0 ../VGA_Audio_PS2_bsp/\libhal_bsp.a(alt_sbrk.o)
 .bss           0x000102c8        0x0 ../VGA_Audio_PS2_bsp/\libhal_bsp.a(alt_write.o)
 *(COMMON)
 COMMON         0x000102c8   0x7a1220 obj/default/globals.o
                0x000102c8                up_dev
                0x000102e8                Echo_buf_l
                0x001f8768                r_buf
                0x003e0be8                Echo_buf_r
                0x005c9068                l_buf
 COMMON         0x007b14e8      0x360 obj/default/media_interrupt_HAL.o
                0x007b14e8                Out_Ram
                0x007b1568                Right_Ram
                0x007b15e8                Avrage_Hardware
                0x007b16d8                Average
                0x007b17c8                Left_Ram
 COMMON         0x007b1848      0x100 ../VGA_Audio_PS2_bsp/\libhal_bsp.a(alt_irq_handler.o)
                0x007b1848                alt_irq
 COMMON         0x007b1948      0x190 c:/altera/13.0sp1/nios2eds/bin/gnu/h-i686-mingw32/bin/../lib/gcc/nios2-elf/4.1.2/../../../../nios2-elf/lib\libc.a(lib_a-atexit.o)
                0x007b1948                _atexit0
                0x007b1ad8                . = ALIGN (0x4)
                0x007b1ad8                __bss_end = ABSOLUTE (.)

.SDRAM          0x007b1ad8        0x0
                0x007b1ad8                PROVIDE (_alt_partition_SDRAM_start, ABSOLUTE (.))
 *(.SDRAM. SDRAM.*)
                0x007b1ad8                . = ALIGN (0x4)
                0x007b1ad8                PROVIDE (_alt_partition_SDRAM_end, ABSOLUTE (.))
                0x007b1ad8                _end = ABSOLUTE (.)
                0x007b1ad8                end = ABSOLUTE (.)
                0x007b1ad8                __alt_stack_base = ABSOLUTE (.)
                0x007b1ad8                PROVIDE (_alt_partition_SDRAM_load_addr, LOADADDR (.SDRAM))

.Flash_flash_data
                0x0c000000        0x0 load address 0x007b1ad8
                0x0c000000                PROVIDE (_alt_partition_Flash_flash_data_start, ABSOLUTE (.))
 *(.Flash_flash_data. Flash_flash_data.*)
                0x0c000000                . = ALIGN (0x4)
                0x0c000000                PROVIDE (_alt_partition_Flash_flash_data_end, ABSOLUTE (.))
                0x007b1ad8                PROVIDE (_alt_partition_Flash_flash_data_load_addr, LOADADDR (.Flash_flash_data))

.stab
 *(.stab)

.stabstr
 *(.stabstr)

.stab.excl
 *(.stab.excl)

.stab.exclstr
 *(.stab.exclstr)

.stab.index
 *(.stab.index)

.stab.indexstr
 *(.stab.indexstr)

.comment        0x00000000       0x26
 *(.comment)
 .comment       0x00000000       0x26 obj/default/PS2_ISR.o
                                 0x27 (size before relaxing)
 .comment       0x00000000       0x27 obj/default/amplitude_calculation.o
 .comment       0x00000000       0x27 obj/default/audio_ISR.o
 .comment       0x00000000       0x27 obj/default/globals.o
 .comment       0x00000000       0x27 obj/default/interval_timer_ISR.o
 .comment       0x00000000       0x27 obj/default/media_interrupt_HAL.o
 .comment       0x00000000       0x27 obj/default/pushbutton_ISR.o
 .comment       0x00000000       0x27 c:/altera/13.0sp1/nios2eds/bin/gnu/h-i686-mingw32/bin/../lib/gcc/nios2-elf/4.1.2\libgcc.a(_muldi3.o)
 .comment       0x00000000       0x27 c:/altera/13.0sp1/nios2eds/bin/gnu/h-i686-mingw32/bin/../lib/gcc/nios2-elf/4.1.2\libgcc.a(_divdi3.o)
 .comment       0x00000000       0x27 c:/altera/13.0sp1/nios2eds/bin/gnu/h-i686-mingw32/bin/../lib/gcc/nios2-elf/4.1.2\libgcc.a(lib2-divmod.o)
 .comment       0x00000000       0x27 c:/altera/13.0sp1/nios2eds/bin/gnu/h-i686-mingw32/bin/../lib/gcc/nios2-elf/4.1.2\libgcc.a(_clz.o)
 .comment       0x00000000       0x27 c:/altera/13.0sp1/nios2eds/bin/gnu/h-i686-mingw32/bin/../lib/gcc/nios2-elf/4.1.2/../../../../nios2-elf/lib\libc.a(lib_a-memcpy.o)
 .comment       0x00000000       0x27 c:/altera/13.0sp1/nios2eds/bin/gnu/h-i686-mingw32/bin/../lib/gcc/nios2-elf/4.1.2/../../../../nios2-elf/lib\libc.a(lib_a-memset.o)
 .comment       0x00000000       0x27 ../VGA_Audio_PS2_bsp/\libhal_bsp.a(alt_irq_register.o)
 .comment       0x00000000       0x27 ../VGA_Audio_PS2_bsp/\libhal_bsp.a(alt_irq_vars.o)
 .comment       0x00000000       0x27 ../VGA_Audio_PS2_bsp/\libhal_bsp.a(alt_load.o)
 .comment       0x00000000       0x27 ../VGA_Audio_PS2_bsp/\libhal_bsp.a(alt_main.o)
 .comment       0x00000000       0x27 ../VGA_Audio_PS2_bsp/\libhal_bsp.a(alt_printf.o)
 .comment       0x00000000       0x27 ../VGA_Audio_PS2_bsp/\libhal_bsp.a(alt_putchar.o)
 .comment       0x00000000       0x27 ../VGA_Audio_PS2_bsp/\libhal_bsp.a(alt_sys_init.o)
 .comment       0x00000000       0x27 ../VGA_Audio_PS2_bsp/\libhal_bsp.a(altera_avalon_jtag_uart_fd.o)
 .comment       0x00000000       0x27 ../VGA_Audio_PS2_bsp/\libhal_bsp.a(altera_avalon_jtag_uart_init.o)
 .comment       0x00000000       0x27 ../VGA_Audio_PS2_bsp/\libhal_bsp.a(altera_avalon_jtag_uart_ioctl.o)
 .comment       0x00000000       0x27 ../VGA_Audio_PS2_bsp/\libhal_bsp.a(altera_avalon_jtag_uart_read.o)
 .comment       0x00000000       0x27 ../VGA_Audio_PS2_bsp/\libhal_bsp.a(altera_avalon_jtag_uart_write.o)
 .comment       0x00000000       0x27 ../VGA_Audio_PS2_bsp/\libhal_bsp.a(altera_avalon_timer_sc.o)
 .comment       0x00000000       0x27 ../VGA_Audio_PS2_bsp/\libhal_bsp.a(altera_up_avalon_audio.o)
 .comment       0x00000000       0x27 ../VGA_Audio_PS2_bsp/\libhal_bsp.a(altera_up_avalon_character_lcd.o)
 .comment       0x00000000       0x27 ../VGA_Audio_PS2_bsp/\libhal_bsp.a(altera_up_avalon_ethernet.o)
 .comment       0x00000000       0x27 ../VGA_Audio_PS2_bsp/\libhal_bsp.a(altera_up_avalon_ethernet_low_level_driver.o)
 .comment       0x00000000       0x27 ../VGA_Audio_PS2_bsp/\libhal_bsp.a(altera_up_avalon_irda.o)
 .comment       0x00000000       0x27 ../VGA_Audio_PS2_bsp/\libhal_bsp.a(altera_up_avalon_parallel_port.o)
 .comment       0x00000000       0x27 ../VGA_Audio_PS2_bsp/\libhal_bsp.a(altera_up_avalon_ps2.o)
 .comment       0x00000000       0x27 ../VGA_Audio_PS2_bsp/\libhal_bsp.a(altera_up_avalon_rs232.o)
 .comment       0x00000000       0x27 ../VGA_Audio_PS2_bsp/\libhal_bsp.a(altera_up_avalon_video_character_buffer_with_dma.o)
 .comment       0x00000000       0x27 ../VGA_Audio_PS2_bsp/\libhal_bsp.a(altera_up_avalon_video_pixel_buffer_dma.o)
 .comment       0x00000000       0x27 ../VGA_Audio_PS2_bsp/\libhal_bsp.a(alt_alarm_start.o)
 .comment       0x00000000       0x27 ../VGA_Audio_PS2_bsp/\libhal_bsp.a(alt_close.o)
 .comment       0x00000000       0x27 ../VGA_Audio_PS2_bsp/\libhal_bsp.a(alt_dcache_flush_all.o)
 .comment       0x00000000       0x27 ../VGA_Audio_PS2_bsp/\libhal_bsp.a(alt_dev.o)
 .comment       0x00000000       0x27 ../VGA_Audio_PS2_bsp/\libhal_bsp.a(alt_dev_llist_insert.o)
 .comment       0x00000000       0x27 ../VGA_Audio_PS2_bsp/\libhal_bsp.a(alt_do_ctors.o)
 .comment       0x00000000       0x27 ../VGA_Audio_PS2_bsp/\libhal_bsp.a(alt_do_dtors.o)
 .comment       0x00000000       0x27 ../VGA_Audio_PS2_bsp/\libhal_bsp.a(alt_errno.o)
 .comment       0x00000000       0x27 ../VGA_Audio_PS2_bsp/\libhal_bsp.a(alt_find_dev.o)
 .comment       0x00000000       0x27 ../VGA_Audio_PS2_bsp/\libhal_bsp.a(alt_icache_flush_all.o)
 .comment       0x00000000       0x27 ../VGA_Audio_PS2_bsp/\libhal_bsp.a(alt_io_redirect.o)
 .comment       0x00000000       0x27 ../VGA_Audio_PS2_bsp/\libhal_bsp.a(alt_irq_handler.o)
 .comment       0x00000000       0x27 ../VGA_Audio_PS2_bsp/\libhal_bsp.a(alt_open.o)
 .comment       0x00000000       0x27 ../VGA_Audio_PS2_bsp/\libhal_bsp.a(alt_release_fd.o)
 .comment       0x00000000       0x27 ../VGA_Audio_PS2_bsp/\libhal_bsp.a(alt_tick.o)
 .comment       0x00000000       0x27 ../VGA_Audio_PS2_bsp/\libhal_bsp.a(alt_usleep.o)
 .comment       0x00000000       0x27 ../VGA_Audio_PS2_bsp/\libhal_bsp.a(altera_nios2_qsys_irq.o)
 .comment       0x00000000       0x27 ../VGA_Audio_PS2_bsp/\libhal_bsp.a(alt_busy_sleep.o)
 .comment       0x00000000       0x27 ../VGA_Audio_PS2_bsp/\libhal_bsp.a(alt_find_file.o)
 .comment       0x00000000       0x27 ../VGA_Audio_PS2_bsp/\libhal_bsp.a(alt_get_fd.o)
 .comment       0x00000000       0x27 ../VGA_Audio_PS2_bsp/\libhal_bsp.a(alt_icache_flush.o)
 .comment       0x00000000       0x27 c:/altera/13.0sp1/nios2eds/bin/gnu/h-i686-mingw32/bin/../lib/gcc/nios2-elf/4.1.2/../../../../nios2-elf/lib\libc.a(lib_a-atexit.o)
 .comment       0x00000000       0x27 c:/altera/13.0sp1/nios2eds/bin/gnu/h-i686-mingw32/bin/../lib/gcc/nios2-elf/4.1.2/../../../../nios2-elf/lib\libc.a(lib_a-exit.o)
 .comment       0x00000000       0x27 c:/altera/13.0sp1/nios2eds/bin/gnu/h-i686-mingw32/bin/../lib/gcc/nios2-elf/4.1.2/../../../../nios2-elf/lib\libc.a(lib_a-impure.o)
 .comment       0x00000000       0x27 c:/altera/13.0sp1/nios2eds/bin/gnu/h-i686-mingw32/bin/../lib/gcc/nios2-elf/4.1.2/../../../../nios2-elf/lib\libc.a(lib_a-int_errno.o)
 .comment       0x00000000       0x27 c:/altera/13.0sp1/nios2eds/bin/gnu/h-i686-mingw32/bin/../lib/gcc/nios2-elf/4.1.2/../../../../nios2-elf/lib\libc.a(lib_a-memcmp.o)
 .comment       0x00000000       0x27 c:/altera/13.0sp1/nios2eds/bin/gnu/h-i686-mingw32/bin/../lib/gcc/nios2-elf/4.1.2/../../../../nios2-elf/lib\libc.a(lib_a-putc.o)
 .comment       0x00000000       0x27 c:/altera/13.0sp1/nios2eds/bin/gnu/h-i686-mingw32/bin/../lib/gcc/nios2-elf/4.1.2/../../../../nios2-elf/lib\libc.a(lib_a-strcmp.o)
 .comment       0x00000000       0x27 c:/altera/13.0sp1/nios2eds/bin/gnu/h-i686-mingw32/bin/../lib/gcc/nios2-elf/4.1.2/../../../../nios2-elf/lib\libc.a(lib_a-strlen.o)
 .comment       0x00000000       0x27 c:/altera/13.0sp1/nios2eds/bin/gnu/h-i686-mingw32/bin/../lib/gcc/nios2-elf/4.1.2/../../../../nios2-elf/lib\libc.a(lib_a-wbuf.o)
 .comment       0x00000000       0x27 c:/altera/13.0sp1/nios2eds/bin/gnu/h-i686-mingw32/bin/../lib/gcc/nios2-elf/4.1.2/../../../../nios2-elf/lib\libc.a(lib_a-wsetup.o)
 .comment       0x00000000       0x27 c:/altera/13.0sp1/nios2eds/bin/gnu/h-i686-mingw32/bin/../lib/gcc/nios2-elf/4.1.2/../../../../nios2-elf/lib\libc.a(lib_a-__atexit.o)
 .comment       0x00000000       0x27 c:/altera/13.0sp1/nios2eds/bin/gnu/h-i686-mingw32/bin/../lib/gcc/nios2-elf/4.1.2/../../../../nios2-elf/lib\libc.a(lib_a-__call_atexit.o)
 .comment       0x00000000       0x27 c:/altera/13.0sp1/nios2eds/bin/gnu/h-i686-mingw32/bin/../lib/gcc/nios2-elf/4.1.2/../../../../nios2-elf/lib\libc.a(lib_a-fflush.o)
 .comment       0x00000000       0x27 c:/altera/13.0sp1/nios2eds/bin/gnu/h-i686-mingw32/bin/../lib/gcc/nios2-elf/4.1.2/../../../../nios2-elf/lib\libc.a(lib_a-findfp.o)
 .comment       0x00000000       0x27 c:/altera/13.0sp1/nios2eds/bin/gnu/h-i686-mingw32/bin/../lib/gcc/nios2-elf/4.1.2/../../../../nios2-elf/lib\libc.a(lib_a-freer.o)
 .comment       0x00000000       0x27 c:/altera/13.0sp1/nios2eds/bin/gnu/h-i686-mingw32/bin/../lib/gcc/nios2-elf/4.1.2/../../../../nios2-elf/lib\libc.a(lib_a-fwalk.o)
 .comment       0x00000000       0x27 c:/altera/13.0sp1/nios2eds/bin/gnu/h-i686-mingw32/bin/../lib/gcc/nios2-elf/4.1.2/../../../../nios2-elf/lib\libc.a(lib_a-makebuf.o)
 .comment       0x00000000       0x27 c:/altera/13.0sp1/nios2eds/bin/gnu/h-i686-mingw32/bin/../lib/gcc/nios2-elf/4.1.2/../../../../nios2-elf/lib\libc.a(lib_a-mallocr.o)
 .comment       0x00000000       0x27 c:/altera/13.0sp1/nios2eds/bin/gnu/h-i686-mingw32/bin/../lib/gcc/nios2-elf/4.1.2/../../../../nios2-elf/lib\libc.a(lib_a-sbrkr.o)
 .comment       0x00000000       0x27 c:/altera/13.0sp1/nios2eds/bin/gnu/h-i686-mingw32/bin/../lib/gcc/nios2-elf/4.1.2/../../../../nios2-elf/lib\libc.a(lib_a-stdio.o)
 .comment       0x00000000       0x27 c:/altera/13.0sp1/nios2eds/bin/gnu/h-i686-mingw32/bin/../lib/gcc/nios2-elf/4.1.2/../../../../nios2-elf/lib\libc.a(lib_a-writer.o)
 .comment       0x00000000       0x27 c:/altera/13.0sp1/nios2eds/bin/gnu/h-i686-mingw32/bin/../lib/gcc/nios2-elf/4.1.2/../../../../nios2-elf/lib\libc.a(lib_a-closer.o)
 .comment       0x00000000       0x27 c:/altera/13.0sp1/nios2eds/bin/gnu/h-i686-mingw32/bin/../lib/gcc/nios2-elf/4.1.2/../../../../nios2-elf/lib\libc.a(lib_a-fclose.o)
 .comment       0x00000000       0x27 c:/altera/13.0sp1/nios2eds/bin/gnu/h-i686-mingw32/bin/../lib/gcc/nios2-elf/4.1.2/../../../../nios2-elf/lib\libc.a(lib_a-fstatr.o)
 .comment       0x00000000       0x27 c:/altera/13.0sp1/nios2eds/bin/gnu/h-i686-mingw32/bin/../lib/gcc/nios2-elf/4.1.2/../../../../nios2-elf/lib\libc.a(lib_a-isattyr.o)
 .comment       0x00000000       0x27 c:/altera/13.0sp1/nios2eds/bin/gnu/h-i686-mingw32/bin/../lib/gcc/nios2-elf/4.1.2/../../../../nios2-elf/lib\libc.a(lib_a-lseekr.o)
 .comment       0x00000000       0x27 c:/altera/13.0sp1/nios2eds/bin/gnu/h-i686-mingw32/bin/../lib/gcc/nios2-elf/4.1.2/../../../../nios2-elf/lib\libc.a(lib_a-readr.o)
 .comment       0x00000000       0x27 ../VGA_Audio_PS2_bsp/\libhal_bsp.a(alt_exit.o)
 .comment       0x00000000       0x27 ../VGA_Audio_PS2_bsp/\libhal_bsp.a(alt_fstat.o)
 .comment       0x00000000       0x27 ../VGA_Audio_PS2_bsp/\libhal_bsp.a(alt_isatty.o)
 .comment       0x00000000       0x27 ../VGA_Audio_PS2_bsp/\libhal_bsp.a(alt_lseek.o)
 .comment       0x00000000       0x27 ../VGA_Audio_PS2_bsp/\libhal_bsp.a(alt_malloc_lock.o)
 .comment       0x00000000       0x27 ../VGA_Audio_PS2_bsp/\libhal_bsp.a(alt_read.o)
 .comment       0x00000000       0x27 ../VGA_Audio_PS2_bsp/\libhal_bsp.a(alt_sbrk.o)
 .comment       0x00000000       0x27 ../VGA_Audio_PS2_bsp/\libhal_bsp.a(alt_write.o)

.debug
 *(.debug)

.line
 *(.line)

.debug_srcinfo
 *(.debug_srcinfo)

.debug_sfnames
 *(.debug_sfnames)

.debug_aranges  0x00000000      0xb58
 *(.debug_aranges)
 .debug_aranges
                0x00000000       0x28 ../VGA_Audio_PS2_bsp//obj/HAL/src/crt0.o
 .debug_aranges
                0x00000028       0x20 obj/default/PS2_ISR.o
 .debug_aranges
                0x00000048       0x20 obj/default/amplitude_calculation.o
 .debug_aranges
                0x00000068       0x20 obj/default/audio_ISR.o
 .debug_aranges
                0x00000088       0x20 obj/default/interval_timer_ISR.o
 .debug_aranges
                0x000000a8       0x20 obj/default/media_interrupt_HAL.o
 .debug_aranges
                0x000000c8       0x20 obj/default/pushbutton_ISR.o
 .debug_aranges
                0x000000e8       0x20 c:/altera/13.0sp1/nios2eds/bin/gnu/h-i686-mingw32/bin/../lib/gcc/nios2-elf/4.1.2\libgcc.a(_muldi3.o)
 .debug_aranges
                0x00000108       0x20 c:/altera/13.0sp1/nios2eds/bin/gnu/h-i686-mingw32/bin/../lib/gcc/nios2-elf/4.1.2\libgcc.a(_divdi3.o)
 .debug_aranges
                0x00000128       0x20 c:/altera/13.0sp1/nios2eds/bin/gnu/h-i686-mingw32/bin/../lib/gcc/nios2-elf/4.1.2\libgcc.a(lib2-divmod.o)
 .debug_aranges
                0x00000148       0x20 c:/altera/13.0sp1/nios2eds/bin/gnu/h-i686-mingw32/bin/../lib/gcc/nios2-elf/4.1.2/../../../../nios2-elf/lib\libc.a(lib_a-memcpy.o)
 .debug_aranges
                0x00000168       0x20 c:/altera/13.0sp1/nios2eds/bin/gnu/h-i686-mingw32/bin/../lib/gcc/nios2-elf/4.1.2/../../../../nios2-elf/lib\libc.a(lib_a-memset.o)
 .debug_aranges
                0x00000188       0x20 ../VGA_Audio_PS2_bsp/\libhal_bsp.a(alt_irq_register.o)
 .debug_aranges
                0x000001a8       0x20 ../VGA_Audio_PS2_bsp/\libhal_bsp.a(alt_load.o)
 .debug_aranges
                0x000001c8       0x20 ../VGA_Audio_PS2_bsp/\libhal_bsp.a(alt_main.o)
 .debug_aranges
                0x000001e8       0x20 ../VGA_Audio_PS2_bsp/\libhal_bsp.a(alt_printf.o)
 .debug_aranges
                0x00000208       0x20 ../VGA_Audio_PS2_bsp/\libhal_bsp.a(alt_putchar.o)
 .debug_aranges
                0x00000228       0x20 ../VGA_Audio_PS2_bsp/\libhal_bsp.a(alt_sys_init.o)
 .debug_aranges
                0x00000248       0x20 ../VGA_Audio_PS2_bsp/\libhal_bsp.a(altera_avalon_jtag_uart_fd.o)
 .debug_aranges
                0x00000268       0x20 ../VGA_Audio_PS2_bsp/\libhal_bsp.a(altera_avalon_jtag_uart_init.o)
 .debug_aranges
                0x00000288       0x20 ../VGA_Audio_PS2_bsp/\libhal_bsp.a(altera_avalon_jtag_uart_ioctl.o)
 .debug_aranges
                0x000002a8       0x20 ../VGA_Audio_PS2_bsp/\libhal_bsp.a(altera_avalon_jtag_uart_read.o)
 .debug_aranges
                0x000002c8       0x20 ../VGA_Audio_PS2_bsp/\libhal_bsp.a(altera_avalon_jtag_uart_write.o)
 .debug_aranges
                0x000002e8       0x20 ../VGA_Audio_PS2_bsp/\libhal_bsp.a(altera_avalon_timer_sc.o)
 .debug_aranges
                0x00000308       0x20 ../VGA_Audio_PS2_bsp/\libhal_bsp.a(altera_up_avalon_audio.o)
 .debug_aranges
                0x00000328       0x20 ../VGA_Audio_PS2_bsp/\libhal_bsp.a(altera_up_avalon_character_lcd.o)
 .debug_aranges
                0x00000348       0x20 ../VGA_Audio_PS2_bsp/\libhal_bsp.a(altera_up_avalon_ethernet.o)
 .debug_aranges
                0x00000368       0x20 ../VGA_Audio_PS2_bsp/\libhal_bsp.a(altera_up_avalon_ethernet_low_level_driver.o)
 .debug_aranges
                0x00000388       0x20 ../VGA_Audio_PS2_bsp/\libhal_bsp.a(altera_up_avalon_irda.o)
 .debug_aranges
                0x000003a8       0x20 ../VGA_Audio_PS2_bsp/\libhal_bsp.a(altera_up_avalon_parallel_port.o)
 .debug_aranges
                0x000003c8       0x20 ../VGA_Audio_PS2_bsp/\libhal_bsp.a(altera_up_avalon_ps2.o)
 .debug_aranges
                0x000003e8       0x20 ../VGA_Audio_PS2_bsp/\libhal_bsp.a(altera_up_avalon_rs232.o)
 .debug_aranges
                0x00000408       0x20 ../VGA_Audio_PS2_bsp/\libhal_bsp.a(altera_up_avalon_video_character_buffer_with_dma.o)
 .debug_aranges
                0x00000428       0x20 ../VGA_Audio_PS2_bsp/\libhal_bsp.a(altera_up_avalon_video_pixel_buffer_dma.o)
 .debug_aranges
                0x00000448       0x20 ../VGA_Audio_PS2_bsp/\libhal_bsp.a(alt_alarm_start.o)
 .debug_aranges
                0x00000468       0x20 ../VGA_Audio_PS2_bsp/\libhal_bsp.a(alt_close.o)
 .debug_aranges
                0x00000488       0x20 ../VGA_Audio_PS2_bsp/\libhal_bsp.a(alt_dcache_flush_all.o)
 .debug_aranges
                0x000004a8       0x20 ../VGA_Audio_PS2_bsp/\libhal_bsp.a(alt_dev.o)
 .debug_aranges
                0x000004c8       0x20 ../VGA_Audio_PS2_bsp/\libhal_bsp.a(alt_dev_llist_insert.o)
 .debug_aranges
                0x000004e8       0x20 ../VGA_Audio_PS2_bsp/\libhal_bsp.a(alt_do_ctors.o)
 .debug_aranges
                0x00000508       0x20 ../VGA_Audio_PS2_bsp/\libhal_bsp.a(alt_do_dtors.o)
 .debug_aranges
                0x00000528       0x20 ../VGA_Audio_PS2_bsp/\libhal_bsp.a(alt_find_dev.o)
 .debug_aranges
                0x00000548       0x20 ../VGA_Audio_PS2_bsp/\libhal_bsp.a(alt_icache_flush_all.o)
 .debug_aranges
                0x00000568       0x20 ../VGA_Audio_PS2_bsp/\libhal_bsp.a(alt_io_redirect.o)
 .debug_aranges
                0x00000588       0x30 ../VGA_Audio_PS2_bsp/\libhal_bsp.a(alt_irq_entry.o)
 .debug_aranges
                0x000005b8       0x28 ../VGA_Audio_PS2_bsp/\libhal_bsp.a(alt_irq_handler.o)
 .debug_aranges
                0x000005e0       0x20 ../VGA_Audio_PS2_bsp/\libhal_bsp.a(alt_open.o)
 .debug_aranges
                0x00000600       0x20 ../VGA_Audio_PS2_bsp/\libhal_bsp.a(alt_release_fd.o)
 .debug_aranges
                0x00000620       0x20 ../VGA_Audio_PS2_bsp/\libhal_bsp.a(alt_tick.o)
 .debug_aranges
                0x00000640       0x20 ../VGA_Audio_PS2_bsp/\libhal_bsp.a(alt_usleep.o)
 .debug_aranges
                0x00000660       0x20 ../VGA_Audio_PS2_bsp/\libhal_bsp.a(altera_nios2_qsys_irq.o)
 .debug_aranges
                0x00000680       0x20 ../VGA_Audio_PS2_bsp/\libhal_bsp.a(alt_busy_sleep.o)
 .debug_aranges
                0x000006a0       0x38 ../VGA_Audio_PS2_bsp/\libhal_bsp.a(alt_exception_entry.o)
 .debug_aranges
                0x000006d8       0x20 ../VGA_Audio_PS2_bsp/\libhal_bsp.a(alt_find_file.o)
 .debug_aranges
                0x000006f8       0x20 ../VGA_Audio_PS2_bsp/\libhal_bsp.a(alt_get_fd.o)
 .debug_aranges
                0x00000718       0x20 ../VGA_Audio_PS2_bsp/\libhal_bsp.a(alt_icache_flush.o)
 .debug_aranges
                0x00000738       0x20 c:/altera/13.0sp1/nios2eds/bin/gnu/h-i686-mingw32/bin/../lib/gcc/nios2-elf/4.1.2/../../../../nios2-elf/lib\libc.a(lib_a-atexit.o)
 .debug_aranges
                0x00000758       0x20 c:/altera/13.0sp1/nios2eds/bin/gnu/h-i686-mingw32/bin/../lib/gcc/nios2-elf/4.1.2/../../../../nios2-elf/lib\libc.a(lib_a-exit.o)
 .debug_aranges
                0x00000778       0x20 c:/altera/13.0sp1/nios2eds/bin/gnu/h-i686-mingw32/bin/../lib/gcc/nios2-elf/4.1.2/../../../../nios2-elf/lib\libc.a(lib_a-memcmp.o)
 .debug_aranges
                0x00000798       0x20 c:/altera/13.0sp1/nios2eds/bin/gnu/h-i686-mingw32/bin/../lib/gcc/nios2-elf/4.1.2/../../../../nios2-elf/lib\libc.a(lib_a-putc.o)
 .debug_aranges
                0x000007b8       0x20 c:/altera/13.0sp1/nios2eds/bin/gnu/h-i686-mingw32/bin/../lib/gcc/nios2-elf/4.1.2/../../../../nios2-elf/lib\libc.a(lib_a-strcmp.o)
 .debug_aranges
                0x000007d8       0x20 c:/altera/13.0sp1/nios2eds/bin/gnu/h-i686-mingw32/bin/../lib/gcc/nios2-elf/4.1.2/../../../../nios2-elf/lib\libc.a(lib_a-strlen.o)
 .debug_aranges
                0x000007f8       0x20 c:/altera/13.0sp1/nios2eds/bin/gnu/h-i686-mingw32/bin/../lib/gcc/nios2-elf/4.1.2/../../../../nios2-elf/lib\libc.a(lib_a-wbuf.o)
 .debug_aranges
                0x00000818       0x20 c:/altera/13.0sp1/nios2eds/bin/gnu/h-i686-mingw32/bin/../lib/gcc/nios2-elf/4.1.2/../../../../nios2-elf/lib\libc.a(lib_a-wsetup.o)
 .debug_aranges
                0x00000838       0x20 c:/altera/13.0sp1/nios2eds/bin/gnu/h-i686-mingw32/bin/../lib/gcc/nios2-elf/4.1.2/../../../../nios2-elf/lib\libc.a(lib_a-__atexit.o)
 .debug_aranges
                0x00000858       0x20 c:/altera/13.0sp1/nios2eds/bin/gnu/h-i686-mingw32/bin/../lib/gcc/nios2-elf/4.1.2/../../../../nios2-elf/lib\libc.a(lib_a-__call_atexit.o)
 .debug_aranges
                0x00000878       0x20 c:/altera/13.0sp1/nios2eds/bin/gnu/h-i686-mingw32/bin/../lib/gcc/nios2-elf/4.1.2/../../../../nios2-elf/lib\libc.a(lib_a-fflush.o)
 .debug_aranges
                0x00000898       0x20 c:/altera/13.0sp1/nios2eds/bin/gnu/h-i686-mingw32/bin/../lib/gcc/nios2-elf/4.1.2/../../../../nios2-elf/lib\libc.a(lib_a-findfp.o)
 .debug_aranges
                0x000008b8       0x20 c:/altera/13.0sp1/nios2eds/bin/gnu/h-i686-mingw32/bin/../lib/gcc/nios2-elf/4.1.2/../../../../nios2-elf/lib\libc.a(lib_a-freer.o)
 .debug_aranges
                0x000008d8       0x20 c:/altera/13.0sp1/nios2eds/bin/gnu/h-i686-mingw32/bin/../lib/gcc/nios2-elf/4.1.2/../../../../nios2-elf/lib\libc.a(lib_a-fwalk.o)
 .debug_aranges
                0x000008f8       0x20 c:/altera/13.0sp1/nios2eds/bin/gnu/h-i686-mingw32/bin/../lib/gcc/nios2-elf/4.1.2/../../../../nios2-elf/lib\libc.a(lib_a-makebuf.o)
 .debug_aranges
                0x00000918       0x20 c:/altera/13.0sp1/nios2eds/bin/gnu/h-i686-mingw32/bin/../lib/gcc/nios2-elf/4.1.2/../../../../nios2-elf/lib\libc.a(lib_a-mallocr.o)
 .debug_aranges
                0x00000938       0x20 c:/altera/13.0sp1/nios2eds/bin/gnu/h-i686-mingw32/bin/../lib/gcc/nios2-elf/4.1.2/../../../../nios2-elf/lib\libc.a(lib_a-sbrkr.o)
 .debug_aranges
                0x00000958       0x20 c:/altera/13.0sp1/nios2eds/bin/gnu/h-i686-mingw32/bin/../lib/gcc/nios2-elf/4.1.2/../../../../nios2-elf/lib\libc.a(lib_a-stdio.o)
 .debug_aranges
                0x00000978       0x20 c:/altera/13.0sp1/nios2eds/bin/gnu/h-i686-mingw32/bin/../lib/gcc/nios2-elf/4.1.2/../../../../nios2-elf/lib\libc.a(lib_a-writer.o)
 .debug_aranges
                0x00000998       0x20 c:/altera/13.0sp1/nios2eds/bin/gnu/h-i686-mingw32/bin/../lib/gcc/nios2-elf/4.1.2/../../../../nios2-elf/lib\libc.a(lib_a-closer.o)
 .debug_aranges
                0x000009b8       0x20 c:/altera/13.0sp1/nios2eds/bin/gnu/h-i686-mingw32/bin/../lib/gcc/nios2-elf/4.1.2/../../../../nios2-elf/lib\libc.a(lib_a-fclose.o)
 .debug_aranges
                0x000009d8       0x20 c:/altera/13.0sp1/nios2eds/bin/gnu/h-i686-mingw32/bin/../lib/gcc/nios2-elf/4.1.2/../../../../nios2-elf/lib\libc.a(lib_a-fstatr.o)
 .debug_aranges
                0x000009f8       0x20 c:/altera/13.0sp1/nios2eds/bin/gnu/h-i686-mingw32/bin/../lib/gcc/nios2-elf/4.1.2/../../../../nios2-elf/lib\libc.a(lib_a-isattyr.o)
 .debug_aranges
                0x00000a18       0x20 c:/altera/13.0sp1/nios2eds/bin/gnu/h-i686-mingw32/bin/../lib/gcc/nios2-elf/4.1.2/../../../../nios2-elf/lib\libc.a(lib_a-lseekr.o)
 .debug_aranges
                0x00000a38       0x20 c:/altera/13.0sp1/nios2eds/bin/gnu/h-i686-mingw32/bin/../lib/gcc/nios2-elf/4.1.2/../../../../nios2-elf/lib\libc.a(lib_a-readr.o)
 .debug_aranges
                0x00000a58       0x20 ../VGA_Audio_PS2_bsp/\libhal_bsp.a(alt_exit.o)
 .debug_aranges
                0x00000a78       0x20 ../VGA_Audio_PS2_bsp/\libhal_bsp.a(alt_fstat.o)
 .debug_aranges
                0x00000a98       0x20 ../VGA_Audio_PS2_bsp/\libhal_bsp.a(alt_isatty.o)
 .debug_aranges
                0x00000ab8       0x20 ../VGA_Audio_PS2_bsp/\libhal_bsp.a(alt_lseek.o)
 .debug_aranges
                0x00000ad8       0x20 ../VGA_Audio_PS2_bsp/\libhal_bsp.a(alt_malloc_lock.o)
 .debug_aranges
                0x00000af8       0x20 ../VGA_Audio_PS2_bsp/\libhal_bsp.a(alt_read.o)
 .debug_aranges
                0x00000b18       0x20 ../VGA_Audio_PS2_bsp/\libhal_bsp.a(alt_sbrk.o)
 .debug_aranges
                0x00000b38       0x20 ../VGA_Audio_PS2_bsp/\libhal_bsp.a(alt_write.o)

.debug_pubnames
                0x00000000     0x1f23
 *(.debug_pubnames)
 .debug_pubnames
                0x00000000       0x1e obj/default/PS2_ISR.o
 .debug_pubnames
                0x0000001e      0x164 obj/default/amplitude_calculation.o
 .debug_pubnames
                0x00000182       0x20 obj/default/audio_ISR.o
 .debug_pubnames
                0x000001a2      0x140 obj/default/globals.o
 .debug_pubnames
                0x000002e2       0x29 obj/default/interval_timer_ISR.o
 .debug_pubnames
                0x0000030b      0x1c4 obj/default/media_interrupt_HAL.o
 .debug_pubnames
                0x000004cf       0x25 obj/default/pushbutton_ISR.o
 .debug_pubnames
                0x000004f4       0x1f c:/altera/13.0sp1/nios2eds/bin/gnu/h-i686-mingw32/bin/../lib/gcc/nios2-elf/4.1.2\libgcc.a(_muldi3.o)
 .debug_pubnames
                0x00000513       0x1f c:/altera/13.0sp1/nios2eds/bin/gnu/h-i686-mingw32/bin/../lib/gcc/nios2-elf/4.1.2\libgcc.a(_divdi3.o)
 .debug_pubnames
                0x00000532       0x48 c:/altera/13.0sp1/nios2eds/bin/gnu/h-i686-mingw32/bin/../lib/gcc/nios2-elf/4.1.2\libgcc.a(lib2-divmod.o)
 .debug_pubnames
                0x0000057a       0x20 c:/altera/13.0sp1/nios2eds/bin/gnu/h-i686-mingw32/bin/../lib/gcc/nios2-elf/4.1.2\libgcc.a(_clz.o)
 .debug_pubnames
                0x0000059a       0x1d c:/altera/13.0sp1/nios2eds/bin/gnu/h-i686-mingw32/bin/../lib/gcc/nios2-elf/4.1.2/../../../../nios2-elf/lib\libc.a(lib_a-memcpy.o)
 .debug_pubnames
                0x000005b7       0x1d c:/altera/13.0sp1/nios2eds/bin/gnu/h-i686-mingw32/bin/../lib/gcc/nios2-elf/4.1.2/../../../../nios2-elf/lib\libc.a(lib_a-memset.o)
 .debug_pubnames
                0x000005d4       0x27 ../VGA_Audio_PS2_bsp/\libhal_bsp.a(alt_irq_register.o)
 .debug_pubnames
                0x000005fb       0x3b ../VGA_Audio_PS2_bsp/\libhal_bsp.a(alt_irq_vars.o)
 .debug_pubnames
                0x00000636       0x1f ../VGA_Audio_PS2_bsp/\libhal_bsp.a(alt_load.o)
 .debug_pubnames
                0x00000655       0x46 ../VGA_Audio_PS2_bsp/\libhal_bsp.a(alt_main.o)
 .debug_pubnames
                0x0000069b       0x21 ../VGA_Audio_PS2_bsp/\libhal_bsp.a(alt_printf.o)
 .debug_pubnames
                0x000006bc       0x22 ../VGA_Audio_PS2_bsp/\libhal_bsp.a(alt_putchar.o)
 .debug_pubnames
                0x000006de       0x34 ../VGA_Audio_PS2_bsp/\libhal_bsp.a(alt_sys_init.o)
 .debug_pubnames
                0x00000712       0xa5 ../VGA_Audio_PS2_bsp/\libhal_bsp.a(altera_avalon_jtag_uart_fd.o)
 .debug_pubnames
                0x000007b7       0x55 ../VGA_Audio_PS2_bsp/\libhal_bsp.a(altera_avalon_jtag_uart_init.o)
 .debug_pubnames
                0x0000080c       0x34 ../VGA_Audio_PS2_bsp/\libhal_bsp.a(altera_avalon_jtag_uart_ioctl.o)
 .debug_pubnames
                0x00000840       0x33 ../VGA_Audio_PS2_bsp/\libhal_bsp.a(altera_avalon_jtag_uart_read.o)
 .debug_pubnames
                0x00000873       0x34 ../VGA_Audio_PS2_bsp/\libhal_bsp.a(altera_avalon_jtag_uart_write.o)
 .debug_pubnames
                0x000008a7       0x2f ../VGA_Audio_PS2_bsp/\libhal_bsp.a(altera_avalon_timer_sc.o)
 .debug_pubnames
                0x000008d6      0x25e ../VGA_Audio_PS2_bsp/\libhal_bsp.a(altera_up_avalon_audio.o)
 .debug_pubnames
                0x00000b34      0x1cd ../VGA_Audio_PS2_bsp/\libhal_bsp.a(altera_up_avalon_character_lcd.o)
 .debug_pubnames
                0x00000d01       0x48 ../VGA_Audio_PS2_bsp/\libhal_bsp.a(altera_up_avalon_ethernet.o)
 .debug_pubnames
                0x00000d49       0x90 ../VGA_Audio_PS2_bsp/\libhal_bsp.a(altera_up_avalon_ethernet_low_level_driver.o)
 .debug_pubnames
                0x00000dd9      0x159 ../VGA_Audio_PS2_bsp/\libhal_bsp.a(altera_up_avalon_irda.o)
 .debug_pubnames
                0x00000f32       0x34 ../VGA_Audio_PS2_bsp/\libhal_bsp.a(altera_up_avalon_parallel_port.o)
 .debug_pubnames
                0x00000f66      0x1ed ../VGA_Audio_PS2_bsp/\libhal_bsp.a(altera_up_avalon_ps2.o)
 .debug_pubnames
                0x00001153      0x163 ../VGA_Audio_PS2_bsp/\libhal_bsp.a(altera_up_avalon_rs232.o)
 .debug_pubnames
                0x000012b6       0xa5 ../VGA_Audio_PS2_bsp/\libhal_bsp.a(altera_up_avalon_video_character_buffer_with_dma.o)
 .debug_pubnames
                0x0000135b      0x1f1 ../VGA_Audio_PS2_bsp/\libhal_bsp.a(altera_up_avalon_video_pixel_buffer_dma.o)
 .debug_pubnames
                0x0000154c       0x26 ../VGA_Audio_PS2_bsp/\libhal_bsp.a(alt_alarm_start.o)
 .debug_pubnames
                0x00001572       0x1c ../VGA_Audio_PS2_bsp/\libhal_bsp.a(alt_close.o)
 .debug_pubnames
                0x0000158e       0x2b ../VGA_Audio_PS2_bsp/\libhal_bsp.a(alt_dcache_flush_all.o)
 .debug_pubnames
                0x000015b9       0x63 ../VGA_Audio_PS2_bsp/\libhal_bsp.a(alt_dev.o)
 .debug_pubnames
                0x0000161c       0x2b ../VGA_Audio_PS2_bsp/\libhal_bsp.a(alt_dev_llist_insert.o)
 .debug_pubnames
                0x00001647       0x20 ../VGA_Audio_PS2_bsp/\libhal_bsp.a(alt_do_ctors.o)
 .debug_pubnames
                0x00001667       0x20 ../VGA_Audio_PS2_bsp/\libhal_bsp.a(alt_do_dtors.o)
 .debug_pubnames
                0x00001687       0x20 ../VGA_Audio_PS2_bsp/\libhal_bsp.a(alt_errno.o)
 .debug_pubnames
                0x000016a7       0x23 ../VGA_Audio_PS2_bsp/\libhal_bsp.a(alt_find_dev.o)
 .debug_pubnames
                0x000016ca       0x2b ../VGA_Audio_PS2_bsp/\libhal_bsp.a(alt_icache_flush_all.o)
 .debug_pubnames
                0x000016f5       0x26 ../VGA_Audio_PS2_bsp/\libhal_bsp.a(alt_io_redirect.o)
 .debug_pubnames
                0x0000171b       0x32 ../VGA_Audio_PS2_bsp/\libhal_bsp.a(alt_irq_handler.o)
 .debug_pubnames
                0x0000174d       0x1b ../VGA_Audio_PS2_bsp/\libhal_bsp.a(alt_open.o)
 .debug_pubnames
                0x00001768       0x25 ../VGA_Audio_PS2_bsp/\libhal_bsp.a(alt_release_fd.o)
 .debug_pubnames
                0x0000178d       0x68 ../VGA_Audio_PS2_bsp/\libhal_bsp.a(alt_tick.o)
 .debug_pubnames
                0x000017f5       0x1d ../VGA_Audio_PS2_bsp/\libhal_bsp.a(alt_usleep.o)
 .debug_pubnames
                0x00001812       0x31 ../VGA_Audio_PS2_bsp/\libhal_bsp.a(altera_nios2_qsys_irq.o)
 .debug_pubnames
                0x00001843       0x25 ../VGA_Audio_PS2_bsp/\libhal_bsp.a(alt_busy_sleep.o)
 .debug_pubnames
                0x00001868       0x24 ../VGA_Audio_PS2_bsp/\libhal_bsp.a(alt_find_file.o)
 .debug_pubnames
                0x0000188c       0x21 ../VGA_Audio_PS2_bsp/\libhal_bsp.a(alt_get_fd.o)
 .debug_pubnames
                0x000018ad       0x27 ../VGA_Audio_PS2_bsp/\libhal_bsp.a(alt_icache_flush.o)
 .debug_pubnames
                0x000018d4       0x2a c:/altera/13.0sp1/nios2eds/bin/gnu/h-i686-mingw32/bin/../lib/gcc/nios2-elf/4.1.2/../../../../nios2-elf/lib\libc.a(lib_a-atexit.o)
 .debug_pubnames
                0x000018fe       0x1b c:/altera/13.0sp1/nios2eds/bin/gnu/h-i686-mingw32/bin/../lib/gcc/nios2-elf/4.1.2/../../../../nios2-elf/lib\libc.a(lib_a-exit.o)
 .debug_pubnames
                0x00001919       0x39 c:/altera/13.0sp1/nios2eds/bin/gnu/h-i686-mingw32/bin/../lib/gcc/nios2-elf/4.1.2/../../../../nios2-elf/lib\libc.a(lib_a-impure.o)
 .debug_pubnames
                0x00001952       0x1c c:/altera/13.0sp1/nios2eds/bin/gnu/h-i686-mingw32/bin/../lib/gcc/nios2-elf/4.1.2/../../../../nios2-elf/lib\libc.a(lib_a-int_errno.o)
 .debug_pubnames
                0x0000196e       0x1d c:/altera/13.0sp1/nios2eds/bin/gnu/h-i686-mingw32/bin/../lib/gcc/nios2-elf/4.1.2/../../../../nios2-elf/lib\libc.a(lib_a-memcmp.o)
 .debug_pubnames
                0x0000198b       0x27 c:/altera/13.0sp1/nios2eds/bin/gnu/h-i686-mingw32/bin/../lib/gcc/nios2-elf/4.1.2/../../../../nios2-elf/lib\libc.a(lib_a-putc.o)
 .debug_pubnames
                0x000019b2       0x1d c:/altera/13.0sp1/nios2eds/bin/gnu/h-i686-mingw32/bin/../lib/gcc/nios2-elf/4.1.2/../../../../nios2-elf/lib\libc.a(lib_a-strcmp.o)
 .debug_pubnames
                0x000019cf       0x1d c:/altera/13.0sp1/nios2eds/bin/gnu/h-i686-mingw32/bin/../lib/gcc/nios2-elf/4.1.2/../../../../nios2-elf/lib\libc.a(lib_a-strlen.o)
 .debug_pubnames
                0x000019ec       0x2c c:/altera/13.0sp1/nios2eds/bin/gnu/h-i686-mingw32/bin/../lib/gcc/nios2-elf/4.1.2/../../../../nios2-elf/lib\libc.a(lib_a-wbuf.o)
 .debug_pubnames
                0x00001a18       0x22 c:/altera/13.0sp1/nios2eds/bin/gnu/h-i686-mingw32/bin/../lib/gcc/nios2-elf/4.1.2/../../../../nios2-elf/lib\libc.a(lib_a-wsetup.o)
 .debug_pubnames
                0x00001a3a       0x2a c:/altera/13.0sp1/nios2eds/bin/gnu/h-i686-mingw32/bin/../lib/gcc/nios2-elf/4.1.2/../../../../nios2-elf/lib\libc.a(lib_a-__atexit.o)
 .debug_pubnames
                0x00001a64       0x27 c:/altera/13.0sp1/nios2eds/bin/gnu/h-i686-mingw32/bin/../lib/gcc/nios2-elf/4.1.2/../../../../nios2-elf/lib\libc.a(lib_a-__call_atexit.o)
 .debug_pubnames
                0x00001a8b       0x2b c:/altera/13.0sp1/nios2eds/bin/gnu/h-i686-mingw32/bin/../lib/gcc/nios2-elf/4.1.2/../../../../nios2-elf/lib\libc.a(lib_a-fflush.o)
 .debug_pubnames
                0x00001ab6       0xdb c:/altera/13.0sp1/nios2eds/bin/gnu/h-i686-mingw32/bin/../lib/gcc/nios2-elf/4.1.2/../../../../nios2-elf/lib\libc.a(lib_a-findfp.o)
 .debug_pubnames
                0x00001b91       0x31 c:/altera/13.0sp1/nios2eds/bin/gnu/h-i686-mingw32/bin/../lib/gcc/nios2-elf/4.1.2/../../../../nios2-elf/lib\libc.a(lib_a-freer.o)
 .debug_pubnames
                0x00001bc2       0x2e c:/altera/13.0sp1/nios2eds/bin/gnu/h-i686-mingw32/bin/../lib/gcc/nios2-elf/4.1.2/../../../../nios2-elf/lib\libc.a(lib_a-fwalk.o)
 .debug_pubnames
                0x00001bf0       0x23 c:/altera/13.0sp1/nios2eds/bin/gnu/h-i686-mingw32/bin/../lib/gcc/nios2-elf/4.1.2/../../../../nios2-elf/lib\libc.a(lib_a-makebuf.o)
 .debug_pubnames
                0x00001c13       0xce c:/altera/13.0sp1/nios2eds/bin/gnu/h-i686-mingw32/bin/../lib/gcc/nios2-elf/4.1.2/../../../../nios2-elf/lib\libc.a(lib_a-mallocr.o)
 .debug_pubnames
                0x00001ce1       0x1e c:/altera/13.0sp1/nios2eds/bin/gnu/h-i686-mingw32/bin/../lib/gcc/nios2-elf/4.1.2/../../../../nios2-elf/lib\libc.a(lib_a-sbrkr.o)
 .debug_pubnames
                0x00001cff       0x44 c:/altera/13.0sp1/nios2eds/bin/gnu/h-i686-mingw32/bin/../lib/gcc/nios2-elf/4.1.2/../../../../nios2-elf/lib\libc.a(lib_a-stdio.o)
 .debug_pubnames
                0x00001d43       0x1f c:/altera/13.0sp1/nios2eds/bin/gnu/h-i686-mingw32/bin/../lib/gcc/nios2-elf/4.1.2/../../../../nios2-elf/lib\libc.a(lib_a-writer.o)
 .debug_pubnames
                0x00001d62       0x1f c:/altera/13.0sp1/nios2eds/bin/gnu/h-i686-mingw32/bin/../lib/gcc/nios2-elf/4.1.2/../../../../nios2-elf/lib\libc.a(lib_a-closer.o)
 .debug_pubnames
                0x00001d81       0x2b c:/altera/13.0sp1/nios2eds/bin/gnu/h-i686-mingw32/bin/../lib/gcc/nios2-elf/4.1.2/../../../../nios2-elf/lib\libc.a(lib_a-fclose.o)
 .debug_pubnames
                0x00001dac       0x1f c:/altera/13.0sp1/nios2eds/bin/gnu/h-i686-mingw32/bin/../lib/gcc/nios2-elf/4.1.2/../../../../nios2-elf/lib\libc.a(lib_a-fstatr.o)
 .debug_pubnames
                0x00001dcb       0x20 c:/altera/13.0sp1/nios2eds/bin/gnu/h-i686-mingw32/bin/../lib/gcc/nios2-elf/4.1.2/../../../../nios2-elf/lib\libc.a(lib_a-isattyr.o)
 .debug_pubnames
                0x00001deb       0x1f c:/altera/13.0sp1/nios2eds/bin/gnu/h-i686-mingw32/bin/../lib/gcc/nios2-elf/4.1.2/../../../../nios2-elf/lib\libc.a(lib_a-lseekr.o)
 .debug_pubnames
                0x00001e0a       0x1e c:/altera/13.0sp1/nios2eds/bin/gnu/h-i686-mingw32/bin/../lib/gcc/nios2-elf/4.1.2/../../../../nios2-elf/lib\libc.a(lib_a-readr.o)
 .debug_pubnames
                0x00001e28       0x1c ../VGA_Audio_PS2_bsp/\libhal_bsp.a(alt_exit.o)
 .debug_pubnames
                0x00001e44       0x1c ../VGA_Audio_PS2_bsp/\libhal_bsp.a(alt_fstat.o)
 .debug_pubnames
                0x00001e60       0x1d ../VGA_Audio_PS2_bsp/\libhal_bsp.a(alt_isatty.o)
 .debug_pubnames
                0x00001e7d       0x1c ../VGA_Audio_PS2_bsp/\libhal_bsp.a(alt_lseek.o)
 .debug_pubnames
                0x00001e99       0x38 ../VGA_Audio_PS2_bsp/\libhal_bsp.a(alt_malloc_lock.o)
 .debug_pubnames
                0x00001ed1       0x1b ../VGA_Audio_PS2_bsp/\libhal_bsp.a(alt_read.o)
 .debug_pubnames
                0x00001eec       0x1b ../VGA_Audio_PS2_bsp/\libhal_bsp.a(alt_sbrk.o)
 .debug_pubnames
                0x00001f07       0x1c ../VGA_Audio_PS2_bsp/\libhal_bsp.a(alt_write.o)

.debug_info     0x00000000    0x23e8d
 *(.debug_info .gnu.linkonce.wi.*)
 .debug_info    0x00000000       0x6d ../VGA_Audio_PS2_bsp//obj/HAL/src/crt0.o
 .debug_info    0x0000006d      0x8b5 obj/default/PS2_ISR.o
 .debug_info    0x00000922      0x4c1 obj/default/amplitude_calculation.o
 .debug_info    0x00000de3      0x98d obj/default/audio_ISR.o
 .debug_info    0x00001770      0xa29 obj/default/globals.o
 .debug_info    0x00002199      0x87a obj/default/interval_timer_ISR.o
 .debug_info    0x00002a13     0x127c obj/default/media_interrupt_HAL.o
 .debug_info    0x00003c8f      0x88c obj/default/pushbutton_ISR.o
 .debug_info    0x0000451b      0x215 c:/altera/13.0sp1/nios2eds/bin/gnu/h-i686-mingw32/bin/../lib/gcc/nios2-elf/4.1.2\libgcc.a(_muldi3.o)
 .debug_info    0x00004730      0x777 c:/altera/13.0sp1/nios2eds/bin/gnu/h-i686-mingw32/bin/../lib/gcc/nios2-elf/4.1.2\libgcc.a(_divdi3.o)
 .debug_info    0x00004ea7      0x21c c:/altera/13.0sp1/nios2eds/bin/gnu/h-i686-mingw32/bin/../lib/gcc/nios2-elf/4.1.2\libgcc.a(lib2-divmod.o)
 .debug_info    0x000050c3       0xc9 c:/altera/13.0sp1/nios2eds/bin/gnu/h-i686-mingw32/bin/../lib/gcc/nios2-elf/4.1.2\libgcc.a(_clz.o)
 .debug_info    0x0000518c      0x106 c:/altera/13.0sp1/nios2eds/bin/gnu/h-i686-mingw32/bin/../lib/gcc/nios2-elf/4.1.2/../../../../nios2-elf/lib\libc.a(lib_a-memcpy.o)
 .debug_info    0x00005292      0x113 c:/altera/13.0sp1/nios2eds/bin/gnu/h-i686-mingw32/bin/../lib/gcc/nios2-elf/4.1.2/../../../../nios2-elf/lib\libc.a(lib_a-memset.o)
 .debug_info    0x000053a5      0x421 ../VGA_Audio_PS2_bsp/\libhal_bsp.a(alt_irq_register.o)
 .debug_info    0x000057c6      0x159 ../VGA_Audio_PS2_bsp/\libhal_bsp.a(alt_irq_vars.o)
 .debug_info    0x0000591f      0x27f ../VGA_Audio_PS2_bsp/\libhal_bsp.a(alt_load.o)
 .debug_info    0x00005b9e      0x25e ../VGA_Audio_PS2_bsp/\libhal_bsp.a(alt_main.o)
 .debug_info    0x00005dfc      0x19a ../VGA_Audio_PS2_bsp/\libhal_bsp.a(alt_printf.o)
 .debug_info    0x00005f96      0xbee ../VGA_Audio_PS2_bsp/\libhal_bsp.a(alt_putchar.o)
 .debug_info    0x00006b84      0xed5 ../VGA_Audio_PS2_bsp/\libhal_bsp.a(alt_sys_init.o)
 .debug_info    0x00007a59      0x7cb ../VGA_Audio_PS2_bsp/\libhal_bsp.a(altera_avalon_jtag_uart_fd.o)
 .debug_info    0x00008224      0x633 ../VGA_Audio_PS2_bsp/\libhal_bsp.a(altera_avalon_jtag_uart_init.o)
 .debug_info    0x00008857      0x435 ../VGA_Audio_PS2_bsp/\libhal_bsp.a(altera_avalon_jtag_uart_ioctl.o)
 .debug_info    0x00008c8c      0x56b ../VGA_Audio_PS2_bsp/\libhal_bsp.a(altera_avalon_jtag_uart_read.o)
 .debug_info    0x000091f7      0x563 ../VGA_Audio_PS2_bsp/\libhal_bsp.a(altera_avalon_jtag_uart_write.o)
 .debug_info    0x0000975a      0x3bd ../VGA_Audio_PS2_bsp/\libhal_bsp.a(altera_avalon_timer_sc.o)
 .debug_info    0x00009b17      0xac6 ../VGA_Audio_PS2_bsp/\libhal_bsp.a(altera_up_avalon_audio.o)
 .debug_info    0x0000a5dd      0x8db ../VGA_Audio_PS2_bsp/\libhal_bsp.a(altera_up_avalon_character_lcd.o)
 .debug_info    0x0000aeb8      0x4e1 ../VGA_Audio_PS2_bsp/\libhal_bsp.a(altera_up_avalon_ethernet.o)
 .debug_info    0x0000b399      0x2d3 ../VGA_Audio_PS2_bsp/\libhal_bsp.a(altera_up_avalon_ethernet_low_level_driver.o)
 .debug_info    0x0000b66c      0x7c6 ../VGA_Audio_PS2_bsp/\libhal_bsp.a(altera_up_avalon_irda.o)
 .debug_info    0x0000be32      0x480 ../VGA_Audio_PS2_bsp/\libhal_bsp.a(altera_up_avalon_parallel_port.o)
 .debug_info    0x0000c2b2      0xadf ../VGA_Audio_PS2_bsp/\libhal_bsp.a(altera_up_avalon_ps2.o)
 .debug_info    0x0000cd91      0x7d1 ../VGA_Audio_PS2_bsp/\libhal_bsp.a(altera_up_avalon_rs232.o)
 .debug_info    0x0000d562      0x684 ../VGA_Audio_PS2_bsp/\libhal_bsp.a(altera_up_avalon_video_character_buffer_with_dma.o)
 .debug_info    0x0000dbe6      0xe70 ../VGA_Audio_PS2_bsp/\libhal_bsp.a(altera_up_avalon_video_pixel_buffer_dma.o)
 .debug_info    0x0000ea56      0x467 ../VGA_Audio_PS2_bsp/\libhal_bsp.a(alt_alarm_start.o)
 .debug_info    0x0000eebd      0x459 ../VGA_Audio_PS2_bsp/\libhal_bsp.a(alt_close.o)
 .debug_info    0x0000f316      0x14e ../VGA_Audio_PS2_bsp/\libhal_bsp.a(alt_dcache_flush_all.o)
 .debug_info    0x0000f464      0x671 ../VGA_Audio_PS2_bsp/\libhal_bsp.a(alt_dev.o)
 .debug_info    0x0000fad5      0x2a9 ../VGA_Audio_PS2_bsp/\libhal_bsp.a(alt_dev_llist_insert.o)
 .debug_info    0x0000fd7e      0x101 ../VGA_Audio_PS2_bsp/\libhal_bsp.a(alt_do_ctors.o)
 .debug_info    0x0000fe7f      0x100 ../VGA_Audio_PS2_bsp/\libhal_bsp.a(alt_do_dtors.o)
 .debug_info    0x0000ff7f      0x156 ../VGA_Audio_PS2_bsp/\libhal_bsp.a(alt_errno.o)
 .debug_info    0x000100d5      0x40a ../VGA_Audio_PS2_bsp/\libhal_bsp.a(alt_find_dev.o)
 .debug_info    0x000104df      0x14e ../VGA_Audio_PS2_bsp/\libhal_bsp.a(alt_icache_flush_all.o)
 .debug_info    0x0001062d      0x687 ../VGA_Audio_PS2_bsp/\libhal_bsp.a(alt_io_redirect.o)
 .debug_info    0x00010cb4       0x76 ../VGA_Audio_PS2_bsp/\libhal_bsp.a(alt_irq_entry.o)
 .debug_info    0x00010d2a      0x2a4 ../VGA_Audio_PS2_bsp/\libhal_bsp.a(alt_irq_handler.o)
 .debug_info    0x00010fce      0x517 ../VGA_Audio_PS2_bsp/\libhal_bsp.a(alt_open.o)
 .debug_info    0x000114e5      0x3e4 ../VGA_Audio_PS2_bsp/\libhal_bsp.a(alt_release_fd.o)
 .debug_info    0x000118c9      0x423 ../VGA_Audio_PS2_bsp/\libhal_bsp.a(alt_tick.o)
 .debug_info    0x00011cec      0x15a ../VGA_Audio_PS2_bsp/\libhal_bsp.a(alt_usleep.o)
 .debug_info    0x00011e46      0x19c ../VGA_Audio_PS2_bsp/\libhal_bsp.a(altera_nios2_qsys_irq.o)
 .debug_info    0x00011fe2      0x19d ../VGA_Audio_PS2_bsp/\libhal_bsp.a(alt_busy_sleep.o)
 .debug_info    0x0001217f       0x7c ../VGA_Audio_PS2_bsp/\libhal_bsp.a(alt_exception_entry.o)
 .debug_info    0x000121fb      0x411 ../VGA_Audio_PS2_bsp/\libhal_bsp.a(alt_find_file.o)
 .debug_info    0x0001260c      0x452 ../VGA_Audio_PS2_bsp/\libhal_bsp.a(alt_get_fd.o)
 .debug_info    0x00012a5e      0x196 ../VGA_Audio_PS2_bsp/\libhal_bsp.a(alt_icache_flush.o)
 .debug_info    0x00012bf4      0x181 c:/altera/13.0sp1/nios2eds/bin/gnu/h-i686-mingw32/bin/../lib/gcc/nios2-elf/4.1.2/../../../../nios2-elf/lib\libc.a(lib_a-atexit.o)
 .debug_info    0x00012d75      0x93f c:/altera/13.0sp1/nios2eds/bin/gnu/h-i686-mingw32/bin/../lib/gcc/nios2-elf/4.1.2/../../../../nios2-elf/lib\libc.a(lib_a-exit.o)
 .debug_info    0x000136b4      0x93d c:/altera/13.0sp1/nios2eds/bin/gnu/h-i686-mingw32/bin/../lib/gcc/nios2-elf/4.1.2/../../../../nios2-elf/lib\libc.a(lib_a-impure.o)
 .debug_info    0x00013ff1       0x8c c:/altera/13.0sp1/nios2eds/bin/gnu/h-i686-mingw32/bin/../lib/gcc/nios2-elf/4.1.2/../../../../nios2-elf/lib\libc.a(lib_a-int_errno.o)
 .debug_info    0x0001407d      0x115 c:/altera/13.0sp1/nios2eds/bin/gnu/h-i686-mingw32/bin/../lib/gcc/nios2-elf/4.1.2/../../../../nios2-elf/lib\libc.a(lib_a-memcmp.o)
 .debug_info    0x00014192      0x9c1 c:/altera/13.0sp1/nios2eds/bin/gnu/h-i686-mingw32/bin/../lib/gcc/nios2-elf/4.1.2/../../../../nios2-elf/lib\libc.a(lib_a-putc.o)
 .debug_info    0x00014b53       0xdd c:/altera/13.0sp1/nios2eds/bin/gnu/h-i686-mingw32/bin/../lib/gcc/nios2-elf/4.1.2/../../../../nios2-elf/lib\libc.a(lib_a-strcmp.o)
 .debug_info    0x00014c30       0xdb c:/altera/13.0sp1/nios2eds/bin/gnu/h-i686-mingw32/bin/../lib/gcc/nios2-elf/4.1.2/../../../../nios2-elf/lib\libc.a(lib_a-strlen.o)
 .debug_info    0x00014d0b      0x9ae c:/altera/13.0sp1/nios2eds/bin/gnu/h-i686-mingw32/bin/../lib/gcc/nios2-elf/4.1.2/../../../../nios2-elf/lib\libc.a(lib_a-wbuf.o)
 .debug_info    0x000156b9      0x95d c:/altera/13.0sp1/nios2eds/bin/gnu/h-i686-mingw32/bin/../lib/gcc/nios2-elf/4.1.2/../../../../nios2-elf/lib\libc.a(lib_a-wsetup.o)
 .debug_info    0x00016016      0x99c c:/altera/13.0sp1/nios2eds/bin/gnu/h-i686-mingw32/bin/../lib/gcc/nios2-elf/4.1.2/../../../../nios2-elf/lib\libc.a(lib_a-__atexit.o)
 .debug_info    0x000169b2      0x9e2 c:/altera/13.0sp1/nios2eds/bin/gnu/h-i686-mingw32/bin/../lib/gcc/nios2-elf/4.1.2/../../../../nios2-elf/lib\libc.a(lib_a-__call_atexit.o)
 .debug_info    0x00017394      0x9fe c:/altera/13.0sp1/nios2eds/bin/gnu/h-i686-mingw32/bin/../lib/gcc/nios2-elf/4.1.2/../../../../nios2-elf/lib\libc.a(lib_a-fflush.o)
 .debug_info    0x00017d92      0xb72 c:/altera/13.0sp1/nios2eds/bin/gnu/h-i686-mingw32/bin/../lib/gcc/nios2-elf/4.1.2/../../../../nios2-elf/lib\libc.a(lib_a-findfp.o)
 .debug_info    0x00018904      0xbc9 c:/altera/13.0sp1/nios2eds/bin/gnu/h-i686-mingw32/bin/../lib/gcc/nios2-elf/4.1.2/../../../../nios2-elf/lib\libc.a(lib_a-freer.o)
 .debug_info    0x000194cd      0xaed c:/altera/13.0sp1/nios2eds/bin/gnu/h-i686-mingw32/bin/../lib/gcc/nios2-elf/4.1.2/../../../../nios2-elf/lib\libc.a(lib_a-fwalk.o)
 .debug_info    0x00019fba      0xb1a c:/altera/13.0sp1/nios2eds/bin/gnu/h-i686-mingw32/bin/../lib/gcc/nios2-elf/4.1.2/../../../../nios2-elf/lib\libc.a(lib_a-makebuf.o)
 .debug_info    0x0001aad4      0xcd0 c:/altera/13.0sp1/nios2eds/bin/gnu/h-i686-mingw32/bin/../lib/gcc/nios2-elf/4.1.2/../../../../nios2-elf/lib\libc.a(lib_a-mallocr.o)
 .debug_info    0x0001b7a4      0x962 c:/altera/13.0sp1/nios2eds/bin/gnu/h-i686-mingw32/bin/../lib/gcc/nios2-elf/4.1.2/../../../../nios2-elf/lib\libc.a(lib_a-sbrkr.o)
 .debug_info    0x0001c106      0xaac c:/altera/13.0sp1/nios2eds/bin/gnu/h-i686-mingw32/bin/../lib/gcc/nios2-elf/4.1.2/../../../../nios2-elf/lib\libc.a(lib_a-stdio.o)
 .debug_info    0x0001cbb2      0x993 c:/altera/13.0sp1/nios2eds/bin/gnu/h-i686-mingw32/bin/../lib/gcc/nios2-elf/4.1.2/../../../../nios2-elf/lib\libc.a(lib_a-writer.o)
 .debug_info    0x0001d545      0x958 c:/altera/13.0sp1/nios2eds/bin/gnu/h-i686-mingw32/bin/../lib/gcc/nios2-elf/4.1.2/../../../../nios2-elf/lib\libc.a(lib_a-closer.o)
 .debug_info    0x0001de9d      0x994 c:/altera/13.0sp1/nios2eds/bin/gnu/h-i686-mingw32/bin/../lib/gcc/nios2-elf/4.1.2/../../../../nios2-elf/lib\libc.a(lib_a-fclose.o)
 .debug_info    0x0001e831      0xafc c:/altera/13.0sp1/nios2eds/bin/gnu/h-i686-mingw32/bin/../lib/gcc/nios2-elf/4.1.2/../../../../nios2-elf/lib\libc.a(lib_a-fstatr.o)
 .debug_info    0x0001f32d      0x958 c:/altera/13.0sp1/nios2eds/bin/gnu/h-i686-mingw32/bin/../lib/gcc/nios2-elf/4.1.2/../../../../nios2-elf/lib\libc.a(lib_a-isattyr.o)
 .debug_info    0x0001fc85      0x981 c:/altera/13.0sp1/nios2eds/bin/gnu/h-i686-mingw32/bin/../lib/gcc/nios2-elf/4.1.2/../../../../nios2-elf/lib\libc.a(lib_a-lseekr.o)
 .debug_info    0x00020606      0x98c c:/altera/13.0sp1/nios2eds/bin/gnu/h-i686-mingw32/bin/../lib/gcc/nios2-elf/4.1.2/../../../../nios2-elf/lib\libc.a(lib_a-readr.o)
 .debug_info    0x00020f92      0x1ca ../VGA_Audio_PS2_bsp/\libhal_bsp.a(alt_exit.o)
 .debug_info    0x0002115c      0x652 ../VGA_Audio_PS2_bsp/\libhal_bsp.a(alt_fstat.o)
 .debug_info    0x000217ae      0x658 ../VGA_Audio_PS2_bsp/\libhal_bsp.a(alt_isatty.o)
 .debug_info    0x00021e06      0x48c ../VGA_Audio_PS2_bsp/\libhal_bsp.a(alt_lseek.o)
 .debug_info    0x00022292      0xc0a ../VGA_Audio_PS2_bsp/\libhal_bsp.a(alt_malloc_lock.o)
 .debug_info    0x00022e9c      0x67c ../VGA_Audio_PS2_bsp/\libhal_bsp.a(alt_read.o)
 .debug_info    0x00023518      0x2f0 ../VGA_Audio_PS2_bsp/\libhal_bsp.a(alt_sbrk.o)
 .debug_info    0x00023808      0x685 ../VGA_Audio_PS2_bsp/\libhal_bsp.a(alt_write.o)

.debug_abbrev   0x00000000     0x65ae
 *(.debug_abbrev)
 .debug_abbrev  0x00000000       0x12 ../VGA_Audio_PS2_bsp//obj/HAL/src/crt0.o
 .debug_abbrev  0x00000012      0x115 obj/default/PS2_ISR.o
 .debug_abbrev  0x00000127       0xd5 obj/default/amplitude_calculation.o
 .debug_abbrev  0x000001fc      0x127 obj/default/audio_ISR.o
 .debug_abbrev  0x00000323      0x103 obj/default/globals.o
 .debug_abbrev  0x00000426      0x115 obj/default/interval_timer_ISR.o
 .debug_abbrev  0x0000053b      0x1b8 obj/default/media_interrupt_HAL.o
 .debug_abbrev  0x000006f3      0x124 obj/default/pushbutton_ISR.o
 .debug_abbrev  0x00000817       0xee c:/altera/13.0sp1/nios2eds/bin/gnu/h-i686-mingw32/bin/../lib/gcc/nios2-elf/4.1.2\libgcc.a(_muldi3.o)
 .debug_abbrev  0x00000905      0x183 c:/altera/13.0sp1/nios2eds/bin/gnu/h-i686-mingw32/bin/../lib/gcc/nios2-elf/4.1.2\libgcc.a(_divdi3.o)
 .debug_abbrev  0x00000a88       0xe0 c:/altera/13.0sp1/nios2eds/bin/gnu/h-i686-mingw32/bin/../lib/gcc/nios2-elf/4.1.2\libgcc.a(lib2-divmod.o)
 .debug_abbrev  0x00000b68       0x61 c:/altera/13.0sp1/nios2eds/bin/gnu/h-i686-mingw32/bin/../lib/gcc/nios2-elf/4.1.2\libgcc.a(_clz.o)
 .debug_abbrev  0x00000bc9       0xb5 c:/altera/13.0sp1/nios2eds/bin/gnu/h-i686-mingw32/bin/../lib/gcc/nios2-elf/4.1.2/../../../../nios2-elf/lib\libc.a(lib_a-memcpy.o)
 .debug_abbrev  0x00000c7e       0xb8 c:/altera/13.0sp1/nios2eds/bin/gnu/h-i686-mingw32/bin/../lib/gcc/nios2-elf/4.1.2/../../../../nios2-elf/lib\libc.a(lib_a-memset.o)
 .debug_abbrev  0x00000d36      0x180 ../VGA_Audio_PS2_bsp/\libhal_bsp.a(alt_irq_register.o)
 .debug_abbrev  0x00000eb6       0x44 ../VGA_Audio_PS2_bsp/\libhal_bsp.a(alt_irq_vars.o)
 .debug_abbrev  0x00000efa       0x88 ../VGA_Audio_PS2_bsp/\libhal_bsp.a(alt_load.o)
 .debug_abbrev  0x00000f82       0xbe ../VGA_Audio_PS2_bsp/\libhal_bsp.a(alt_main.o)
 .debug_abbrev  0x00001040       0x91 ../VGA_Audio_PS2_bsp/\libhal_bsp.a(alt_printf.o)
 .debug_abbrev  0x000010d1      0x17f ../VGA_Audio_PS2_bsp/\libhal_bsp.a(alt_putchar.o)
 .debug_abbrev  0x00001250      0x18f ../VGA_Audio_PS2_bsp/\libhal_bsp.a(alt_sys_init.o)
 .debug_abbrev  0x000013df       0xf7 ../VGA_Audio_PS2_bsp/\libhal_bsp.a(altera_avalon_jtag_uart_fd.o)
 .debug_abbrev  0x000014d6      0x17c ../VGA_Audio_PS2_bsp/\libhal_bsp.a(altera_avalon_jtag_uart_init.o)
 .debug_abbrev  0x00001652       0xf0 ../VGA_Audio_PS2_bsp/\libhal_bsp.a(altera_avalon_jtag_uart_ioctl.o)
 .debug_abbrev  0x00001742      0x191 ../VGA_Audio_PS2_bsp/\libhal_bsp.a(altera_avalon_jtag_uart_read.o)
 .debug_abbrev  0x000018d3      0x18d ../VGA_Audio_PS2_bsp/\libhal_bsp.a(altera_avalon_jtag_uart_write.o)
 .debug_abbrev  0x00001a60      0x137 ../VGA_Audio_PS2_bsp/\libhal_bsp.a(altera_avalon_timer_sc.o)
 .debug_abbrev  0x00001b97      0x164 ../VGA_Audio_PS2_bsp/\libhal_bsp.a(altera_up_avalon_audio.o)
 .debug_abbrev  0x00001cfb      0x127 ../VGA_Audio_PS2_bsp/\libhal_bsp.a(altera_up_avalon_character_lcd.o)
 .debug_abbrev  0x00001e22      0x114 ../VGA_Audio_PS2_bsp/\libhal_bsp.a(altera_up_avalon_ethernet.o)
 .debug_abbrev  0x00001f36       0x8d ../VGA_Audio_PS2_bsp/\libhal_bsp.a(altera_up_avalon_ethernet_low_level_driver.o)
 .debug_abbrev  0x00001fc3      0x120 ../VGA_Audio_PS2_bsp/\libhal_bsp.a(altera_up_avalon_irda.o)
 .debug_abbrev  0x000020e3       0xf2 ../VGA_Audio_PS2_bsp/\libhal_bsp.a(altera_up_avalon_parallel_port.o)
 .debug_abbrev  0x000021d5      0x16d ../VGA_Audio_PS2_bsp/\libhal_bsp.a(altera_up_avalon_ps2.o)
 .debug_abbrev  0x00002342      0x120 ../VGA_Audio_PS2_bsp/\libhal_bsp.a(altera_up_avalon_rs232.o)
 .debug_abbrev  0x00002462      0x111 ../VGA_Audio_PS2_bsp/\libhal_bsp.a(altera_up_avalon_video_character_buffer_with_dma.o)
 .debug_abbrev  0x00002573      0x196 ../VGA_Audio_PS2_bsp/\libhal_bsp.a(altera_up_avalon_video_pixel_buffer_dma.o)
 .debug_abbrev  0x00002709      0x172 ../VGA_Audio_PS2_bsp/\libhal_bsp.a(alt_alarm_start.o)
 .debug_abbrev  0x0000287b       0xfb ../VGA_Audio_PS2_bsp/\libhal_bsp.a(alt_close.o)
 .debug_abbrev  0x00002976       0x3f ../VGA_Audio_PS2_bsp/\libhal_bsp.a(alt_dcache_flush_all.o)
 .debug_abbrev  0x000029b5       0xc7 ../VGA_Audio_PS2_bsp/\libhal_bsp.a(alt_dev.o)
 .debug_abbrev  0x00002a7c       0xf6 ../VGA_Audio_PS2_bsp/\libhal_bsp.a(alt_dev_llist_insert.o)
 .debug_abbrev  0x00002b72       0x76 ../VGA_Audio_PS2_bsp/\libhal_bsp.a(alt_do_ctors.o)
 .debug_abbrev  0x00002be8       0x76 ../VGA_Audio_PS2_bsp/\libhal_bsp.a(alt_do_dtors.o)
 .debug_abbrev  0x00002c5e       0x5e ../VGA_Audio_PS2_bsp/\libhal_bsp.a(alt_errno.o)
 .debug_abbrev  0x00002cbc       0xcf ../VGA_Audio_PS2_bsp/\libhal_bsp.a(alt_find_dev.o)
 .debug_abbrev  0x00002d8b       0x3f ../VGA_Audio_PS2_bsp/\libhal_bsp.a(alt_icache_flush_all.o)
 .debug_abbrev  0x00002dca       0xf0 ../VGA_Audio_PS2_bsp/\libhal_bsp.a(alt_io_redirect.o)
 .debug_abbrev  0x00002eba       0x12 ../VGA_Audio_PS2_bsp/\libhal_bsp.a(alt_irq_entry.o)
 .debug_abbrev  0x00002ecc      0x124 ../VGA_Audio_PS2_bsp/\libhal_bsp.a(alt_irq_handler.o)
 .debug_abbrev  0x00002ff0      0x112 ../VGA_Audio_PS2_bsp/\libhal_bsp.a(alt_open.o)
 .debug_abbrev  0x00003102       0xc1 ../VGA_Audio_PS2_bsp/\libhal_bsp.a(alt_release_fd.o)
 .debug_abbrev  0x000031c3      0x161 ../VGA_Audio_PS2_bsp/\libhal_bsp.a(alt_tick.o)
 .debug_abbrev  0x00003324       0x5d ../VGA_Audio_PS2_bsp/\libhal_bsp.a(alt_usleep.o)
 .debug_abbrev  0x00003381       0x64 ../VGA_Audio_PS2_bsp/\libhal_bsp.a(altera_nios2_qsys_irq.o)
 .debug_abbrev  0x000033e5       0x6c ../VGA_Audio_PS2_bsp/\libhal_bsp.a(alt_busy_sleep.o)
 .debug_abbrev  0x00003451       0x12 ../VGA_Audio_PS2_bsp/\libhal_bsp.a(alt_exception_entry.o)
 .debug_abbrev  0x00003463       0xcf ../VGA_Audio_PS2_bsp/\libhal_bsp.a(alt_find_file.o)
 .debug_abbrev  0x00003532       0xfb ../VGA_Audio_PS2_bsp/\libhal_bsp.a(alt_get_fd.o)
 .debug_abbrev  0x0000362d       0x7a ../VGA_Audio_PS2_bsp/\libhal_bsp.a(alt_icache_flush.o)
 .debug_abbrev  0x000036a7       0xb7 c:/altera/13.0sp1/nios2eds/bin/gnu/h-i686-mingw32/bin/../lib/gcc/nios2-elf/4.1.2/../../../../nios2-elf/lib\libc.a(lib_a-atexit.o)
 .debug_abbrev  0x0000375e      0x16e c:/altera/13.0sp1/nios2eds/bin/gnu/h-i686-mingw32/bin/../lib/gcc/nios2-elf/4.1.2/../../../../nios2-elf/lib\libc.a(lib_a-exit.o)
 .debug_abbrev  0x000038cc      0x157 c:/altera/13.0sp1/nios2eds/bin/gnu/h-i686-mingw32/bin/../lib/gcc/nios2-elf/4.1.2/../../../../nios2-elf/lib\libc.a(lib_a-impure.o)
 .debug_abbrev  0x00003a23       0x3b c:/altera/13.0sp1/nios2eds/bin/gnu/h-i686-mingw32/bin/../lib/gcc/nios2-elf/4.1.2/../../../../nios2-elf/lib\libc.a(lib_a-int_errno.o)
 .debug_abbrev  0x00003a5e       0x7c c:/altera/13.0sp1/nios2eds/bin/gnu/h-i686-mingw32/bin/../lib/gcc/nios2-elf/4.1.2/../../../../nios2-elf/lib\libc.a(lib_a-memcmp.o)
 .debug_abbrev  0x00003ada      0x17f c:/altera/13.0sp1/nios2eds/bin/gnu/h-i686-mingw32/bin/../lib/gcc/nios2-elf/4.1.2/../../../../nios2-elf/lib\libc.a(lib_a-putc.o)
 .debug_abbrev  0x00003c59       0x80 c:/altera/13.0sp1/nios2eds/bin/gnu/h-i686-mingw32/bin/../lib/gcc/nios2-elf/4.1.2/../../../../nios2-elf/lib\libc.a(lib_a-strcmp.o)
 .debug_abbrev  0x00003cd9       0x8b c:/altera/13.0sp1/nios2eds/bin/gnu/h-i686-mingw32/bin/../lib/gcc/nios2-elf/4.1.2/../../../../nios2-elf/lib\libc.a(lib_a-strlen.o)
 .debug_abbrev  0x00003d64      0x198 c:/altera/13.0sp1/nios2eds/bin/gnu/h-i686-mingw32/bin/../lib/gcc/nios2-elf/4.1.2/../../../../nios2-elf/lib\libc.a(lib_a-wbuf.o)
 .debug_abbrev  0x00003efc      0x170 c:/altera/13.0sp1/nios2eds/bin/gnu/h-i686-mingw32/bin/../lib/gcc/nios2-elf/4.1.2/../../../../nios2-elf/lib\libc.a(lib_a-wsetup.o)
 .debug_abbrev  0x0000406c      0x1ae c:/altera/13.0sp1/nios2eds/bin/gnu/h-i686-mingw32/bin/../lib/gcc/nios2-elf/4.1.2/../../../../nios2-elf/lib\libc.a(lib_a-__atexit.o)
 .debug_abbrev  0x0000421a      0x1de c:/altera/13.0sp1/nios2eds/bin/gnu/h-i686-mingw32/bin/../lib/gcc/nios2-elf/4.1.2/../../../../nios2-elf/lib\libc.a(lib_a-__call_atexit.o)
 .debug_abbrev  0x000043f8      0x1c6 c:/altera/13.0sp1/nios2eds/bin/gnu/h-i686-mingw32/bin/../lib/gcc/nios2-elf/4.1.2/../../../../nios2-elf/lib\libc.a(lib_a-fflush.o)
 .debug_abbrev  0x000045be      0x24c c:/altera/13.0sp1/nios2eds/bin/gnu/h-i686-mingw32/bin/../lib/gcc/nios2-elf/4.1.2/../../../../nios2-elf/lib\libc.a(lib_a-findfp.o)
 .debug_abbrev  0x0000480a      0x1d9 c:/altera/13.0sp1/nios2eds/bin/gnu/h-i686-mingw32/bin/../lib/gcc/nios2-elf/4.1.2/../../../../nios2-elf/lib\libc.a(lib_a-freer.o)
 .debug_abbrev  0x000049e3      0x1e3 c:/altera/13.0sp1/nios2eds/bin/gnu/h-i686-mingw32/bin/../lib/gcc/nios2-elf/4.1.2/../../../../nios2-elf/lib\libc.a(lib_a-fwalk.o)
 .debug_abbrev  0x00004bc6      0x197 c:/altera/13.0sp1/nios2eds/bin/gnu/h-i686-mingw32/bin/../lib/gcc/nios2-elf/4.1.2/../../../../nios2-elf/lib\libc.a(lib_a-makebuf.o)
 .debug_abbrev  0x00004d5d      0x216 c:/altera/13.0sp1/nios2eds/bin/gnu/h-i686-mingw32/bin/../lib/gcc/nios2-elf/4.1.2/../../../../nios2-elf/lib\libc.a(lib_a-mallocr.o)
 .debug_abbrev  0x00004f73      0x18c c:/altera/13.0sp1/nios2eds/bin/gnu/h-i686-mingw32/bin/../lib/gcc/nios2-elf/4.1.2/../../../../nios2-elf/lib\libc.a(lib_a-sbrkr.o)
 .debug_abbrev  0x000050ff      0x1c9 c:/altera/13.0sp1/nios2eds/bin/gnu/h-i686-mingw32/bin/../lib/gcc/nios2-elf/4.1.2/../../../../nios2-elf/lib\libc.a(lib_a-stdio.o)
 .debug_abbrev  0x000052c8      0x184 c:/altera/13.0sp1/nios2eds/bin/gnu/h-i686-mingw32/bin/../lib/gcc/nios2-elf/4.1.2/../../../../nios2-elf/lib\libc.a(lib_a-writer.o)
 .debug_abbrev  0x0000544c      0x17f c:/altera/13.0sp1/nios2eds/bin/gnu/h-i686-mingw32/bin/../lib/gcc/nios2-elf/4.1.2/../../../../nios2-elf/lib\libc.a(lib_a-closer.o)
 .debug_abbrev  0x000055cb      0x1a7 c:/altera/13.0sp1/nios2eds/bin/gnu/h-i686-mingw32/bin/../lib/gcc/nios2-elf/4.1.2/../../../../nios2-elf/lib\libc.a(lib_a-fclose.o)
 .debug_abbrev  0x00005772      0x18e c:/altera/13.0sp1/nios2eds/bin/gnu/h-i686-mingw32/bin/../lib/gcc/nios2-elf/4.1.2/../../../../nios2-elf/lib\libc.a(lib_a-fstatr.o)
 .debug_abbrev  0x00005900      0x17f c:/altera/13.0sp1/nios2eds/bin/gnu/h-i686-mingw32/bin/../lib/gcc/nios2-elf/4.1.2/../../../../nios2-elf/lib\libc.a(lib_a-isattyr.o)
 .debug_abbrev  0x00005a7f      0x18e c:/altera/13.0sp1/nios2eds/bin/gnu/h-i686-mingw32/bin/../lib/gcc/nios2-elf/4.1.2/../../../../nios2-elf/lib\libc.a(lib_a-lseekr.o)
 .debug_abbrev  0x00005c0d      0x17f c:/altera/13.0sp1/nios2eds/bin/gnu/h-i686-mingw32/bin/../lib/gcc/nios2-elf/4.1.2/../../../../nios2-elf/lib\libc.a(lib_a-readr.o)
 .debug_abbrev  0x00005d8c       0x99 ../VGA_Audio_PS2_bsp/\libhal_bsp.a(alt_exit.o)
 .debug_abbrev  0x00005e25       0xfb ../VGA_Audio_PS2_bsp/\libhal_bsp.a(alt_fstat.o)
 .debug_abbrev  0x00005f20       0xfb ../VGA_Audio_PS2_bsp/\libhal_bsp.a(alt_isatty.o)
 .debug_abbrev  0x0000601b       0xfb ../VGA_Audio_PS2_bsp/\libhal_bsp.a(alt_lseek.o)
 .debug_abbrev  0x00006116      0x181 ../VGA_Audio_PS2_bsp/\libhal_bsp.a(alt_malloc_lock.o)
 .debug_abbrev  0x00006297       0xfb ../VGA_Audio_PS2_bsp/\libhal_bsp.a(alt_read.o)
 .debug_abbrev  0x00006392      0x11c ../VGA_Audio_PS2_bsp/\libhal_bsp.a(alt_sbrk.o)
 .debug_abbrev  0x000064ae      0x100 ../VGA_Audio_PS2_bsp/\libhal_bsp.a(alt_write.o)

.debug_line     0x00000000    0x11fb1
 *(.debug_line)
 .debug_line    0x00000000       0x6c ../VGA_Audio_PS2_bsp//obj/HAL/src/crt0.o
 .debug_line    0x0000006c      0x3be obj/default/PS2_ISR.o
 .debug_line    0x0000042a      0x4ec obj/default/amplitude_calculation.o
 .debug_line    0x00000916      0x47c obj/default/audio_ISR.o
 .debug_line    0x00000d92      0x34c obj/default/globals.o
 .debug_line    0x000010de      0x389 obj/default/interval_timer_ISR.o
 .debug_line    0x00001467      0xd92 obj/default/media_interrupt_HAL.o
 .debug_line    0x000021f9      0x3bd obj/default/pushbutton_ISR.o
 .debug_line    0x000025b6      0x11f c:/altera/13.0sp1/nios2eds/bin/gnu/h-i686-mingw32/bin/../lib/gcc/nios2-elf/4.1.2\libgcc.a(_muldi3.o)
 .debug_line    0x000026d5      0x367 c:/altera/13.0sp1/nios2eds/bin/gnu/h-i686-mingw32/bin/../lib/gcc/nios2-elf/4.1.2\libgcc.a(_divdi3.o)
 .debug_line    0x00002a3c      0x24f c:/altera/13.0sp1/nios2eds/bin/gnu/h-i686-mingw32/bin/../lib/gcc/nios2-elf/4.1.2\libgcc.a(lib2-divmod.o)
 .debug_line    0x00002c8b       0xaa c:/altera/13.0sp1/nios2eds/bin/gnu/h-i686-mingw32/bin/../lib/gcc/nios2-elf/4.1.2\libgcc.a(_clz.o)
 .debug_line    0x00002d35      0x1ac c:/altera/13.0sp1/nios2eds/bin/gnu/h-i686-mingw32/bin/../lib/gcc/nios2-elf/4.1.2/../../../../nios2-elf/lib\libc.a(lib_a-memcpy.o)
 .debug_line    0x00002ee1      0x301 c:/altera/13.0sp1/nios2eds/bin/gnu/h-i686-mingw32/bin/../lib/gcc/nios2-elf/4.1.2/../../../../nios2-elf/lib\libc.a(lib_a-memset.o)
 .debug_line    0x000031e2      0x303 ../VGA_Audio_PS2_bsp/\libhal_bsp.a(alt_irq_register.o)
 .debug_line    0x000034e5       0x72 ../VGA_Audio_PS2_bsp/\libhal_bsp.a(alt_irq_vars.o)
 .debug_line    0x00003557      0x217 ../VGA_Audio_PS2_bsp/\libhal_bsp.a(alt_load.o)
 .debug_line    0x0000376e      0x2de ../VGA_Audio_PS2_bsp/\libhal_bsp.a(alt_main.o)
 .debug_line    0x00003a4c      0x1da ../VGA_Audio_PS2_bsp/\libhal_bsp.a(alt_printf.o)
 .debug_line    0x00003c26      0x1ca ../VGA_Audio_PS2_bsp/\libhal_bsp.a(alt_putchar.o)
 .debug_line    0x00003df0      0x556 ../VGA_Audio_PS2_bsp/\libhal_bsp.a(alt_sys_init.o)
 .debug_line    0x00004346      0x217 ../VGA_Audio_PS2_bsp/\libhal_bsp.a(altera_avalon_jtag_uart_fd.o)
 .debug_line    0x0000455d      0x4bf ../VGA_Audio_PS2_bsp/\libhal_bsp.a(altera_avalon_jtag_uart_init.o)
 .debug_line    0x00004a1c      0x317 ../VGA_Audio_PS2_bsp/\libhal_bsp.a(altera_avalon_jtag_uart_ioctl.o)
 .debug_line    0x00004d33      0x40b ../VGA_Audio_PS2_bsp/\libhal_bsp.a(altera_avalon_jtag_uart_read.o)
 .debug_line    0x0000513e      0x419 ../VGA_Audio_PS2_bsp/\libhal_bsp.a(altera_avalon_jtag_uart_write.o)
 .debug_line    0x00005557      0x2ca ../VGA_Audio_PS2_bsp/\libhal_bsp.a(altera_avalon_timer_sc.o)
 .debug_line    0x00005821      0x575 ../VGA_Audio_PS2_bsp/\libhal_bsp.a(altera_up_avalon_audio.o)
 .debug_line    0x00005d96      0x486 ../VGA_Audio_PS2_bsp/\libhal_bsp.a(altera_up_avalon_character_lcd.o)
 .debug_line    0x0000621c      0x2e9 ../VGA_Audio_PS2_bsp/\libhal_bsp.a(altera_up_avalon_ethernet.o)
 .debug_line    0x00006505      0x2f0 ../VGA_Audio_PS2_bsp/\libhal_bsp.a(altera_up_avalon_ethernet_low_level_driver.o)
 .debug_line    0x000067f5      0x3df ../VGA_Audio_PS2_bsp/\libhal_bsp.a(altera_up_avalon_irda.o)
 .debug_line    0x00006bd4      0x276 ../VGA_Audio_PS2_bsp/\libhal_bsp.a(altera_up_avalon_parallel_port.o)
 .debug_line    0x00006e4a      0x5f5 ../VGA_Audio_PS2_bsp/\libhal_bsp.a(altera_up_avalon_ps2.o)
 .debug_line    0x0000743f      0x3e9 ../VGA_Audio_PS2_bsp/\libhal_bsp.a(altera_up_avalon_rs232.o)
 .debug_line    0x00007828      0x395 ../VGA_Audio_PS2_bsp/\libhal_bsp.a(altera_up_avalon_video_character_buffer_with_dma.o)
 .debug_line    0x00007bbd      0xb8b ../VGA_Audio_PS2_bsp/\libhal_bsp.a(altera_up_avalon_video_pixel_buffer_dma.o)
 .debug_line    0x00008748      0x2f5 ../VGA_Audio_PS2_bsp/\libhal_bsp.a(alt_alarm_start.o)
 .debug_line    0x00008a3d      0x299 ../VGA_Audio_PS2_bsp/\libhal_bsp.a(alt_close.o)
 .debug_line    0x00008cd6      0x1b5 ../VGA_Audio_PS2_bsp/\libhal_bsp.a(alt_dcache_flush_all.o)
 .debug_line    0x00008e8b      0x254 ../VGA_Audio_PS2_bsp/\libhal_bsp.a(alt_dev.o)
 .debug_line    0x000090df      0x25a ../VGA_Audio_PS2_bsp/\libhal_bsp.a(alt_dev_llist_insert.o)
 .debug_line    0x00009339       0x83 ../VGA_Audio_PS2_bsp/\libhal_bsp.a(alt_do_ctors.o)
 .debug_line    0x000093bc       0x83 ../VGA_Audio_PS2_bsp/\libhal_bsp.a(alt_do_dtors.o)
 .debug_line    0x0000943f      0x1aa ../VGA_Audio_PS2_bsp/\libhal_bsp.a(alt_errno.o)
 .debug_line    0x000095e9      0x26b ../VGA_Audio_PS2_bsp/\libhal_bsp.a(alt_find_dev.o)
 .debug_line    0x00009854      0x1bd ../VGA_Audio_PS2_bsp/\libhal_bsp.a(alt_icache_flush_all.o)
 .debug_line    0x00009a11      0x2b4 ../VGA_Audio_PS2_bsp/\libhal_bsp.a(alt_io_redirect.o)
 .debug_line    0x00009cc5       0x6b ../VGA_Audio_PS2_bsp/\libhal_bsp.a(alt_irq_entry.o)
 .debug_line    0x00009d30      0x261 ../VGA_Audio_PS2_bsp/\libhal_bsp.a(alt_irq_handler.o)
 .debug_line    0x00009f91      0x2ff ../VGA_Audio_PS2_bsp/\libhal_bsp.a(alt_open.o)
 .debug_line    0x0000a290       0xed ../VGA_Audio_PS2_bsp/\libhal_bsp.a(alt_release_fd.o)
 .debug_line    0x0000a37d      0x2f5 ../VGA_Audio_PS2_bsp/\libhal_bsp.a(alt_tick.o)
 .debug_line    0x0000a672      0x202 ../VGA_Audio_PS2_bsp/\libhal_bsp.a(alt_usleep.o)
 .debug_line    0x0000a874      0x1e7 ../VGA_Audio_PS2_bsp/\libhal_bsp.a(altera_nios2_qsys_irq.o)
 .debug_line    0x0000aa5b      0x25c ../VGA_Audio_PS2_bsp/\libhal_bsp.a(alt_busy_sleep.o)
 .debug_line    0x0000acb7       0xab ../VGA_Audio_PS2_bsp/\libhal_bsp.a(alt_exception_entry.o)
 .debug_line    0x0000ad62      0x27c ../VGA_Audio_PS2_bsp/\libhal_bsp.a(alt_find_file.o)
 .debug_line    0x0000afde      0x297 ../VGA_Audio_PS2_bsp/\libhal_bsp.a(alt_get_fd.o)
 .debug_line    0x0000b275      0x1f9 ../VGA_Audio_PS2_bsp/\libhal_bsp.a(alt_icache_flush.o)
 .debug_line    0x0000b46e      0x200 c:/altera/13.0sp1/nios2eds/bin/gnu/h-i686-mingw32/bin/../lib/gcc/nios2-elf/4.1.2/../../../../nios2-elf/lib\libc.a(lib_a-atexit.o)
 .debug_line    0x0000b66e      0x238 c:/altera/13.0sp1/nios2eds/bin/gnu/h-i686-mingw32/bin/../lib/gcc/nios2-elf/4.1.2/../../../../nios2-elf/lib\libc.a(lib_a-exit.o)
 .debug_line    0x0000b8a6      0x22d c:/altera/13.0sp1/nios2eds/bin/gnu/h-i686-mingw32/bin/../lib/gcc/nios2-elf/4.1.2/../../../../nios2-elf/lib\libc.a(lib_a-impure.o)
 .debug_line    0x0000bad3      0x1df c:/altera/13.0sp1/nios2eds/bin/gnu/h-i686-mingw32/bin/../lib/gcc/nios2-elf/4.1.2/../../../../nios2-elf/lib\libc.a(lib_a-int_errno.o)
 .debug_line    0x0000bcb2      0x29f c:/altera/13.0sp1/nios2eds/bin/gnu/h-i686-mingw32/bin/../lib/gcc/nios2-elf/4.1.2/../../../../nios2-elf/lib\libc.a(lib_a-memcmp.o)
 .debug_line    0x0000bf51      0x2c4 c:/altera/13.0sp1/nios2eds/bin/gnu/h-i686-mingw32/bin/../lib/gcc/nios2-elf/4.1.2/../../../../nios2-elf/lib\libc.a(lib_a-putc.o)
 .debug_line    0x0000c215      0x2d5 c:/altera/13.0sp1/nios2eds/bin/gnu/h-i686-mingw32/bin/../lib/gcc/nios2-elf/4.1.2/../../../../nios2-elf/lib\libc.a(lib_a-strcmp.o)
 .debug_line    0x0000c4ea      0x26d c:/altera/13.0sp1/nios2eds/bin/gnu/h-i686-mingw32/bin/../lib/gcc/nios2-elf/4.1.2/../../../../nios2-elf/lib\libc.a(lib_a-strlen.o)
 .debug_line    0x0000c757      0x350 c:/altera/13.0sp1/nios2eds/bin/gnu/h-i686-mingw32/bin/../lib/gcc/nios2-elf/4.1.2/../../../../nios2-elf/lib\libc.a(lib_a-wbuf.o)
 .debug_line    0x0000caa7      0x2f0 c:/altera/13.0sp1/nios2eds/bin/gnu/h-i686-mingw32/bin/../lib/gcc/nios2-elf/4.1.2/../../../../nios2-elf/lib\libc.a(lib_a-wsetup.o)
 .debug_line    0x0000cd97      0x313 c:/altera/13.0sp1/nios2eds/bin/gnu/h-i686-mingw32/bin/../lib/gcc/nios2-elf/4.1.2/../../../../nios2-elf/lib\libc.a(lib_a-__atexit.o)
 .debug_line    0x0000d0aa      0x367 c:/altera/13.0sp1/nios2eds/bin/gnu/h-i686-mingw32/bin/../lib/gcc/nios2-elf/4.1.2/../../../../nios2-elf/lib\libc.a(lib_a-__call_atexit.o)
 .debug_line    0x0000d411      0x40d c:/altera/13.0sp1/nios2eds/bin/gnu/h-i686-mingw32/bin/../lib/gcc/nios2-elf/4.1.2/../../../../nios2-elf/lib\libc.a(lib_a-fflush.o)
 .debug_line    0x0000d81e      0x601 c:/altera/13.0sp1/nios2eds/bin/gnu/h-i686-mingw32/bin/../lib/gcc/nios2-elf/4.1.2/../../../../nios2-elf/lib\libc.a(lib_a-findfp.o)
 .debug_line    0x0000de1f      0x5eb c:/altera/13.0sp1/nios2eds/bin/gnu/h-i686-mingw32/bin/../lib/gcc/nios2-elf/4.1.2/../../../../nios2-elf/lib\libc.a(lib_a-freer.o)
 .debug_line    0x0000e40a      0x34a c:/altera/13.0sp1/nios2eds/bin/gnu/h-i686-mingw32/bin/../lib/gcc/nios2-elf/4.1.2/../../../../nios2-elf/lib\libc.a(lib_a-fwalk.o)
 .debug_line    0x0000e754      0x3c3 c:/altera/13.0sp1/nios2eds/bin/gnu/h-i686-mingw32/bin/../lib/gcc/nios2-elf/4.1.2/../../../../nios2-elf/lib\libc.a(lib_a-makebuf.o)
 .debug_line    0x0000eb17      0x80a c:/altera/13.0sp1/nios2eds/bin/gnu/h-i686-mingw32/bin/../lib/gcc/nios2-elf/4.1.2/../../../../nios2-elf/lib\libc.a(lib_a-mallocr.o)
 .debug_line    0x0000f321      0x299 c:/altera/13.0sp1/nios2eds/bin/gnu/h-i686-mingw32/bin/../lib/gcc/nios2-elf/4.1.2/../../../../nios2-elf/lib\libc.a(lib_a-sbrkr.o)
 .debug_line    0x0000f5ba      0x38c c:/altera/13.0sp1/nios2eds/bin/gnu/h-i686-mingw32/bin/../lib/gcc/nios2-elf/4.1.2/../../../../nios2-elf/lib\libc.a(lib_a-stdio.o)
 .debug_line    0x0000f946      0x29a c:/altera/13.0sp1/nios2eds/bin/gnu/h-i686-mingw32/bin/../lib/gcc/nios2-elf/4.1.2/../../../../nios2-elf/lib\libc.a(lib_a-writer.o)
 .debug_line    0x0000fbe0      0x29a c:/altera/13.0sp1/nios2eds/bin/gnu/h-i686-mingw32/bin/../lib/gcc/nios2-elf/4.1.2/../../../../nios2-elf/lib\libc.a(lib_a-closer.o)
 .debug_line    0x0000fe7a      0x2e8 c:/altera/13.0sp1/nios2eds/bin/gnu/h-i686-mingw32/bin/../lib/gcc/nios2-elf/4.1.2/../../../../nios2-elf/lib\libc.a(lib_a-fclose.o)
 .debug_line    0x00010162      0x264 c:/altera/13.0sp1/nios2eds/bin/gnu/h-i686-mingw32/bin/../lib/gcc/nios2-elf/4.1.2/../../../../nios2-elf/lib\libc.a(lib_a-fstatr.o)
 .debug_line    0x000103c6      0x29b c:/altera/13.0sp1/nios2eds/bin/gnu/h-i686-mingw32/bin/../lib/gcc/nios2-elf/4.1.2/../../../../nios2-elf/lib\libc.a(lib_a-isattyr.o)
 .debug_line    0x00010661      0x29a c:/altera/13.0sp1/nios2eds/bin/gnu/h-i686-mingw32/bin/../lib/gcc/nios2-elf/4.1.2/../../../../nios2-elf/lib\libc.a(lib_a-lseekr.o)
 .debug_line    0x000108fb      0x299 c:/altera/13.0sp1/nios2eds/bin/gnu/h-i686-mingw32/bin/../lib/gcc/nios2-elf/4.1.2/../../../../nios2-elf/lib\libc.a(lib_a-readr.o)
 .debug_line    0x00010b94      0x21f ../VGA_Audio_PS2_bsp/\libhal_bsp.a(alt_exit.o)
 .debug_line    0x00010db3      0x2a1 ../VGA_Audio_PS2_bsp/\libhal_bsp.a(alt_fstat.o)
 .debug_line    0x00011054      0x2a2 ../VGA_Audio_PS2_bsp/\libhal_bsp.a(alt_isatty.o)
 .debug_line    0x000112f6      0x2a1 ../VGA_Audio_PS2_bsp/\libhal_bsp.a(alt_lseek.o)
 .debug_line    0x00011597      0x20f ../VGA_Audio_PS2_bsp/\libhal_bsp.a(alt_malloc_lock.o)
 .debug_line    0x000117a6      0x2c8 ../VGA_Audio_PS2_bsp/\libhal_bsp.a(alt_read.o)
 .debug_line    0x00011a6e      0x27a ../VGA_Audio_PS2_bsp/\libhal_bsp.a(alt_sbrk.o)
 .debug_line    0x00011ce8      0x2c9 ../VGA_Audio_PS2_bsp/\libhal_bsp.a(alt_write.o)

.debug_frame    0x00000000     0x1e24
 *(.debug_frame)
 .debug_frame   0x00000000       0x2c obj/default/PS2_ISR.o
 .debug_frame   0x0000002c      0x10c obj/default/amplitude_calculation.o
 .debug_frame   0x00000138       0x2c obj/default/audio_ISR.o
 .debug_frame   0x00000164       0x2c obj/default/interval_timer_ISR.o
 .debug_frame   0x00000190       0xf8 obj/default/media_interrupt_HAL.o
 .debug_frame   0x00000288       0x2c obj/default/pushbutton_ISR.o
 .debug_frame   0x000002b4       0x2c c:/altera/13.0sp1/nios2eds/bin/gnu/h-i686-mingw32/bin/../lib/gcc/nios2-elf/4.1.2\libgcc.a(_muldi3.o)
 .debug_frame   0x000002e0       0x38 c:/altera/13.0sp1/nios2eds/bin/gnu/h-i686-mingw32/bin/../lib/gcc/nios2-elf/4.1.2\libgcc.a(_divdi3.o)
 .debug_frame   0x00000318       0x70 c:/altera/13.0sp1/nios2eds/bin/gnu/h-i686-mingw32/bin/../lib/gcc/nios2-elf/4.1.2\libgcc.a(lib2-divmod.o)
 .debug_frame   0x00000388       0x20 c:/altera/13.0sp1/nios2eds/bin/gnu/h-i686-mingw32/bin/../lib/gcc/nios2-elf/4.1.2/../../../../nios2-elf/lib\libc.a(lib_a-memcpy.o)
 .debug_frame   0x000003a8       0x20 c:/altera/13.0sp1/nios2eds/bin/gnu/h-i686-mingw32/bin/../lib/gcc/nios2-elf/4.1.2/../../../../nios2-elf/lib\libc.a(lib_a-memset.o)
 .debug_frame   0x000003c8       0x2c ../VGA_Audio_PS2_bsp/\libhal_bsp.a(alt_irq_register.o)
 .debug_frame   0x000003f4       0x48 ../VGA_Audio_PS2_bsp/\libhal_bsp.a(alt_load.o)
 .debug_frame   0x0000043c       0x2c ../VGA_Audio_PS2_bsp/\libhal_bsp.a(alt_main.o)
 .debug_frame   0x00000468       0x2c ../VGA_Audio_PS2_bsp/\libhal_bsp.a(alt_printf.o)
 .debug_frame   0x00000494       0x2c ../VGA_Audio_PS2_bsp/\libhal_bsp.a(alt_putchar.o)
 .debug_frame   0x000004c0       0x64 ../VGA_Audio_PS2_bsp/\libhal_bsp.a(alt_sys_init.o)
 .debug_frame   0x00000524       0x80 ../VGA_Audio_PS2_bsp/\libhal_bsp.a(altera_avalon_jtag_uart_fd.o)
 .debug_frame   0x000005a4       0x80 ../VGA_Audio_PS2_bsp/\libhal_bsp.a(altera_avalon_jtag_uart_init.o)
 .debug_frame   0x00000624       0x2c ../VGA_Audio_PS2_bsp/\libhal_bsp.a(altera_avalon_jtag_uart_ioctl.o)
 .debug_frame   0x00000650       0x2c ../VGA_Audio_PS2_bsp/\libhal_bsp.a(altera_avalon_jtag_uart_read.o)
 .debug_frame   0x0000067c       0x2c ../VGA_Audio_PS2_bsp/\libhal_bsp.a(altera_avalon_jtag_uart_write.o)
 .debug_frame   0x000006a8       0x48 ../VGA_Audio_PS2_bsp/\libhal_bsp.a(altera_avalon_timer_sc.o)
 .debug_frame   0x000006f0      0x208 ../VGA_Audio_PS2_bsp/\libhal_bsp.a(altera_up_avalon_audio.o)
 .debug_frame   0x000008f8      0x17c ../VGA_Audio_PS2_bsp/\libhal_bsp.a(altera_up_avalon_character_lcd.o)
 .debug_frame   0x00000a74       0x48 ../VGA_Audio_PS2_bsp/\libhal_bsp.a(altera_up_avalon_ethernet.o)
 .debug_frame   0x00000abc       0x80 ../VGA_Audio_PS2_bsp/\libhal_bsp.a(altera_up_avalon_ethernet_low_level_driver.o)
 .debug_frame   0x00000b3c      0x128 ../VGA_Audio_PS2_bsp/\libhal_bsp.a(altera_up_avalon_irda.o)
 .debug_frame   0x00000c64       0x2c ../VGA_Audio_PS2_bsp/\libhal_bsp.a(altera_up_avalon_parallel_port.o)
 .debug_frame   0x00000c90      0x208 ../VGA_Audio_PS2_bsp/\libhal_bsp.a(altera_up_avalon_ps2.o)
 .debug_frame   0x00000e98      0x128 ../VGA_Audio_PS2_bsp/\libhal_bsp.a(altera_up_avalon_rs232.o)
 .debug_frame   0x00000fc0       0x9c ../VGA_Audio_PS2_bsp/\libhal_bsp.a(altera_up_avalon_video_character_buffer_with_dma.o)
 .debug_frame   0x0000105c      0x160 ../VGA_Audio_PS2_bsp/\libhal_bsp.a(altera_up_avalon_video_pixel_buffer_dma.o)
 .debug_frame   0x000011bc       0x2c ../VGA_Audio_PS2_bsp/\libhal_bsp.a(alt_alarm_start.o)
 .debug_frame   0x000011e8       0x48 ../VGA_Audio_PS2_bsp/\libhal_bsp.a(alt_close.o)
 .debug_frame   0x00001230       0x2c ../VGA_Audio_PS2_bsp/\libhal_bsp.a(alt_dcache_flush_all.o)
 .debug_frame   0x0000125c       0x2c ../VGA_Audio_PS2_bsp/\libhal_bsp.a(alt_dev.o)
 .debug_frame   0x00001288       0x48 ../VGA_Audio_PS2_bsp/\libhal_bsp.a(alt_dev_llist_insert.o)
 .debug_frame   0x000012d0       0x2c ../VGA_Audio_PS2_bsp/\libhal_bsp.a(alt_do_ctors.o)
 .debug_frame   0x000012fc       0x2c ../VGA_Audio_PS2_bsp/\libhal_bsp.a(alt_do_dtors.o)
 .debug_frame   0x00001328       0x2c ../VGA_Audio_PS2_bsp/\libhal_bsp.a(alt_find_dev.o)
 .debug_frame   0x00001354       0x2c ../VGA_Audio_PS2_bsp/\libhal_bsp.a(alt_icache_flush_all.o)
 .debug_frame   0x00001380       0x48 ../VGA_Audio_PS2_bsp/\libhal_bsp.a(alt_io_redirect.o)
 .debug_frame   0x000013c8       0x2c ../VGA_Audio_PS2_bsp/\libhal_bsp.a(alt_irq_handler.o)
 .debug_frame   0x000013f4       0x64 ../VGA_Audio_PS2_bsp/\libhal_bsp.a(alt_open.o)
 .debug_frame   0x00001458       0x2c ../VGA_Audio_PS2_bsp/\libhal_bsp.a(alt_release_fd.o)
 .debug_frame   0x00001484       0x48 ../VGA_Audio_PS2_bsp/\libhal_bsp.a(alt_tick.o)
 .debug_frame   0x000014cc       0x2c ../VGA_Audio_PS2_bsp/\libhal_bsp.a(alt_usleep.o)
 .debug_frame   0x000014f8       0x2c ../VGA_Audio_PS2_bsp/\libhal_bsp.a(altera_nios2_qsys_irq.o)
 .debug_frame   0x00001524       0x2c ../VGA_Audio_PS2_bsp/\libhal_bsp.a(alt_busy_sleep.o)
 .debug_frame   0x00001550       0x2c ../VGA_Audio_PS2_bsp/\libhal_bsp.a(alt_find_file.o)
 .debug_frame   0x0000157c       0x2c ../VGA_Audio_PS2_bsp/\libhal_bsp.a(alt_get_fd.o)
 .debug_frame   0x000015a8       0x2c ../VGA_Audio_PS2_bsp/\libhal_bsp.a(alt_icache_flush.o)
 .debug_frame   0x000015d4       0x20 c:/altera/13.0sp1/nios2eds/bin/gnu/h-i686-mingw32/bin/../lib/gcc/nios2-elf/4.1.2/../../../../nios2-elf/lib\libc.a(lib_a-atexit.o)
 .debug_frame   0x000015f4       0x28 c:/altera/13.0sp1/nios2eds/bin/gnu/h-i686-mingw32/bin/../lib/gcc/nios2-elf/4.1.2/../../../../nios2-elf/lib\libc.a(lib_a-exit.o)
 .debug_frame   0x0000161c       0x20 c:/altera/13.0sp1/nios2eds/bin/gnu/h-i686-mingw32/bin/../lib/gcc/nios2-elf/4.1.2/../../../../nios2-elf/lib\libc.a(lib_a-memcmp.o)
 .debug_frame   0x0000163c       0x4c c:/altera/13.0sp1/nios2eds/bin/gnu/h-i686-mingw32/bin/../lib/gcc/nios2-elf/4.1.2/../../../../nios2-elf/lib\libc.a(lib_a-putc.o)
 .debug_frame   0x00001688       0x20 c:/altera/13.0sp1/nios2eds/bin/gnu/h-i686-mingw32/bin/../lib/gcc/nios2-elf/4.1.2/../../../../nios2-elf/lib\libc.a(lib_a-strcmp.o)
 .debug_frame   0x000016a8       0x20 c:/altera/13.0sp1/nios2eds/bin/gnu/h-i686-mingw32/bin/../lib/gcc/nios2-elf/4.1.2/../../../../nios2-elf/lib\libc.a(lib_a-strlen.o)
 .debug_frame   0x000016c8       0x3c c:/altera/13.0sp1/nios2eds/bin/gnu/h-i686-mingw32/bin/../lib/gcc/nios2-elf/4.1.2/../../../../nios2-elf/lib\libc.a(lib_a-wbuf.o)
 .debug_frame   0x00001704       0x2c c:/altera/13.0sp1/nios2eds/bin/gnu/h-i686-mingw32/bin/../lib/gcc/nios2-elf/4.1.2/../../../../nios2-elf/lib\libc.a(lib_a-wsetup.o)
 .debug_frame   0x00001730       0x34 c:/altera/13.0sp1/nios2eds/bin/gnu/h-i686-mingw32/bin/../lib/gcc/nios2-elf/4.1.2/../../../../nios2-elf/lib\libc.a(lib_a-__atexit.o)
 .debug_frame   0x00001764       0x4c c:/altera/13.0sp1/nios2eds/bin/gnu/h-i686-mingw32/bin/../lib/gcc/nios2-elf/4.1.2/../../../../nios2-elf/lib\libc.a(lib_a-__call_atexit.o)
 .debug_frame   0x000017b0       0x40 c:/altera/13.0sp1/nios2eds/bin/gnu/h-i686-mingw32/bin/../lib/gcc/nios2-elf/4.1.2/../../../../nios2-elf/lib\libc.a(lib_a-fflush.o)
 .debug_frame   0x000017f0      0x118 c:/altera/13.0sp1/nios2eds/bin/gnu/h-i686-mingw32/bin/../lib/gcc/nios2-elf/4.1.2/../../../../nios2-elf/lib\libc.a(lib_a-findfp.o)
 .debug_frame   0x00001908       0x4c c:/altera/13.0sp1/nios2eds/bin/gnu/h-i686-mingw32/bin/../lib/gcc/nios2-elf/4.1.2/../../../../nios2-elf/lib\libc.a(lib_a-freer.o)
 .debug_frame   0x00001954       0x60 c:/altera/13.0sp1/nios2eds/bin/gnu/h-i686-mingw32/bin/../lib/gcc/nios2-elf/4.1.2/../../../../nios2-elf/lib\libc.a(lib_a-fwalk.o)
 .debug_frame   0x000019b4       0x2c c:/altera/13.0sp1/nios2eds/bin/gnu/h-i686-mingw32/bin/../lib/gcc/nios2-elf/4.1.2/../../../../nios2-elf/lib\libc.a(lib_a-makebuf.o)
 .debug_frame   0x000019e0       0x38 c:/altera/13.0sp1/nios2eds/bin/gnu/h-i686-mingw32/bin/../lib/gcc/nios2-elf/4.1.2/../../../../nios2-elf/lib\libc.a(lib_a-mallocr.o)
 .debug_frame   0x00001a18       0x2c c:/altera/13.0sp1/nios2eds/bin/gnu/h-i686-mingw32/bin/../lib/gcc/nios2-elf/4.1.2/../../../../nios2-elf/lib\libc.a(lib_a-sbrkr.o)
 .debug_frame   0x00001a44       0x78 c:/altera/13.0sp1/nios2eds/bin/gnu/h-i686-mingw32/bin/../lib/gcc/nios2-elf/4.1.2/../../../../nios2-elf/lib\libc.a(lib_a-stdio.o)
 .debug_frame   0x00001abc       0x2c c:/altera/13.0sp1/nios2eds/bin/gnu/h-i686-mingw32/bin/../lib/gcc/nios2-elf/4.1.2/../../../../nios2-elf/lib\libc.a(lib_a-writer.o)
 .debug_frame   0x00001ae8       0x2c c:/altera/13.0sp1/nios2eds/bin/gnu/h-i686-mingw32/bin/../lib/gcc/nios2-elf/4.1.2/../../../../nios2-elf/lib\libc.a(lib_a-closer.o)
 .debug_frame   0x00001b14       0x3c c:/altera/13.0sp1/nios2eds/bin/gnu/h-i686-mingw32/bin/../lib/gcc/nios2-elf/4.1.2/../../../../nios2-elf/lib\libc.a(lib_a-fclose.o)
 .debug_frame   0x00001b50       0x2c c:/altera/13.0sp1/nios2eds/bin/gnu/h-i686-mingw32/bin/../lib/gcc/nios2-elf/4.1.2/../../../../nios2-elf/lib\libc.a(lib_a-fstatr.o)
 .debug_frame   0x00001b7c       0x2c c:/altera/13.0sp1/nios2eds/bin/gnu/h-i686-mingw32/bin/../lib/gcc/nios2-elf/4.1.2/../../../../nios2-elf/lib\libc.a(lib_a-isattyr.o)
 .debug_frame   0x00001ba8       0x2c c:/altera/13.0sp1/nios2eds/bin/gnu/h-i686-mingw32/bin/../lib/gcc/nios2-elf/4.1.2/../../../../nios2-elf/lib\libc.a(lib_a-lseekr.o)
 .debug_frame   0x00001bd4       0x2c c:/altera/13.0sp1/nios2eds/bin/gnu/h-i686-mingw32/bin/../lib/gcc/nios2-elf/4.1.2/../../../../nios2-elf/lib\libc.a(lib_a-readr.o)
 .debug_frame   0x00001c00       0x48 ../VGA_Audio_PS2_bsp/\libhal_bsp.a(alt_exit.o)
 .debug_frame   0x00001c48       0x48 ../VGA_Audio_PS2_bsp/\libhal_bsp.a(alt_fstat.o)
 .debug_frame   0x00001c90       0x48 ../VGA_Audio_PS2_bsp/\libhal_bsp.a(alt_isatty.o)
 .debug_frame   0x00001cd8       0x48 ../VGA_Audio_PS2_bsp/\libhal_bsp.a(alt_lseek.o)
 .debug_frame   0x00001d20       0x48 ../VGA_Audio_PS2_bsp/\libhal_bsp.a(alt_malloc_lock.o)
 .debug_frame   0x00001d68       0x48 ../VGA_Audio_PS2_bsp/\libhal_bsp.a(alt_read.o)
 .debug_frame   0x00001db0       0x2c ../VGA_Audio_PS2_bsp/\libhal_bsp.a(alt_sbrk.o)
 .debug_frame   0x00001ddc       0x48 ../VGA_Audio_PS2_bsp/\libhal_bsp.a(alt_write.o)

.debug_str      0x00000000     0x207a
 *(.debug_str)
 .debug_str     0x00000000       0xe9 obj/default/PS2_ISR.o
 .debug_str     0x000000e9       0x12 obj/default/amplitude_calculation.o
 .debug_str     0x000000fb       0xe9 obj/default/audio_ISR.o
 .debug_str     0x000001e4       0xe9 obj/default/globals.o
 .debug_str     0x000002cd       0xe9 obj/default/interval_timer_ISR.o
 .debug_str     0x000003b6      0x13d obj/default/media_interrupt_HAL.o
 .debug_str     0x000004f3       0xf3 obj/default/pushbutton_ISR.o
 .debug_str     0x000005e6      0x158 c:/altera/13.0sp1/nios2eds/bin/gnu/h-i686-mingw32/bin/../lib/gcc/nios2-elf/4.1.2\libgcc.a(_muldi3.o)
                                0x1ac (size before relaxing)
 .debug_str     0x0000073e       0x5d c:/altera/13.0sp1/nios2eds/bin/gnu/h-i686-mingw32/bin/../lib/gcc/nios2-elf/4.1.2\libgcc.a(_divdi3.o)
                                0x200 (size before relaxing)
 .debug_str     0x0000079b       0x6c c:/altera/13.0sp1/nios2eds/bin/gnu/h-i686-mingw32/bin/../lib/gcc/nios2-elf/4.1.2\libgcc.a(lib2-divmod.o)
                                0x1b4 (size before relaxing)
 .debug_str     0x00000000      0x161 c:/altera/13.0sp1/nios2eds/bin/gnu/h-i686-mingw32/bin/../lib/gcc/nios2-elf/4.1.2\libgcc.a(_clz.o)
 .debug_str     0x00000807       0xf5 c:/altera/13.0sp1/nios2eds/bin/gnu/h-i686-mingw32/bin/../lib/gcc/nios2-elf/4.1.2/../../../../nios2-elf/lib\libc.a(lib_a-memcpy.o)
                                0x128 (size before relaxing)
 .debug_str     0x000008fc       0x56 c:/altera/13.0sp1/nios2eds/bin/gnu/h-i686-mingw32/bin/../lib/gcc/nios2-elf/4.1.2/../../../../nios2-elf/lib\libc.a(lib_a-memset.o)
                                0x17e (size before relaxing)
 .debug_str     0x00000952       0x21 ../VGA_Audio_PS2_bsp/\libhal_bsp.a(alt_irq_register.o)
 .debug_str     0x00000973       0x12 ../VGA_Audio_PS2_bsp/\libhal_bsp.a(alt_load.o)
 .debug_str     0x00000985       0x12 ../VGA_Audio_PS2_bsp/\libhal_bsp.a(alt_main.o)
 .debug_str     0x00000997       0x20 ../VGA_Audio_PS2_bsp/\libhal_bsp.a(alt_putchar.o)
 .debug_str     0x000009b7      0x15a ../VGA_Audio_PS2_bsp/\libhal_bsp.a(alt_sys_init.o)
 .debug_str     0x00000b11       0x12 ../VGA_Audio_PS2_bsp/\libhal_bsp.a(altera_avalon_jtag_uart_fd.o)
 .debug_str     0x00000b23       0x1a ../VGA_Audio_PS2_bsp/\libhal_bsp.a(altera_avalon_jtag_uart_init.o)
 .debug_str     0x00000b3d       0x12 ../VGA_Audio_PS2_bsp/\libhal_bsp.a(altera_avalon_jtag_uart_ioctl.o)
 .debug_str     0x00000b4f       0x1a ../VGA_Audio_PS2_bsp/\libhal_bsp.a(altera_avalon_jtag_uart_read.o)
 .debug_str     0x00000b69       0x1a ../VGA_Audio_PS2_bsp/\libhal_bsp.a(altera_avalon_jtag_uart_write.o)
 .debug_str     0x00000b83       0x12 ../VGA_Audio_PS2_bsp/\libhal_bsp.a(altera_avalon_timer_sc.o)
 .debug_str     0x00000b95       0x4f ../VGA_Audio_PS2_bsp/\libhal_bsp.a(altera_up_avalon_audio.o)
 .debug_str     0x00000be4       0x55 ../VGA_Audio_PS2_bsp/\libhal_bsp.a(altera_up_avalon_character_lcd.o)
 .debug_str     0x00000c39       0x26 ../VGA_Audio_PS2_bsp/\libhal_bsp.a(altera_up_avalon_ethernet.o)
 .debug_str     0x00000c5f       0x12 ../VGA_Audio_PS2_bsp/\libhal_bsp.a(altera_up_avalon_ethernet_low_level_driver.o)
 .debug_str     0x00000c71       0x46 ../VGA_Audio_PS2_bsp/\libhal_bsp.a(altera_up_avalon_irda.o)
 .debug_str     0x00000cb7       0x2b ../VGA_Audio_PS2_bsp/\libhal_bsp.a(altera_up_avalon_parallel_port.o)
 .debug_str     0x00000ce2       0x3a ../VGA_Audio_PS2_bsp/\libhal_bsp.a(altera_up_avalon_ps2.o)
 .debug_str     0x00000d1c       0x48 ../VGA_Audio_PS2_bsp/\libhal_bsp.a(altera_up_avalon_rs232.o)
 .debug_str     0x00000d64       0x35 ../VGA_Audio_PS2_bsp/\libhal_bsp.a(altera_up_avalon_video_character_buffer_with_dma.o)
 .debug_str     0x00000d99       0x93 ../VGA_Audio_PS2_bsp/\libhal_bsp.a(altera_up_avalon_video_pixel_buffer_dma.o)
 .debug_str     0x00000e2c       0x23 ../VGA_Audio_PS2_bsp/\libhal_bsp.a(alt_alarm_start.o)
 .debug_str     0x00000e4f       0x12 ../VGA_Audio_PS2_bsp/\libhal_bsp.a(alt_close.o)
 .debug_str     0x00000e61       0x12 ../VGA_Audio_PS2_bsp/\libhal_bsp.a(alt_dcache_flush_all.o)
 .debug_str     0x00000e73       0x12 ../VGA_Audio_PS2_bsp/\libhal_bsp.a(alt_dev.o)
 .debug_str     0x00000e85       0x12 ../VGA_Audio_PS2_bsp/\libhal_bsp.a(alt_dev_llist_insert.o)
 .debug_str     0x00000e97       0x12 ../VGA_Audio_PS2_bsp/\libhal_bsp.a(alt_errno.o)
 .debug_str     0x00000ea9       0x12 ../VGA_Audio_PS2_bsp/\libhal_bsp.a(alt_find_dev.o)
 .debug_str     0x00000ebb       0x12 ../VGA_Audio_PS2_bsp/\libhal_bsp.a(alt_icache_flush_all.o)
 .debug_str     0x00000ecd       0x12 ../VGA_Audio_PS2_bsp/\libhal_bsp.a(alt_io_redirect.o)
 .debug_str     0x00000edf       0x12 ../VGA_Audio_PS2_bsp/\libhal_bsp.a(alt_irq_handler.o)
 .debug_str     0x00000ef1       0x12 ../VGA_Audio_PS2_bsp/\libhal_bsp.a(alt_open.o)
 .debug_str     0x00000f03       0x1a ../VGA_Audio_PS2_bsp/\libhal_bsp.a(alt_tick.o)
 .debug_str     0x00000f1d       0x12 ../VGA_Audio_PS2_bsp/\libhal_bsp.a(alt_usleep.o)
 .debug_str     0x00000f2f       0x12 ../VGA_Audio_PS2_bsp/\libhal_bsp.a(altera_nios2_qsys_irq.o)
 .debug_str     0x00000f41       0x12 ../VGA_Audio_PS2_bsp/\libhal_bsp.a(alt_busy_sleep.o)
 .debug_str     0x00000f53       0x12 ../VGA_Audio_PS2_bsp/\libhal_bsp.a(alt_find_file.o)
 .debug_str     0x00000f65       0x12 ../VGA_Audio_PS2_bsp/\libhal_bsp.a(alt_get_fd.o)
 .debug_str     0x00000f77       0x12 ../VGA_Audio_PS2_bsp/\libhal_bsp.a(alt_icache_flush.o)
 .debug_str     0x00000f89      0x11d c:/altera/13.0sp1/nios2eds/bin/gnu/h-i686-mingw32/bin/../lib/gcc/nios2-elf/4.1.2/../../../../nios2-elf/lib\libc.a(lib_a-atexit.o)
                                0x1bf (size before relaxing)
 .debug_str     0x000010a6      0x362 c:/altera/13.0sp1/nios2eds/bin/gnu/h-i686-mingw32/bin/../lib/gcc/nios2-elf/4.1.2/../../../../nios2-elf/lib\libc.a(lib_a-exit.o)
                                0x50c (size before relaxing)
 .debug_str     0x00001408       0xd1 c:/altera/13.0sp1/nios2eds/bin/gnu/h-i686-mingw32/bin/../lib/gcc/nios2-elf/4.1.2/../../../../nios2-elf/lib\libc.a(lib_a-impure.o)
                                0x51a (size before relaxing)
 .debug_str     0x000014d9       0x3d c:/altera/13.0sp1/nios2eds/bin/gnu/h-i686-mingw32/bin/../lib/gcc/nios2-elf/4.1.2/../../../../nios2-elf/lib\libc.a(lib_a-int_errno.o)
                                0x163 (size before relaxing)
 .debug_str     0x00001516       0x42 c:/altera/13.0sp1/nios2eds/bin/gnu/h-i686-mingw32/bin/../lib/gcc/nios2-elf/4.1.2/../../../../nios2-elf/lib\libc.a(lib_a-memcmp.o)
                                0x16a (size before relaxing)
 .debug_str     0x00001558       0xd0 c:/altera/13.0sp1/nios2eds/bin/gnu/h-i686-mingw32/bin/../lib/gcc/nios2-elf/4.1.2/../../../../nios2-elf/lib\libc.a(lib_a-putc.o)
                                0x512 (size before relaxing)
 .debug_str     0x00001628       0x42 c:/altera/13.0sp1/nios2eds/bin/gnu/h-i686-mingw32/bin/../lib/gcc/nios2-elf/4.1.2/../../../../nios2-elf/lib\libc.a(lib_a-strcmp.o)
                                0x163 (size before relaxing)
 .debug_str     0x0000166a       0x42 c:/altera/13.0sp1/nios2eds/bin/gnu/h-i686-mingw32/bin/../lib/gcc/nios2-elf/4.1.2/../../../../nios2-elf/lib\libc.a(lib_a-strlen.o)
                                0x17d (size before relaxing)
 .debug_str     0x000016ac       0x4a c:/altera/13.0sp1/nios2eds/bin/gnu/h-i686-mingw32/bin/../lib/gcc/nios2-elf/4.1.2/../../../../nios2-elf/lib\libc.a(lib_a-wbuf.o)
                                0x510 (size before relaxing)
 .debug_str     0x000016f6       0x46 c:/altera/13.0sp1/nios2eds/bin/gnu/h-i686-mingw32/bin/../lib/gcc/nios2-elf/4.1.2/../../../../nios2-elf/lib\libc.a(lib_a-wsetup.o)
                                0x50c (size before relaxing)
 .debug_str     0x0000173c       0x51 c:/altera/13.0sp1/nios2eds/bin/gnu/h-i686-mingw32/bin/../lib/gcc/nios2-elf/4.1.2/../../../../nios2-elf/lib\libc.a(lib_a-__atexit.o)
                                0x524 (size before relaxing)
 .debug_str     0x0000178d       0x7b c:/altera/13.0sp1/nios2eds/bin/gnu/h-i686-mingw32/bin/../lib/gcc/nios2-elf/4.1.2/../../../../nios2-elf/lib\libc.a(lib_a-__call_atexit.o)
                                0x54e (size before relaxing)
 .debug_str     0x00001808       0x52 c:/altera/13.0sp1/nios2eds/bin/gnu/h-i686-mingw32/bin/../lib/gcc/nios2-elf/4.1.2/../../../../nios2-elf/lib\libc.a(lib_a-fflush.o)
                                0x532 (size before relaxing)
 .debug_str     0x0000185a      0x102 c:/altera/13.0sp1/nios2eds/bin/gnu/h-i686-mingw32/bin/../lib/gcc/nios2-elf/4.1.2/../../../../nios2-elf/lib\libc.a(lib_a-findfp.o)
                                0x5f4 (size before relaxing)
 .debug_str     0x0000195c      0x15b c:/altera/13.0sp1/nios2eds/bin/gnu/h-i686-mingw32/bin/../lib/gcc/nios2-elf/4.1.2/../../../../nios2-elf/lib\libc.a(lib_a-freer.o)
                                0x643 (size before relaxing)
 .debug_str     0x00001ab7       0x5e c:/altera/13.0sp1/nios2eds/bin/gnu/h-i686-mingw32/bin/../lib/gcc/nios2-elf/4.1.2/../../../../nios2-elf/lib\libc.a(lib_a-fwalk.o)
                                0x535 (size before relaxing)
 .debug_str     0x00001b15      0x123 c:/altera/13.0sp1/nios2eds/bin/gnu/h-i686-mingw32/bin/../lib/gcc/nios2-elf/4.1.2/../../../../nios2-elf/lib\libc.a(lib_a-makebuf.o)
                                0x606 (size before relaxing)
 .debug_str     0x00001c38       0xef c:/altera/13.0sp1/nios2eds/bin/gnu/h-i686-mingw32/bin/../lib/gcc/nios2-elf/4.1.2/../../../../nios2-elf/lib\libc.a(lib_a-mallocr.o)
                                0x6f1 (size before relaxing)
 .debug_str     0x00001d27       0x50 c:/altera/13.0sp1/nios2eds/bin/gnu/h-i686-mingw32/bin/../lib/gcc/nios2-elf/4.1.2/../../../../nios2-elf/lib\libc.a(lib_a-sbrkr.o)
                                0x50b (size before relaxing)
 .debug_str     0x00001d77       0x62 c:/altera/13.0sp1/nios2eds/bin/gnu/h-i686-mingw32/bin/../lib/gcc/nios2-elf/4.1.2/../../../../nios2-elf/lib\libc.a(lib_a-stdio.o)
                                0x531 (size before relaxing)
 .debug_str     0x00001dd9       0x4c c:/altera/13.0sp1/nios2eds/bin/gnu/h-i686-mingw32/bin/../lib/gcc/nios2-elf/4.1.2/../../../../nios2-elf/lib\libc.a(lib_a-writer.o)
                                0x50e (size before relaxing)
 .debug_str     0x00001e25       0x43 c:/altera/13.0sp1/nios2eds/bin/gnu/h-i686-mingw32/bin/../lib/gcc/nios2-elf/4.1.2/../../../../nios2-elf/lib\libc.a(lib_a-closer.o)
                                0x4fe (size before relaxing)
 .debug_str     0x00001e68       0x50 c:/altera/13.0sp1/nios2eds/bin/gnu/h-i686-mingw32/bin/../lib/gcc/nios2-elf/4.1.2/../../../../nios2-elf/lib\libc.a(lib_a-fclose.o)
                                0x516 (size before relaxing)
 .debug_str     0x00001eb8       0x49 c:/altera/13.0sp1/nios2eds/bin/gnu/h-i686-mingw32/bin/../lib/gcc/nios2-elf/4.1.2/../../../../nios2-elf/lib\libc.a(lib_a-fstatr.o)
                                0x5f1 (size before relaxing)
 .debug_str     0x00001f01       0x45 c:/altera/13.0sp1/nios2eds/bin/gnu/h-i686-mingw32/bin/../lib/gcc/nios2-elf/4.1.2/../../../../nios2-elf/lib\libc.a(lib_a-isattyr.o)
                                0x500 (size before relaxing)
 .debug_str     0x00001f46       0x43 c:/altera/13.0sp1/nios2eds/bin/gnu/h-i686-mingw32/bin/../lib/gcc/nios2-elf/4.1.2/../../../../nios2-elf/lib\libc.a(lib_a-lseekr.o)
                                0x50c (size before relaxing)
 .debug_str     0x00001f89       0x41 c:/altera/13.0sp1/nios2eds/bin/gnu/h-i686-mingw32/bin/../lib/gcc/nios2-elf/4.1.2/../../../../nios2-elf/lib\libc.a(lib_a-readr.o)
                                0x50c (size before relaxing)
 .debug_str     0x00001fca       0x1c ../VGA_Audio_PS2_bsp/\libhal_bsp.a(alt_exit.o)
 .debug_str     0x00001fe6       0x12 ../VGA_Audio_PS2_bsp/\libhal_bsp.a(alt_fstat.o)
 .debug_str     0x00001ff8       0x12 ../VGA_Audio_PS2_bsp/\libhal_bsp.a(alt_isatty.o)
 .debug_str     0x0000200a       0x12 ../VGA_Audio_PS2_bsp/\libhal_bsp.a(alt_lseek.o)
 .debug_str     0x0000201c       0x20 ../VGA_Audio_PS2_bsp/\libhal_bsp.a(alt_malloc_lock.o)
 .debug_str     0x0000203c       0x12 ../VGA_Audio_PS2_bsp/\libhal_bsp.a(alt_read.o)
 .debug_str     0x0000204e       0x1a ../VGA_Audio_PS2_bsp/\libhal_bsp.a(alt_sbrk.o)
 .debug_str     0x00002068       0x12 ../VGA_Audio_PS2_bsp/\libhal_bsp.a(alt_write.o)

.debug_loc      0x00000000     0x54d2
 *(.debug_loc)
 .debug_loc     0x00000000       0x2b obj/default/PS2_ISR.o
 .debug_loc     0x0000002b      0x183 obj/default/amplitude_calculation.o
 .debug_loc     0x000001ae       0x2b obj/default/audio_ISR.o
 .debug_loc     0x000001d9       0x2b obj/default/interval_timer_ISR.o
 .debug_loc     0x00000204      0x15a obj/default/media_interrupt_HAL.o
 .debug_loc     0x0000035e       0x2b obj/default/pushbutton_ISR.o
 .debug_loc     0x00000389       0xc4 c:/altera/13.0sp1/nios2eds/bin/gnu/h-i686-mingw32/bin/../lib/gcc/nios2-elf/4.1.2\libgcc.a(_muldi3.o)
 .debug_loc     0x0000044d      0xdce c:/altera/13.0sp1/nios2eds/bin/gnu/h-i686-mingw32/bin/../lib/gcc/nios2-elf/4.1.2\libgcc.a(_divdi3.o)
 .debug_loc     0x0000121b      0x1d2 c:/altera/13.0sp1/nios2eds/bin/gnu/h-i686-mingw32/bin/../lib/gcc/nios2-elf/4.1.2\libgcc.a(lib2-divmod.o)
 .debug_loc     0x000013ed       0xca c:/altera/13.0sp1/nios2eds/bin/gnu/h-i686-mingw32/bin/../lib/gcc/nios2-elf/4.1.2/../../../../nios2-elf/lib\libc.a(lib_a-memcpy.o)
 .debug_loc     0x000014b7       0xa1 c:/altera/13.0sp1/nios2eds/bin/gnu/h-i686-mingw32/bin/../lib/gcc/nios2-elf/4.1.2/../../../../nios2-elf/lib\libc.a(lib_a-memset.o)
 .debug_loc     0x00001558       0x2c ../VGA_Audio_PS2_bsp/\libhal_bsp.a(alt_irq_register.o)
 .debug_loc     0x00001584       0x56 ../VGA_Audio_PS2_bsp/\libhal_bsp.a(alt_load.o)
 .debug_loc     0x000015da       0x2b ../VGA_Audio_PS2_bsp/\libhal_bsp.a(alt_main.o)
 .debug_loc     0x00001605       0x2b ../VGA_Audio_PS2_bsp/\libhal_bsp.a(alt_printf.o)
 .debug_loc     0x00001630       0x2b ../VGA_Audio_PS2_bsp/\libhal_bsp.a(alt_putchar.o)
 .debug_loc     0x0000165b       0x81 ../VGA_Audio_PS2_bsp/\libhal_bsp.a(alt_sys_init.o)
 .debug_loc     0x000016dc       0xac ../VGA_Audio_PS2_bsp/\libhal_bsp.a(altera_avalon_jtag_uart_fd.o)
 .debug_loc     0x00001788       0xac ../VGA_Audio_PS2_bsp/\libhal_bsp.a(altera_avalon_jtag_uart_init.o)
 .debug_loc     0x00001834       0x2b ../VGA_Audio_PS2_bsp/\libhal_bsp.a(altera_avalon_jtag_uart_ioctl.o)
 .debug_loc     0x0000185f       0x2b ../VGA_Audio_PS2_bsp/\libhal_bsp.a(altera_avalon_jtag_uart_read.o)
 .debug_loc     0x0000188a       0x2b ../VGA_Audio_PS2_bsp/\libhal_bsp.a(altera_avalon_jtag_uart_write.o)
 .debug_loc     0x000018b5       0x56 ../VGA_Audio_PS2_bsp/\libhal_bsp.a(altera_avalon_timer_sc.o)
 .debug_loc     0x0000190b      0x306 ../VGA_Audio_PS2_bsp/\libhal_bsp.a(altera_up_avalon_audio.o)
 .debug_loc     0x00001c11      0x22f ../VGA_Audio_PS2_bsp/\libhal_bsp.a(altera_up_avalon_character_lcd.o)
 .debug_loc     0x00001e40       0x56 ../VGA_Audio_PS2_bsp/\libhal_bsp.a(altera_up_avalon_ethernet.o)
 .debug_loc     0x00001e96       0xac ../VGA_Audio_PS2_bsp/\libhal_bsp.a(altera_up_avalon_ethernet_low_level_driver.o)
 .debug_loc     0x00001f42      0x1ae ../VGA_Audio_PS2_bsp/\libhal_bsp.a(altera_up_avalon_irda.o)
 .debug_loc     0x000020f0       0x2b ../VGA_Audio_PS2_bsp/\libhal_bsp.a(altera_up_avalon_parallel_port.o)
 .debug_loc     0x0000211b      0x306 ../VGA_Audio_PS2_bsp/\libhal_bsp.a(altera_up_avalon_ps2.o)
 .debug_loc     0x00002421      0x1ae ../VGA_Audio_PS2_bsp/\libhal_bsp.a(altera_up_avalon_rs232.o)
 .debug_loc     0x000025cf       0xd7 ../VGA_Audio_PS2_bsp/\libhal_bsp.a(altera_up_avalon_video_character_buffer_with_dma.o)
 .debug_loc     0x000026a6      0x206 ../VGA_Audio_PS2_bsp/\libhal_bsp.a(altera_up_avalon_video_pixel_buffer_dma.o)
 .debug_loc     0x000028ac       0x2b ../VGA_Audio_PS2_bsp/\libhal_bsp.a(alt_alarm_start.o)
 .debug_loc     0x000028d7       0x56 ../VGA_Audio_PS2_bsp/\libhal_bsp.a(alt_close.o)
 .debug_loc     0x0000292d       0x2b ../VGA_Audio_PS2_bsp/\libhal_bsp.a(alt_dcache_flush_all.o)
 .debug_loc     0x00002958       0x2b ../VGA_Audio_PS2_bsp/\libhal_bsp.a(alt_dev.o)
 .debug_loc     0x00002983       0x56 ../VGA_Audio_PS2_bsp/\libhal_bsp.a(alt_dev_llist_insert.o)
 .debug_loc     0x000029d9       0x2b ../VGA_Audio_PS2_bsp/\libhal_bsp.a(alt_do_ctors.o)
 .debug_loc     0x00002a04       0x2b ../VGA_Audio_PS2_bsp/\libhal_bsp.a(alt_do_dtors.o)
 .debug_loc     0x00002a2f       0x2b ../VGA_Audio_PS2_bsp/\libhal_bsp.a(alt_find_dev.o)
 .debug_loc     0x00002a5a       0x2b ../VGA_Audio_PS2_bsp/\libhal_bsp.a(alt_icache_flush_all.o)
 .debug_loc     0x00002a85       0x56 ../VGA_Audio_PS2_bsp/\libhal_bsp.a(alt_io_redirect.o)
 .debug_loc     0x00002adb       0x2b ../VGA_Audio_PS2_bsp/\libhal_bsp.a(alt_irq_handler.o)
 .debug_loc     0x00002b06       0x81 ../VGA_Audio_PS2_bsp/\libhal_bsp.a(alt_open.o)
 .debug_loc     0x00002b87       0x2b ../VGA_Audio_PS2_bsp/\libhal_bsp.a(alt_release_fd.o)
 .debug_loc     0x00002bb2       0x56 ../VGA_Audio_PS2_bsp/\libhal_bsp.a(alt_tick.o)
 .debug_loc     0x00002c08       0x2b ../VGA_Audio_PS2_bsp/\libhal_bsp.a(alt_usleep.o)
 .debug_loc     0x00002c33       0x2b ../VGA_Audio_PS2_bsp/\libhal_bsp.a(altera_nios2_qsys_irq.o)
 .debug_loc     0x00002c5e       0x2b ../VGA_Audio_PS2_bsp/\libhal_bsp.a(alt_busy_sleep.o)
 .debug_loc     0x00002c89       0x2b ../VGA_Audio_PS2_bsp/\libhal_bsp.a(alt_find_file.o)
 .debug_loc     0x00002cb4       0x2b ../VGA_Audio_PS2_bsp/\libhal_bsp.a(alt_get_fd.o)
 .debug_loc     0x00002cdf       0x2b ../VGA_Audio_PS2_bsp/\libhal_bsp.a(alt_icache_flush.o)
 .debug_loc     0x00002d0a       0x1e c:/altera/13.0sp1/nios2eds/bin/gnu/h-i686-mingw32/bin/../lib/gcc/nios2-elf/4.1.2/../../../../nios2-elf/lib\libc.a(lib_a-atexit.o)
 .debug_loc     0x00002d28       0x3d c:/altera/13.0sp1/nios2eds/bin/gnu/h-i686-mingw32/bin/../lib/gcc/nios2-elf/4.1.2/../../../../nios2-elf/lib\libc.a(lib_a-exit.o)
 .debug_loc     0x00002d65      0x114 c:/altera/13.0sp1/nios2eds/bin/gnu/h-i686-mingw32/bin/../lib/gcc/nios2-elf/4.1.2/../../../../nios2-elf/lib\libc.a(lib_a-memcmp.o)
 .debug_loc     0x00002e79      0x20d c:/altera/13.0sp1/nios2eds/bin/gnu/h-i686-mingw32/bin/../lib/gcc/nios2-elf/4.1.2/../../../../nios2-elf/lib\libc.a(lib_a-putc.o)
 .debug_loc     0x00003086       0x65 c:/altera/13.0sp1/nios2eds/bin/gnu/h-i686-mingw32/bin/../lib/gcc/nios2-elf/4.1.2/../../../../nios2-elf/lib\libc.a(lib_a-strcmp.o)
 .debug_loc     0x000030eb       0x3c c:/altera/13.0sp1/nios2eds/bin/gnu/h-i686-mingw32/bin/../lib/gcc/nios2-elf/4.1.2/../../../../nios2-elf/lib\libc.a(lib_a-strlen.o)
 .debug_loc     0x00003127      0x157 c:/altera/13.0sp1/nios2eds/bin/gnu/h-i686-mingw32/bin/../lib/gcc/nios2-elf/4.1.2/../../../../nios2-elf/lib\libc.a(lib_a-wbuf.o)
 .debug_loc     0x0000327e       0x7c c:/altera/13.0sp1/nios2eds/bin/gnu/h-i686-mingw32/bin/../lib/gcc/nios2-elf/4.1.2/../../../../nios2-elf/lib\libc.a(lib_a-wsetup.o)
 .debug_loc     0x000032fa      0x120 c:/altera/13.0sp1/nios2eds/bin/gnu/h-i686-mingw32/bin/../lib/gcc/nios2-elf/4.1.2/../../../../nios2-elf/lib\libc.a(lib_a-__atexit.o)
 .debug_loc     0x0000341a      0x1cb c:/altera/13.0sp1/nios2eds/bin/gnu/h-i686-mingw32/bin/../lib/gcc/nios2-elf/4.1.2/../../../../nios2-elf/lib\libc.a(lib_a-__call_atexit.o)
 .debug_loc     0x000035e5      0x1f6 c:/altera/13.0sp1/nios2eds/bin/gnu/h-i686-mingw32/bin/../lib/gcc/nios2-elf/4.1.2/../../../../nios2-elf/lib\libc.a(lib_a-fflush.o)
 .debug_loc     0x000037db      0x19f c:/altera/13.0sp1/nios2eds/bin/gnu/h-i686-mingw32/bin/../lib/gcc/nios2-elf/4.1.2/../../../../nios2-elf/lib\libc.a(lib_a-findfp.o)
 .debug_loc     0x0000397a      0x4a7 c:/altera/13.0sp1/nios2eds/bin/gnu/h-i686-mingw32/bin/../lib/gcc/nios2-elf/4.1.2/../../../../nios2-elf/lib\libc.a(lib_a-freer.o)
 .debug_loc     0x00003e21      0x1d2 c:/altera/13.0sp1/nios2eds/bin/gnu/h-i686-mingw32/bin/../lib/gcc/nios2-elf/4.1.2/../../../../nios2-elf/lib\libc.a(lib_a-fwalk.o)
 .debug_loc     0x00003ff3      0x11c c:/altera/13.0sp1/nios2eds/bin/gnu/h-i686-mingw32/bin/../lib/gcc/nios2-elf/4.1.2/../../../../nios2-elf/lib\libc.a(lib_a-makebuf.o)
 .debug_loc     0x0000410f      0xaeb c:/altera/13.0sp1/nios2eds/bin/gnu/h-i686-mingw32/bin/../lib/gcc/nios2-elf/4.1.2/../../../../nios2-elf/lib\libc.a(lib_a-mallocr.o)
 .debug_loc     0x00004bfa       0x5b c:/altera/13.0sp1/nios2eds/bin/gnu/h-i686-mingw32/bin/../lib/gcc/nios2-elf/4.1.2/../../../../nios2-elf/lib\libc.a(lib_a-sbrkr.o)
 .debug_loc     0x00004c55      0x21f c:/altera/13.0sp1/nios2eds/bin/gnu/h-i686-mingw32/bin/../lib/gcc/nios2-elf/4.1.2/../../../../nios2-elf/lib\libc.a(lib_a-stdio.o)
 .debug_loc     0x00004e74       0x97 c:/altera/13.0sp1/nios2eds/bin/gnu/h-i686-mingw32/bin/../lib/gcc/nios2-elf/4.1.2/../../../../nios2-elf/lib\libc.a(lib_a-writer.o)
 .debug_loc     0x00004f0b       0x5b c:/altera/13.0sp1/nios2eds/bin/gnu/h-i686-mingw32/bin/../lib/gcc/nios2-elf/4.1.2/../../../../nios2-elf/lib\libc.a(lib_a-closer.o)
 .debug_loc     0x00004f66       0xe4 c:/altera/13.0sp1/nios2eds/bin/gnu/h-i686-mingw32/bin/../lib/gcc/nios2-elf/4.1.2/../../../../nios2-elf/lib\libc.a(lib_a-fclose.o)
 .debug_loc     0x0000504a       0x79 c:/altera/13.0sp1/nios2eds/bin/gnu/h-i686-mingw32/bin/../lib/gcc/nios2-elf/4.1.2/../../../../nios2-elf/lib\libc.a(lib_a-fstatr.o)
 .debug_loc     0x000050c3       0x5b c:/altera/13.0sp1/nios2eds/bin/gnu/h-i686-mingw32/bin/../lib/gcc/nios2-elf/4.1.2/../../../../nios2-elf/lib\libc.a(lib_a-isattyr.o)
 .debug_loc     0x0000511e       0x97 c:/altera/13.0sp1/nios2eds/bin/gnu/h-i686-mingw32/bin/../lib/gcc/nios2-elf/4.1.2/../../../../nios2-elf/lib\libc.a(lib_a-lseekr.o)
 .debug_loc     0x000051b5       0x97 c:/altera/13.0sp1/nios2eds/bin/gnu/h-i686-mingw32/bin/../lib/gcc/nios2-elf/4.1.2/../../../../nios2-elf/lib\libc.a(lib_a-readr.o)
 .debug_loc     0x0000524c       0x56 ../VGA_Audio_PS2_bsp/\libhal_bsp.a(alt_exit.o)
 .debug_loc     0x000052a2       0x56 ../VGA_Audio_PS2_bsp/\libhal_bsp.a(alt_fstat.o)
 .debug_loc     0x000052f8       0x57 ../VGA_Audio_PS2_bsp/\libhal_bsp.a(alt_isatty.o)
 .debug_loc     0x0000534f       0x56 ../VGA_Audio_PS2_bsp/\libhal_bsp.a(alt_lseek.o)
 .debug_loc     0x000053a5       0x56 ../VGA_Audio_PS2_bsp/\libhal_bsp.a(alt_malloc_lock.o)
 .debug_loc     0x000053fb       0x56 ../VGA_Audio_PS2_bsp/\libhal_bsp.a(alt_read.o)
 .debug_loc     0x00005451       0x2b ../VGA_Audio_PS2_bsp/\libhal_bsp.a(alt_sbrk.o)
 .debug_loc     0x0000547c       0x56 ../VGA_Audio_PS2_bsp/\libhal_bsp.a(alt_write.o)

.debug_macinfo
 *(.debug_macinfo)

.debug_weaknames
 *(.debug_weaknames)

.debug_funcnames
 *(.debug_funcnames)

.debug_typenames
 *(.debug_typenames)

.debug_varnames
 *(.debug_varnames)

.debug_alt_sim_info
                0x00000000       0x50
 *(.debug_alt_sim_info)
 .debug_alt_sim_info
                0x00000000       0x20 ../VGA_Audio_PS2_bsp//obj/HAL/src/crt0.o
 .debug_alt_sim_info
                0x00000020       0x30 ../VGA_Audio_PS2_bsp/\libhal_bsp.a(alt_busy_sleep.o)
                0x00800000                __alt_data_end = 0x800000
                0x00800000                PROVIDE (__alt_stack_pointer, __alt_data_end)
                0x007b1ad8                PROVIDE (__alt_stack_limit, __alt_stack_base)
                0x007b1ad8                PROVIDE (__alt_heap_start, end)
                0x00800000                PROVIDE (__alt_heap_limit, 0x800000)
OUTPUT(VGA_Audio_PS2.elf elf32-littlenios2)

.debug_ranges   0x00000000      0x3d8
 .debug_ranges  0x00000000       0x20 ../VGA_Audio_PS2_bsp//obj/HAL/src/crt0.o
 .debug_ranges  0x00000020       0x68 c:/altera/13.0sp1/nios2eds/bin/gnu/h-i686-mingw32/bin/../lib/gcc/nios2-elf/4.1.2\libgcc.a(_muldi3.o)
 .debug_ranges  0x00000088      0x1b0 c:/altera/13.0sp1/nios2eds/bin/gnu/h-i686-mingw32/bin/../lib/gcc/nios2-elf/4.1.2\libgcc.a(_divdi3.o)
 .debug_ranges  0x00000238       0x28 ../VGA_Audio_PS2_bsp/\libhal_bsp.a(alt_irq_entry.o)
 .debug_ranges  0x00000260       0x30 ../VGA_Audio_PS2_bsp/\libhal_bsp.a(alt_exception_entry.o)
 .debug_ranges  0x00000290       0x18 c:/altera/13.0sp1/nios2eds/bin/gnu/h-i686-mingw32/bin/../lib/gcc/nios2-elf/4.1.2/../../../../nios2-elf/lib\libc.a(lib_a-__call_atexit.o)
 .debug_ranges  0x000002a8       0x20 c:/altera/13.0sp1/nios2eds/bin/gnu/h-i686-mingw32/bin/../lib/gcc/nios2-elf/4.1.2/../../../../nios2-elf/lib\libc.a(lib_a-fflush.o)
 .debug_ranges  0x000002c8       0xa0 c:/altera/13.0sp1/nios2eds/bin/gnu/h-i686-mingw32/bin/../lib/gcc/nios2-elf/4.1.2/../../../../nios2-elf/lib\libc.a(lib_a-fwalk.o)
 .debug_ranges  0x00000368       0x70 c:/altera/13.0sp1/nios2eds/bin/gnu/h-i686-mingw32/bin/../lib/gcc/nios2-elf/4.1.2/../../../../nios2-elf/lib\libc.a(lib_a-mallocr.o)
