
VGA_Audio.elf:     file format elf32-littlenios2
VGA_Audio.elf
architecture: nios2, flags 0x00000112:
EXEC_P, HAS_SYMS, D_PAGED
start address 0x000001b8

Program Header:
    LOAD off    0x00001000 vaddr 0x00000000 paddr 0x00000000 align 2**12
         filesz 0x00000020 memsz 0x00000020 flags r-x
    LOAD off    0x00001020 vaddr 0x00000020 paddr 0x00000020 align 2**12
         filesz 0x0000c0dc memsz 0x0000c0dc flags r-x
    LOAD off    0x0000d0fc vaddr 0x0000c0fc paddr 0x0000e178 align 2**12
         filesz 0x0000207c memsz 0x0000207c flags rw-
    LOAD off    0x0000f1f4 vaddr 0x000101f4 paddr 0x000101f4 align 2**12
         filesz 0x00000000 memsz 0x007a18e4 flags rw-

Sections:
Idx Name          Size      VMA       LMA       File off  Algn
  0 .entry        00000020  00000000  00000000  00001000  2**5
                  CONTENTS, ALLOC, LOAD, READONLY, CODE
  1 .exceptions   00000198  00000020  00000020  00001020  2**2
                  CONTENTS, ALLOC, LOAD, READONLY, CODE
  2 .text         0000b918  000001b8  000001b8  000011b8  2**2
                  CONTENTS, ALLOC, LOAD, READONLY, CODE
  3 .rodata       0000062c  0000bad0  0000bad0  0000cad0  2**2
                  CONTENTS, ALLOC, LOAD, READONLY, DATA
  4 .rwdata       0000207c  0000c0fc  0000e178  0000d0fc  2**2
                  CONTENTS, ALLOC, LOAD, DATA, SMALL_DATA
  5 .bss          007a1bbe  000101f4  000101f4  0000f1f4  2**2
                  ALLOC, SMALL_DATA
  6 .comment      00000026  00000000  00000000  0000f178  2**0
                  CONTENTS, READONLY
  7 .debug_aranges 00000b58  00000000  00000000  0000f1a0  2**3
                  CONTENTS, READONLY, DEBUGGING
  8 .debug_pubnames 00001f23  00000000  00000000  0000fcf8  2**0
                  CONTENTS, READONLY, DEBUGGING
  9 .debug_info   0002422f  00000000  00000000  00011c1b  2**0
                  CONTENTS, READONLY, DEBUGGING
 10 .debug_abbrev 000065ae  00000000  00000000  00035e4a  2**0
                  CONTENTS, READONLY, DEBUGGING
 11 .debug_line   00011f79  00000000  00000000  0003c3f8  2**0
                  CONTENTS, READONLY, DEBUGGING
 12 .debug_frame  00001e24  00000000  00000000  0004e374  2**2
                  CONTENTS, READONLY, DEBUGGING
 13 .debug_str    0000207a  00000000  00000000  00050198  2**0
                  CONTENTS, READONLY, DEBUGGING
 14 .debug_loc    000054d2  00000000  00000000  00052212  2**0
                  CONTENTS, READONLY, DEBUGGING
 15 .debug_alt_sim_info 00000050  00000000  00000000  000576e4  2**2
                  CONTENTS, READONLY, DEBUGGING
 16 .debug_ranges 000003d8  00000000  00000000  00057738  2**3
                  CONTENTS, READONLY, DEBUGGING
 17 .thread_model 00000003  00000000  00000000  0005bd79  2**0
                  CONTENTS, READONLY
 18 .cpu          00000003  00000000  00000000  0005bd7c  2**0
                  CONTENTS, READONLY
 19 .qsys         00000001  00000000  00000000  0005bd7f  2**0
                  CONTENTS, READONLY
 20 .simulation_enabled 00000001  00000000  00000000  0005bd80  2**0
                  CONTENTS, READONLY
 21 .sysid_hash   00000004  00000000  00000000  0005bd81  2**0
                  CONTENTS, READONLY
 22 .sysid_base   00000004  00000000  00000000  0005bd85  2**0
                  CONTENTS, READONLY
 23 .sysid_time   00000004  00000000  00000000  0005bd89  2**0
                  CONTENTS, READONLY
 24 .stderr_dev   00000009  00000000  00000000  0005bd8d  2**0
                  CONTENTS, READONLY
 25 .stdin_dev    00000009  00000000  00000000  0005bd96  2**0
                  CONTENTS, READONLY
 26 .stdout_dev   00000009  00000000  00000000  0005bd9f  2**0
                  CONTENTS, READONLY
 27 .sopc_system_name 0000000b  00000000  00000000  0005bda8  2**0
                  CONTENTS, READONLY
 28 .quartus_project_dir 00000033  00000000  00000000  0005bdb3  2**0
                  CONTENTS, READONLY
 29 .jdi          00004a0b  00000000  00000000  0005bde6  2**0
                  CONTENTS, READONLY
 30 .sopcinfo     00105f7e  00000000  00000000  000607f1  2**0
                  CONTENTS, READONLY
SYMBOL TABLE:
00000000 l    d  .entry	00000000 .entry
00000020 l    d  .exceptions	00000000 .exceptions
000001b8 l    d  .text	00000000 .text
0000bad0 l    d  .rodata	00000000 .rodata
0000c0fc l    d  .rwdata	00000000 .rwdata
000101f4 l    d  .bss	00000000 .bss
00000000 l    d  .comment	00000000 .comment
00000000 l    d  .debug_aranges	00000000 .debug_aranges
00000000 l    d  .debug_pubnames	00000000 .debug_pubnames
00000000 l    d  .debug_info	00000000 .debug_info
00000000 l    d  .debug_abbrev	00000000 .debug_abbrev
00000000 l    d  .debug_line	00000000 .debug_line
00000000 l    d  .debug_frame	00000000 .debug_frame
00000000 l    d  .debug_str	00000000 .debug_str
00000000 l    d  .debug_loc	00000000 .debug_loc
00000000 l    d  .debug_alt_sim_info	00000000 .debug_alt_sim_info
00000000 l    d  .debug_ranges	00000000 .debug_ranges
000001f0 l       .text	00000000 alt_after_alt_main
00000000 l    df *ABS*	00000000 alt_irq_handler.c
00000000 l    df *ABS*	00000000 PS2_ISR.c
00000000 l    df *ABS*	00000000 amplitude_calculation.c
00000000 l    df *ABS*	00000000 audio_ISR.c
00000000 l    df *ABS*	00000000 globals.c
00000000 l    df *ABS*	00000000 interval_timer_ISR.c
00000000 l    df *ABS*	00000000 media_interrupt_HAL.c
0000be34 l     O .rodata	00000010 C.37.3134
00000000 l    df *ABS*	00000000 pushbutton_ISR.c
00000000 l    df *ABS*	00000000 libgcc2.c
00000000 l    df *ABS*	00000000 libgcc2.c
00000000 l    df *ABS*	00000000 lib2-divmod.c
000030fc l     F .text	0000007c udivmodsi4
00000000 l    df *ABS*	00000000 libgcc2.c
00000000 l    df *ABS*	00000000 memcpy.c
00000000 l    df *ABS*	00000000 memset.c
00000000 l    df *ABS*	00000000 alt_irq_register.c
00000000 l    df *ABS*	00000000 alt_irq_vars.c
00000000 l    df *ABS*	00000000 alt_load.c
000035c0 l     F .text	0000006c alt_load_section
00000000 l    df *ABS*	00000000 alt_main.c
00000000 l    df *ABS*	00000000 alt_printf.c
00000000 l    df *ABS*	00000000 alt_putchar.c
00000000 l    df *ABS*	00000000 alt_sys_init.c
0000c37c l     O .rwdata	00001060 JTAG_UART
0000d3dc l     O .rwdata	00000030 AV_Config
0000d40c l     O .rwdata	00000030 Audio
0000d43c l     O .rwdata	0000002c Char_LCD_16x2
0000d468 l     O .rwdata	0000003c Ethernet
0000d4a4 l     O .rwdata	0000002c IrDA_UART
0000d4d0 l     O .rwdata	0000002c Expansion_JP1
0000d4fc l     O .rwdata	0000002c Expansion_JP2
0000d528 l     O .rwdata	0000002c Green_LEDs
0000d554 l     O .rwdata	0000002c HEX3_HEX0
0000d580 l     O .rwdata	0000002c HEX7_HEX4
0000d5ac l     O .rwdata	0000002c Pushbuttons
0000d5d8 l     O .rwdata	0000002c Red_LEDs
0000d604 l     O .rwdata	0000002c Slider_Switches
0000d630 l     O .rwdata	00000038 PS2_Port
0000d668 l     O .rwdata	0000002c Serial_Port
0000d694 l     O .rwdata	00000034 USB
0000d6c8 l     O .rwdata	00000048 VGA_Char_Buffer
0000d710 l     O .rwdata	00000054 VGA_Pixel_Buffer
0000d764 l     O .rwdata	0000002c SD_Card
00003d64 l     F .text	00000038 alt_dev_reg
00000000 l    df *ABS*	00000000 altera_avalon_jtag_uart_fd.c
00000000 l    df *ABS*	00000000 altera_avalon_jtag_uart_init.c
00003f9c l     F .text	0000022c altera_avalon_jtag_uart_irq
000041c8 l     F .text	000000b0 altera_avalon_jtag_uart_timeout
00000000 l    df *ABS*	00000000 altera_avalon_jtag_uart_ioctl.c
00000000 l    df *ABS*	00000000 altera_avalon_jtag_uart_read.c
00000000 l    df *ABS*	00000000 altera_avalon_jtag_uart_write.c
00000000 l    df *ABS*	00000000 altera_avalon_timer_sc.c
00004844 l     F .text	00000074 alt_avalon_timer_sc_irq
00000000 l    df *ABS*	00000000 altera_up_avalon_audio.c
00000000 l    df *ABS*	00000000 altera_up_avalon_character_lcd.c
00000000 l    df *ABS*	00000000 altera_up_avalon_ethernet.c
00000000 l    df *ABS*	00000000 altera_up_avalon_ethernet_low_level_driver.c
00000000 l    df *ABS*	00000000 altera_up_avalon_irda.c
00000000 l    df *ABS*	00000000 altera_up_avalon_parallel_port.c
00000000 l    df *ABS*	00000000 altera_up_avalon_ps2.c
00000000 l    df *ABS*	00000000 altera_up_avalon_rs232.c
00000000 l    df *ABS*	00000000 altera_up_avalon_video_character_buffer_with_dma.c
00000000 l    df *ABS*	00000000 altera_up_avalon_video_pixel_buffer_dma.c
00000000 l    df *ABS*	00000000 alt_alarm_start.c
00000000 l    df *ABS*	00000000 alt_close.c
00008330 l     F .text	00000060 alt_get_errno
00000000 l    df *ABS*	00000000 alt_dcache_flush_all.c
00000000 l    df *ABS*	00000000 alt_dev.c
000083ac l     F .text	0000002c alt_dev_null_write
00000000 l    df *ABS*	00000000 alt_dev_llist_insert.c
0000848c l     F .text	00000060 alt_get_errno
00000000 l    df *ABS*	00000000 alt_do_ctors.c
00000000 l    df *ABS*	00000000 alt_do_dtors.c
00000000 l    df *ABS*	00000000 alt_errno.c
00000000 l    df *ABS*	00000000 alt_find_dev.c
00000000 l    df *ABS*	00000000 alt_icache_flush_all.c
00000000 l    df *ABS*	00000000 alt_io_redirect.c
00008678 l     F .text	000000c4 alt_open_fd
00000000 l    df *ABS*	00000000 alt_open.c
000087b4 l     F .text	000000dc alt_file_locked
00008a18 l     F .text	00000060 alt_get_errno
00000000 l    df *ABS*	00000000 alt_release_fd.c
00000000 l    df *ABS*	00000000 alt_tick.c
00000000 l    df *ABS*	00000000 alt_usleep.c
00000000 l    df *ABS*	00000000 altera_nios2_qsys_irq.c
00000000 l    df *ABS*	00000000 alt_busy_sleep.c
00000000 l    df *ABS*	00000000 alt_find_file.c
00000000 l    df *ABS*	00000000 alt_get_fd.c
00000000 l    df *ABS*	00000000 alt_icache_flush.c
00000000 l    df *ABS*	00000000 atexit.c
00000000 l    df *ABS*	00000000 exit.c
00000000 l    df *ABS*	00000000 impure.c
0000d938 l     O .rwdata	00000400 impure_data
00000000 l    df *ABS*	00000000 int_errno.c
00000000 l    df *ABS*	00000000 memcmp.c
00000000 l    df *ABS*	00000000 putc.c
00000000 l    df *ABS*	00000000 strcmp.c
00000000 l    df *ABS*	00000000 strlen.c
00000000 l    df *ABS*	00000000 wbuf.c
00000000 l    df *ABS*	00000000 wsetup.c
00000000 l    df *ABS*	00000000 __atexit.c
00000000 l    df *ABS*	00000000 __call_atexit.c
000097f8 l     F .text	00000004 register_fini
00000000 l    df *ABS*	00000000 fflush.c
00000000 l    df *ABS*	00000000 findfp.c
00009bdc l     F .text	00000058 std
00009ce8 l     F .text	00000008 __fp_lock
00009cf0 l     F .text	00000008 __fp_unlock
00000000 l    df *ABS*	00000000 mallocr.c
00000000 l    df *ABS*	00000000 fwalk.c
00000000 l    df *ABS*	00000000 makebuf.c
00000000 l    df *ABS*	00000000 mallocr.c
00000000 l    df *ABS*	00000000 sbrkr.c
00000000 l    df *ABS*	00000000 stdio.c
00000000 l    df *ABS*	00000000 writer.c
00000000 l    df *ABS*	00000000 closer.c
00000000 l    df *ABS*	00000000 fclose.c
00000000 l    df *ABS*	00000000 fstatr.c
00000000 l    df *ABS*	00000000 isattyr.c
00000000 l    df *ABS*	00000000 lseekr.c
00000000 l    df *ABS*	00000000 readr.c
00000000 l    df *ABS*	00000000 alt_exit.c
0000b2cc l     F .text	00000040 alt_sim_halt
00000000 l    df *ABS*	00000000 alt_fstat.c
0000b400 l     F .text	00000060 alt_get_errno
00000000 l    df *ABS*	00000000 alt_isatty.c
0000b520 l     F .text	00000060 alt_get_errno
00000000 l    df *ABS*	00000000 alt_lseek.c
0000b670 l     F .text	00000060 alt_get_errno
00000000 l    df *ABS*	00000000 alt_malloc_lock.c
00000000 l    df *ABS*	00000000 alt_read.c
0000b830 l     F .text	00000060 alt_get_errno
00000000 l    df *ABS*	00000000 alt_sbrk.c
0000e174 l     O .rwdata	00000004 heap_end
00000000 l    df *ABS*	00000000 alt_write.c
0000ba6c l     F .text	00000060 alt_get_errno
0000b16c g     F .text	00000070 _isatty_r
0000362c g     F .text	0000006c alt_main
000077e0 g     F .text	000003d0 alt_up_pixel_buffer_dma_draw_vline
00000a74 g     F .text	00000060 interval_timer_ISR
00006024 g     F .text	00000058 alt_up_ps2_disable_read_interrupt
007b1848 g     O .bss	00000100 alt_irq
0000b1dc g     F .text	00000078 _lseek_r
0000e178 g       *ABS*	00000000 __flash_rwdata_start
000051c8 g     F .text	00000034 alt_up_character_lcd_send_cmd
00010204 g     O .bss	00000001 byte2
00002a7c g     F .text	00000680 __divdi3
00004bb8 g     F .text	00000070 alt_up_audio_read_fifo_avail
007b1ad8 g       *ABS*	00000000 __alt_heap_start
00004c28 g     F .text	00000070 alt_up_audio_record_r
00010205 g     O .bss	00000001 byte3
0000ada8 g     F .text	00000068 __sseek
00009c44 g     F .text	000000a4 __sinit
0000943c g     F .text	00000130 __swbuf_r
00006a04 g     F .text	00000114 alt_up_char_buffer_string
00005e3c g     F .text	00000034 read_CE_bit
00010208 g     O .bss	00000004 Play_Index
00009d44 g     F .text	00000068 __sfmoreglue
0000b6f0 g     F .text	00000020 __malloc_unlock
000061d0 g     F .text	000000b0 alt_up_ps2_read_data_byte_timeout
0000670c g     F .text	00000090 alt_up_rs232_read_fd
000023c8 g     F .text	000002d8 Audio_Average
00006934 g     F .text	000000d0 alt_up_char_buffer_draw
00004b30 g     F .text	00000088 alt_up_audio_reset_audio_core
0000033c g     F .text	00000070 amplitude_operation
0001020c g     O .bss	00000001 byte1
00009d34 g     F .text	00000010 _cleanup
00006bb4 g     F .text	000001a0 alt_up_pixel_buffer_dma_draw
00000000  w      *UND*	00000000 __errno
0000514c g     F .text	0000007c get_DDRAM_addr
00006b74 g     F .text	00000040 alt_up_pixel_buffer_dma_open_dev
00000000 g     F .entry	0000001c __reset
00000020 g       *ABS*	00000000 __flash_exceptions_start
0000b0f8 g     F .text	00000074 _fstat_r
00010290 g     O .bss	00000004 errno
000027f8 g     F .text	00000134 Calculate_Avrage
000101f8 g     O .bss	00000004 Read_Data
00004af4 g     F .text	0000003c alt_up_audio_write_interrupt_pending
00010280 g     O .bss	00000004 alt_argv
00016140 g       *ABS*	00000000 _gp
00008c7c g     F .text	00000030 usleep
00006d54 g     F .text	00000058 alt_up_pixel_buffer_dma_change_back_buffer_address
0000d7b8 g     O .rwdata	00000180 alt_fd_list
0001024c g     O .bss	00000004 XoverFlow
0000c0fc g     O .rwdata	00000080 coeff
000085b4 g     F .text	00000094 alt_find_dev
00003248 g     F .text	000000a0 memcpy
00005360 g     F .text	0000004c alt_up_character_lcd_write_fd
00006b18 g     F .text	0000005c alt_up_char_buffer_clear
00009d28 g     F .text	0000000c _cleanup_r
0000873c g     F .text	00000078 alt_io_redirect
0000bad0 g       *ABS*	00000000 __DTOR_END__
00000420 g     F .text	00000074 amplitude_circute_set_size
00005cc8 g     F .text	00000090 alt_up_irda_write_fd
000003ac g     F .text	00000074 amplitude_circute_stop
00006698 g     F .text	00000074 alt_up_rs232_read_data
00010250 g     O .bss	00000004 MiddleBtn
0000508c g     F .text	00000060 alt_up_audio_read_fifo_head
00006e04 g     F .text	00000034 alt_up_pixel_buffer_dma_check_swap_buffers_status
007b14e8 g     O .bss	00000080 Out_Ram
00005ab0 g     F .text	0000003c alt_up_irda_get_used_space_in_read_FIFO
000043e0 g     F .text	00000224 altera_avalon_jtag_uart_read
00000000  w      *UND*	00000000 malloc
00003238 g     F .text	00000008 __udivsi3
0000b460 g     F .text	000000c0 isatty
0001020d g     O .bss	00000001 local_b2
00010248 g     O .bss	00000004 anita2
00005808 g     F .text	00000044 alt_up_ethernet_reg_write
00010254 g     O .bss	00000004 index_Echo
0001020e g     O .bss	00000001 local_b1
00007490 g     F .text	00000350 alt_up_pixel_buffer_dma_draw_hline
00005a58 g     F .text	00000058 alt_up_irda_disable_read_interrupt
00008fd0 g     F .text	00000090 alt_icache_flush
00010294 g     O .bss	00000004 __malloc_top_pad
00000494 g     F .text	00000074 amplitude_circute_set_num
00002098 g     F .text	000001a4 Do_Soft_Echo
0000ad30 g     F .text	00000070 _sbrk_r
000102c8 g     O .bss	00000020 up_dev
00007c74 g     F .text	000000d0 helper_plot_pixel
0000b254 g     F .text	00000078 _read_r
00010210 g     O .bss	00000004 Echo_End
0000e154 g     O .rwdata	00000004 alt_max_fd
00006600 g     F .text	00000050 alt_up_rs232_check_parity
000050ec g     F .text	00000060 alt_up_audio_write_fifo_head
0000567c g     F .text	00000110 alt_up_ethernet_init
0000afd4 g     F .text	00000110 _fclose_r
00005e70 g     F .text	00000034 read_num_bytes_available
00009ba8 g     F .text	00000034 fflush
00010298 g     O .bss	00000004 __malloc_max_sbrked_mem
00003380 g     F .text	000001c0 alt_irq_register
00005dd8 g     F .text	00000034 read_RI_bit
007b1568 g     O .bss	00000080 Right_Ram
007b15e8 g     O .bss	000000f0 Avrage_Hardware
00006e38 g     F .text	00000164 alt_up_pixel_buffer_dma_clear_screen
0000b580 g     F .text	000000f0 lseek
000101fc g     O .bss	00000004 Read_Reg0
0000e168 g     O .rwdata	00000004 _global_impure_ptr
007b1ad8 g       *ABS*	00000000 __bss_end
00006f9c g     F .text	000004f4 alt_up_pixel_buffer_dma_draw_box
00008b70 g     F .text	0000010c alt_tick
0c000000 g       *ABS*	00000000 __alt_mem_Flash_flash_data
00004940 g     F .text	00000040 alt_up_audio_open_dev
00005ed8 g     F .text	0000002c read_data_byte
00009d10 g     F .text	00000018 __fp_lock_all
000102e8 g     O .bss	001e8480 Echo_buf_l
00004d7c g     F .text	00000070 alt_up_audio_play_r
00008ad8 g     F .text	00000098 alt_alarm_stop
00005e0c g     F .text	00000030 read_RE_bit
00010278 g     O .bss	00000004 alt_irq_active
00010214 g     O .bss	00000004 Echo_complete
00005aec g     F .text	00000040 alt_up_irda_get_available_space_in_write_FIFO
000000ec g     F .exceptions	000000cc alt_irq_handler
0000d790 g     O .rwdata	00000028 alt_dev_null
00005648 g     F .text	00000034 alt_up_character_lcd_cursor_blink_on
00005d98 g     F .text	00000040 alt_up_parallel_port_open_dev
0001023c g     O .bss	00000004 Echo
0000607c g     F .text	00000078 alt_up_ps2_write_data_byte
00000538 g     F .text	00000030 amplitude_circute_set_lbuff_addr
00008390 g     F .text	0000001c alt_dcache_flush_all
00010258 g     O .bss	00000004 nibble_TempY
0001025c g     O .bss	00000004 nibble_TempX
00007bb0 g     F .text	000000c4 alt_up_pixel_buffer_dma_draw_rectangle
007b16d8 g     O .bss	000000f0 Average
00010218 g     O .bss	00000004 Play_Flag
0000e178 g       *ABS*	00000000 __ram_rwdata_end
0000e14c g     O .rwdata	00000008 alt_dev_list
0000b94c g     F .text	00000120 write
00009224 g     F .text	000000e8 _putc_r
00007d44 g     F .text	0000039c alt_up_pixel_buffer_dma_draw_line
0000c0fc g       *ABS*	00000000 __ram_rodata_end
0000b32c g     F .text	000000d4 fstat
0000679c g     F .text	00000094 alt_up_rs232_write_fd
000005cc g     F .text	00000070 amplitude_circute_get_status
0000c17c g     O .rwdata	00000200 Mouse_Icon
00000000 g       *ABS*	00000000 __alt_mem_SDRAM
00010260 g     O .bss	00000004 RightBtn
00003240 g     F .text	00000008 __umodsi3
007b1ad8 g       *ABS*	00000000 end
000063f0 g     F .text	000000a8 alt_up_ps2_write_fd
00005b2c g     F .text	00000050 alt_up_irda_check_parity
00006870 g     F .text	00000084 alt_up_char_buffer_init
001f8768 g     O .bss	001e8480 r_buf
00003ee4 g     F .text	000000b8 altera_avalon_jtag_uart_init
0000bacc g       *ABS*	00000000 __CTOR_LIST__
00800000 g       *ABS*	00000000 __alt_stack_pointer
000048b8 g     F .text	00000088 alt_avalon_timer_sc_init
00004604 g     F .text	00000240 altera_avalon_jtag_uart_write
00009c34 g     F .text	00000004 __sfp_lock_acquire
00005270 g     F .text	00000078 alt_up_character_lcd_write
00000508 g     F .text	00000030 amplitude_circute_set_rbuff_addr
00009fc8 g     F .text	00000314 _free_r
00003698 g     F .text	00000258 alt_printf
000097fc g     F .text	000001b0 __call_exitprocs
000026a0 g     F .text	0000010c Plot_Play_Audio
0000e170 g     O .rwdata	00000004 __malloc_sbrk_base
000001b8 g     F .text	0000003c _start
00010288 g     O .bss	00000004 _alt_tick_rate
00004f60 g     F .text	0000012c alt_up_audio_write_fifo
0001028c g     O .bss	00000004 _alt_nticks
0000b710 g     F .text	00000120 read
00003964 g     F .text	00000400 alt_sys_init
000054d4 g     F .text	000000b0 alt_up_character_lcd_shift_display
00004e5c g     F .text	00000104 alt_up_audio_read_fifo
000096c4 g     F .text	00000134 __register_exitproc
00004a68 g     F .text	00000050 alt_up_audio_disable_write_interrupt
000062fc g     F .text	00000058 alt_up_ps2_clear_fifo
000065c0 g     F .text	00000040 alt_up_rs232_get_available_space_in_write_FIFO
00005584 g     F .text	00000090 alt_up_character_lcd_erase_pos
00004278 g     F .text	00000074 altera_avalon_jtag_uart_close
0000c0fc g       *ABS*	00000000 __ram_rwdata_start
0000bad0 g       *ABS*	00000000 __ram_rodata_start
000102a0 g     O .bss	00000028 __malloc_current_mallinfo
00003d9c g     F .text	00000058 altera_avalon_jtag_uart_read_fd
007b17c8 g     O .bss	00000080 Left_Ram
00008f18 g     F .text	000000b8 alt_get_fd
00008ccc g     F .text	0000012c alt_busy_sleep
0000af64 g     F .text	00000070 _close_r
00010264 g     O .bss	00000004 Xsign
00004a1c g     F .text	0000004c alt_up_audio_enable_write_interrupt
003e0be8 g     O .bss	001e8480 Echo_buf_r
000090ac g     F .text	00000074 memcmp
00003e4c g     F .text	00000048 altera_avalon_jtag_uart_close_fd
007b1ad8 g       *ABS*	00000000 __alt_stack_base
00003e94 g     F .text	00000050 altera_avalon_jtag_uart_ioctl_fd
00005a04 g     F .text	00000054 alt_up_irda_enable_read_interrupt
00009588 g     F .text	0000013c __swsetup_r
000049cc g     F .text	00000050 alt_up_audio_disable_read_interrupt
00009dac g     F .text	000000f0 __sfp
0000dd38 g     O .rwdata	00000408 __malloc_av_
00009c40 g     F .text	00000004 __sinit_lock_release
0000ae8c g     F .text	00000060 __sread
0000652c g     F .text	00000058 alt_up_rs232_disable_read_interrupt
00008df8 g     F .text	00000120 alt_find_file
000083d8 g     F .text	000000b4 alt_dev_llist_insert
0000b6d0 g     F .text	00000020 __malloc_lock
0000b890 g     F .text	000000bc sbrk
000099ac g     F .text	000001fc _fflush_r
000101f4 g       *ABS*	00000000 __bss_start
000032e8 g     F .text	00000098 memset
0001021c g     O .bss	00000004 Clear_Play_Plot
00000ad4 g     F .text	000012b8 main
00004d08 g     F .text	00000074 alt_up_audio_write_fifo_space
00010284 g     O .bss	00000004 alt_envp
0001029c g     O .bss	00000004 __malloc_max_total_mem
00006dac g     F .text	00000058 alt_up_pixel_buffer_dma_swap_buffers
000068f4 g     F .text	00000040 alt_up_char_buffer_open_dev
00003df4 g     F .text	00000058 altera_avalon_jtag_uart_write_fd
00010220 g     O .bss	00000004 End_Record
0000956c g     F .text	0000001c __swbuf
00005424 g     F .text	000000b0 alt_up_character_lcd_shift_cursor
0000ada0 g     F .text	00000008 __sclose
00800000 g       *ABS*	00000000 __alt_heap_limit
0000b0e4 g     F .text	00000014 fclose
00006280 g     F .text	0000007c alt_up_ps2_read_data_byte
00010224 g     O .bss	00000004 timeout
007b1948 g     O .bss	00000190 _atexit0
0000a5f0 g     F .text	00000740 _malloc_r
0000e158 g     O .rwdata	00000004 alt_errno
0000a3a4 g     F .text	000000b8 _fwalk
00010200 g     O .bss	00000004 Done_Bit
00005b7c g     F .text	00000048 alt_up_irda_write_data
00006498 g     F .text	00000040 alt_up_ps2_open_dev
00009120 g     F .text	00000104 putc
00003178 g     F .text	00000060 __divsi3
00005230 g     F .text	00000040 alt_up_character_lcd_open_dev
00009e9c g     F .text	0000012c _malloc_trim_r
00005fd0 g     F .text	00000054 alt_up_ps2_enable_read_interrupt
0000bad0 g       *ABS*	00000000 __CTOR_END__
000051fc g     F .text	00000034 alt_up_character_lcd_init
0000930c g     F .text	000000bc strcmp
0000bad0 g       *ABS*	00000000 __flash_rodata_start
0000bad0 g       *ABS*	00000000 __DTOR_LIST__
00006830 g     F .text	00000040 alt_up_rs232_open_dev
00010228 g     O .bss	00000004 count
00003930 g     F .text	00000034 alt_irq_init
00008a78 g     F .text	00000060 alt_release_fd
00005ea4 g     F .text	00000034 read_data_valid
00005614 g     F .text	00000034 alt_up_character_lcd_cursor_off
0000be44 g     O .rodata	00000100 __clz_tab
00006164 g     F .text	0000006c alt_up_ps2_write_data_byte_with_ack
00009060 g     F .text	00000014 atexit
00010268 g     O .bss	00000004 Temp_Sign
0000aeec g     F .text	00000078 _write_r
0000292c g     F .text	000000b8 pushbutton_ISR
000001f4 g     F .text	00000148 PS2_ISR
0000e164 g     O .rwdata	00000004 _impure_ptr
0001022c g     O .bss	00000004 buf_index_play
0001027c g     O .bss	00000004 alt_argc
00008550 g     F .text	00000064 _do_dtors
00000020 g       .exceptions	00000000 alt_irq_entry
00009cf8 g     F .text	00000018 __fp_unlock_all
0000e144 g     O .rwdata	00000008 alt_fs_list
000064d8 g     F .text	00000054 alt_up_rs232_enable_read_interrupt
00004c98 g     F .text	00000070 alt_up_audio_record_l
00010240 g     O .bss	00000004 anita0
00006650 g     F .text	00000048 alt_up_rs232_write_data
0000584c g     F .text	000000e0 alt_up_ethernet_phy_reg_read
00000020 g       *ABS*	00000000 __ram_exceptions_start
00001d8c g     F .text	0000030c HEXxy_PS2
0000e178 g       *ABS*	00000000 _edata
007b1ad8 g       *ABS*	00000000 _end
000001b8 g       *ABS*	00000000 __ram_exceptions_end
000042ec g     F .text	000000f4 altera_avalon_jtag_uart_ioctl
0000063c g     F .text	00000438 audio_ISR
005c9068 g     O .bss	001e8480 l_buf
00004dec g     F .text	00000070 alt_up_audio_play_l
00010230 g     O .bss	00000001 local_b3
0000ae10 g     F .text	0000007c __swrite
0000e16c g     O .rwdata	00000004 __malloc_trim_threshold
00008cac g     F .text	00000020 altera_nios2_qsys_irq_init
00009074 g     F .text	00000038 exit
00005bc4 g     F .text	00000074 alt_up_irda_read_data
0000a2dc g     F .text	000000c8 _fwalk_reent
00005f04 g     F .text	000000cc alt_up_ps2_init
000031d8 g     F .text	00000060 __modsi3
0001026c g     O .bss	00000004 LeftBtn
00800000 g       *ABS*	00000000 __alt_data_end
00000020 g     F .exceptions	00000000 alt_exception
00009c38 g     F .text	00000004 __sfp_lock_release
000052e8 g     F .text	00000078 alt_up_character_lcd_string
000027ac g     F .text	0000004c Do_Hardware_Calculate
00005d58 g     F .text	00000040 alt_up_irda_open_dev
000101f4 g     O .bss	00000004 Base_Data
00010244 g     O .bss	00000004 anita1
0000b30c g     F .text	00000020 _exit
000080e0 g     F .text	00000154 alt_alarm_start
0000223c g     F .text	0000018c Plot_AudioRecord
000029e4 g     F .text	00000098 __muldi3
0000a45c g     F .text	00000194 __smakebuf_r
000060f4 g     F .text	00000070 alt_up_ps2_wait_for_ack
000093c8 g     F .text	00000074 strlen
0000578c g     F .text	00000040 alt_up_ethernet_open_dev
00008890 g     F .text	00000188 open
000038f0 g     F .text	00000040 alt_putchar
00010234 g     O .bss	00000004 buf_index_record
00008648 g     F .text	00000030 alt_icache_flush_all
0000592c g     F .text	000000d8 alt_up_ethernet_phy_reg_write
000053ac g     F .text	00000078 alt_up_character_lcd_set_cursor_pos
0000e140 g     O .rwdata	00000004 alt_priority_mask
00006354 g     F .text	0000009c alt_up_ps2_read_fd
00000598 g     F .text	00000034 amplitude_circute_start
00005c38 g     F .text	00000090 alt_up_irda_read_fd
0000e15c g     O .rwdata	00000008 alt_alarm_list
000084ec g     F .text	00000064 _do_ctors
00006584 g     F .text	0000003c alt_up_rs232_get_used_space_in_read_FIFO
00010270 g     O .bss	00000004 YoverFlow
00008234 g     F .text	000000fc close
00010238 g     O .bss	00000004 Click_Echo
00010274 g     O .bss	00000004 Ysign
00003540 g     F .text	00000080 alt_load
000057cc g     F .text	0000003c alt_up_ethernet_reg_read
00004980 g     F .text	0000004c alt_up_audio_enable_read_interrupt
00000568 g     F .text	00000030 amplitude_circute_set_dest_addr
00000000  w      *UND*	00000000 free
00009c3c g     F .text	00000004 __sinit_lock_acquire
00004ab8 g     F .text	0000003c alt_up_audio_read_interrupt_pending



Disassembly of section .entry:

00000000 <__reset>:
#if NIOS2_ICACHE_SIZE > 0 && defined(ALT_ALLOW_CODE_AT_RESET) && !defined(ALT_SIM_OPTIMIZE)
    /* Assume the instruction cache size is always a power of two. */
#if NIOS2_ICACHE_SIZE > 0x8000
    movhi r2, %hi(NIOS2_ICACHE_SIZE)
#else
    movui r2, NIOS2_ICACHE_SIZE
   0:	00840014 	movui	r2,4096
#endif

0:
    initi r2
   4:	1001483a 	initi	r2
    addi r2, r2, -NIOS2_ICACHE_LINE_SIZE
   8:	10bff804 	addi	r2,r2,-32
    bgt r2, zero, 0b
   c:	00bffd16 	blt	zero,r2,4 <__reset+0x4>
 * Jump to the _start entry point in the .text section if reset code
 * is allowed or if optimizing for RTL simulation.
 */
#if defined(ALT_ALLOW_CODE_AT_RESET) || defined(ALT_SIM_OPTIMIZE)
    /* Jump to the _start entry point in the .text section. */
    movhi r1, %hi(_start)
  10:	00400034 	movhi	at,0
    ori r1, r1, %lo(_start)
  14:	08406e14 	ori	at,at,440
    jmp r1
  18:	0800683a 	jmp	at
  1c:	00000000 	call	0 <__reset>

Disassembly of section .exceptions:

00000020 <alt_exception>:
         * Process an exception.  For all exceptions we must preserve all
         * caller saved registers on the stack (See the Nios2 ABI
         * documentation for details).
         */

        addi  sp, sp, -76
  20:	deffed04 	addi	sp,sp,-76

#endif

#endif

        stw   ra,  0(sp)
  24:	dfc00015 	stw	ra,0(sp)
        /*
         * Leave a gap in the stack frame at 4(sp) for the muldiv handler to
         * store zero into.
         */

        stw   r1,   8(sp)
  28:	d8400215 	stw	at,8(sp)
        stw   r2,  12(sp)
  2c:	d8800315 	stw	r2,12(sp)
        stw   r3,  16(sp)
  30:	d8c00415 	stw	r3,16(sp)
        stw   r4,  20(sp)
  34:	d9000515 	stw	r4,20(sp)
        stw   r5,  24(sp)
  38:	d9400615 	stw	r5,24(sp)
        stw   r6,  28(sp)
  3c:	d9800715 	stw	r6,28(sp)
        stw   r7,  32(sp)
  40:	d9c00815 	stw	r7,32(sp)

        rdctl r5, estatus
  44:	000b307a 	rdctl	r5,estatus

        stw   r8,  36(sp)
  48:	da000915 	stw	r8,36(sp)
        stw   r9,  40(sp)
  4c:	da400a15 	stw	r9,40(sp)
        stw   r10, 44(sp)
  50:	da800b15 	stw	r10,44(sp)
        stw   r11, 48(sp)
  54:	dac00c15 	stw	r11,48(sp)
        stw   r12, 52(sp)
  58:	db000d15 	stw	r12,52(sp)
        stw   r13, 56(sp)
  5c:	db400e15 	stw	r13,56(sp)
        stw   r14, 60(sp)
  60:	db800f15 	stw	r14,60(sp)
        stw   r15, 64(sp)
  64:	dbc01015 	stw	r15,64(sp)
        /*
         * ea-4 contains the address of the instruction being executed
         * when the exception occured. For interrupt exceptions, we will
         * will be re-issue the isntruction. Store it in 72(sp)
         */
        stw   r5,  68(sp)  /* estatus */
  68:	d9401115 	stw	r5,68(sp)
        addi  r15, ea, -4  /* instruction that caused exception */
  6c:	ebffff04 	addi	r15,ea,-4
        stw   r15,  72(sp)
  70:	dbc01215 	stw	r15,72(sp)
#else
        /*
         * Test to see if the exception was a software exception or caused 
         * by an external interrupt, and vector accordingly.
         */
        rdctl r4, ipending
  74:	0009313a 	rdctl	r4,ipending
        andi  r2, r5, 1
  78:	2880004c 	andi	r2,r5,1
        beq   r2, zero, .Lnot_irq
  7c:	10000326 	beq	r2,zero,8c <alt_exception+0x6c>
        beq   r4, zero, .Lnot_irq
  80:	20000226 	beq	r4,zero,8c <alt_exception+0x6c>
        /*
         * Now that all necessary registers have been preserved, call 
         * alt_irq_handler() to process the interrupts.
         */

        call alt_irq_handler
  84:	00000ec0 	call	ec <alt_irq_handler>

        .section .exceptions.irqreturn, "xa"

        br    .Lexception_exit
  88:	00000306 	br	98 <alt_exception+0x78>
         * upon completion, so we write ea (address of instruction *after*
         * the one where the exception occured) into 72(sp). The actual
         * instruction that caused the exception is written in r2, which these
         * handlers will utilize.
         */
        stw   ea,  72(sp)  /* Don't re-issue */
  8c:	df401215 	stw	ea,72(sp)
        ldw   r2, -4(ea)   /* Instruction that caused exception */
  90:	e8bfff17 	ldw	r2,-4(ea)
#ifdef NIOS2_HAS_DEBUG_STUB
       /*
        *  Either tell the user now (if there is a debugger attached) or go into
        *  the debug monitor which will loop until a debugger is attached.
        */
        break
  94:	003da03a 	break	0
        /* 
         * Restore the saved registers, so that all general purpose registers 
         * have been restored to their state at the time the interrupt occured.
         */

        ldw   r5,  68(sp)
  98:	d9401117 	ldw	r5,68(sp)
        ldw   ea,  72(sp)  /* This becomes the PC once eret is executed */
  9c:	df401217 	ldw	ea,72(sp)
        ldw   ra,   0(sp)
  a0:	dfc00017 	ldw	ra,0(sp)

        wrctl estatus, r5
  a4:	2801707a 	wrctl	estatus,r5

        ldw   r1,   8(sp)
  a8:	d8400217 	ldw	at,8(sp)
        ldw   r2,  12(sp)
  ac:	d8800317 	ldw	r2,12(sp)
        ldw   r3,  16(sp)
  b0:	d8c00417 	ldw	r3,16(sp)
        ldw   r4,  20(sp)
  b4:	d9000517 	ldw	r4,20(sp)
        ldw   r5,  24(sp)
  b8:	d9400617 	ldw	r5,24(sp)
        ldw   r6,  28(sp)
  bc:	d9800717 	ldw	r6,28(sp)
        ldw   r7,  32(sp)
  c0:	d9c00817 	ldw	r7,32(sp)
#ifdef ALT_STACK_CHECK
        ldw   et, %gprel(alt_exception_old_stack_limit)(gp)
#endif
#endif

        ldw   r8,  36(sp)
  c4:	da000917 	ldw	r8,36(sp)
        ldw   r9,  40(sp)
  c8:	da400a17 	ldw	r9,40(sp)
        ldw   r10, 44(sp)
  cc:	da800b17 	ldw	r10,44(sp)
        ldw   r11, 48(sp)
  d0:	dac00c17 	ldw	r11,48(sp)
        ldw   r12, 52(sp)
  d4:	db000d17 	ldw	r12,52(sp)
        ldw   r13, 56(sp)
  d8:	db400e17 	ldw	r13,56(sp)
        ldw   r14, 60(sp)
  dc:	db800f17 	ldw	r14,60(sp)
        ldw   r15, 64(sp)
  e0:	dbc01017 	ldw	r15,64(sp)
#endif

        ldw   sp,  76(sp)

#else
        addi  sp, sp, 76
  e4:	dec01304 	addi	sp,sp,76

        /*
         * Return to the interrupted instruction.
         */

        eret
  e8:	ef80083a 	eret

000000ec <alt_irq_handler>:
 * instruction is present if the macro ALT_CI_INTERRUPT_VECTOR defined.
 */

void alt_irq_handler (void) __attribute__ ((section (".exceptions")));
void alt_irq_handler (void)
{
  ec:	defff904 	addi	sp,sp,-28
  f0:	dfc00615 	stw	ra,24(sp)
  f4:	df000515 	stw	fp,20(sp)
  f8:	df000504 	addi	fp,sp,20
#ifndef NIOS2_EIC_PRESENT
static ALT_INLINE alt_u32 ALT_ALWAYS_INLINE alt_irq_pending (void)
{
  alt_u32 active;

  NIOS2_READ_IPENDING (active);
  fc:	0005313a 	rdctl	r2,ipending
 100:	e0bffc15 	stw	r2,-16(fp)

  return active;
 104:	e0bffc17 	ldw	r2,-16(fp)
   * Consider the case where the high priority interupt is asserted during
   * the interrupt entry sequence for a lower priority interrupt to see why
   * this is the case.
   */

  active = alt_irq_pending ();
 108:	e0bfff15 	stw	r2,-4(fp)

  do
  {
    i = 0;
 10c:	e03ffd15 	stw	zero,-12(fp)
    mask = 1;
 110:	00800044 	movi	r2,1
 114:	e0bffe15 	stw	r2,-8(fp)
     * called to clear the interrupt condition.
     */

    do
    {
      if (active & mask)
 118:	e0ffff17 	ldw	r3,-4(fp)
 11c:	e0bffe17 	ldw	r2,-8(fp)
 120:	1884703a 	and	r2,r3,r2
 124:	1005003a 	cmpeq	r2,r2,zero
 128:	1000171e 	bne	r2,zero,188 <alt_irq_handler+0x9c>
      { 
#ifdef ALT_ENHANCED_INTERRUPT_API_PRESENT
        alt_irq[i].handler(alt_irq[i].context); 
#else
        alt_irq[i].handler(alt_irq[i].context, i); 
 12c:	e0bffd17 	ldw	r2,-12(fp)
 130:	00c01ef4 	movhi	r3,123
 134:	18c61204 	addi	r3,r3,6216
 138:	100490fa 	slli	r2,r2,3
 13c:	10c5883a 	add	r2,r2,r3
 140:	11800017 	ldw	r6,0(r2)
 144:	e0bffd17 	ldw	r2,-12(fp)
 148:	00c01ef4 	movhi	r3,123
 14c:	18c61204 	addi	r3,r3,6216
 150:	100490fa 	slli	r2,r2,3
 154:	10c5883a 	add	r2,r2,r3
 158:	10800104 	addi	r2,r2,4
 15c:	11000017 	ldw	r4,0(r2)
 160:	e17ffd17 	ldw	r5,-12(fp)
 164:	303ee83a 	callr	r6
#ifndef NIOS2_EIC_PRESENT
static ALT_INLINE alt_u32 ALT_ALWAYS_INLINE alt_irq_pending (void)
{
  alt_u32 active;

  NIOS2_READ_IPENDING (active);
 168:	0005313a 	rdctl	r2,ipending
 16c:	e0bffb15 	stw	r2,-20(fp)

  return active;
 170:	e0bffb17 	ldw	r2,-20(fp)
      mask <<= 1;
      i++;

    } while (1);

    active = alt_irq_pending ();
 174:	e0bfff15 	stw	r2,-4(fp)
    
  } while (active);
 178:	e0bfff17 	ldw	r2,-4(fp)
 17c:	1004c03a 	cmpne	r2,r2,zero
 180:	103fe21e 	bne	r2,zero,10c <alt_irq_handler+0x20>
 184:	00000706 	br	1a4 <alt_irq_handler+0xb8>
#else
        alt_irq[i].handler(alt_irq[i].context, i); 
#endif
        break;
      }
      mask <<= 1;
 188:	e0bffe17 	ldw	r2,-8(fp)
 18c:	1085883a 	add	r2,r2,r2
 190:	e0bffe15 	stw	r2,-8(fp)
      i++;
 194:	e0bffd17 	ldw	r2,-12(fp)
 198:	10800044 	addi	r2,r2,1
 19c:	e0bffd15 	stw	r2,-12(fp)

    } while (1);
 1a0:	003fdd06 	br	118 <alt_irq_handler+0x2c>
  /*
   * Notify the operating system that interrupt processing is complete.
   */ 

  ALT_OS_INT_EXIT();
}
 1a4:	e037883a 	mov	sp,fp
 1a8:	dfc00117 	ldw	ra,4(sp)
 1ac:	df000017 	ldw	fp,0(sp)
 1b0:	dec00204 	addi	sp,sp,8
 1b4:	f800283a 	ret

Disassembly of section .text:

000001b8 <_start>:
#if (NIOS2_NUM_OF_SHADOW_REG_SETS == 0)    
    /*
     * Now that the caches are initialized, set up the stack pointer.
     * The value provided by the linker is assumed to be correctly aligned.
     */
    movhi sp, %hi(__alt_stack_pointer)
     1b8:	06c02034 	movhi	sp,128
    ori sp, sp, %lo(__alt_stack_pointer)
     1bc:	dec00014 	ori	sp,sp,0

    /* Set up the global pointer. */
    movhi gp, %hi(_gp)
     1c0:	06800074 	movhi	gp,1
    ori gp, gp, %lo(_gp)
     1c4:	d6985014 	ori	gp,gp,24896
 */
#ifndef ALT_SIM_OPTIMIZE
    /* Log that the BSS is about to be cleared. */
    ALT_LOG_PUTS(alt_log_msg_bss)

    movhi r2, %hi(__bss_start)
     1c8:	00800074 	movhi	r2,1
    ori r2, r2, %lo(__bss_start)
     1cc:	10807d14 	ori	r2,r2,500

    movhi r3, %hi(__bss_end)
     1d0:	00c01ef4 	movhi	r3,123
    ori r3, r3, %lo(__bss_end)
     1d4:	18c6b614 	ori	r3,r3,6872

    beq r2, r3, 1f
     1d8:	10c00326 	beq	r2,r3,1e8 <_start+0x30>

0:
    stw zero, (r2)
     1dc:	10000015 	stw	zero,0(r2)
    addi r2, r2, 4
     1e0:	10800104 	addi	r2,r2,4
    bltu r2, r3, 0b
     1e4:	10fffd36 	bltu	r2,r3,1dc <_start+0x24>
     * section aren't defined until alt_load() has been called).
     */
    mov   et, zero
#endif

    call alt_load
     1e8:	00035400 	call	3540 <alt_load>

    /* Log that alt_main is about to be called. */
    ALT_LOG_PUTS(alt_log_msg_alt_main)

    /* Call the C entry point. It should never return. */
    call alt_main
     1ec:	000362c0 	call	362c <alt_main>

000001f0 <alt_after_alt_main>:

    /* Wait in infinite loop in case alt_main does return. */
alt_after_alt_main:
    br alt_after_alt_main
     1f0:	003fff06 	br	1f0 <alt_after_alt_main>

000001f4 <PS2_ISR>:
 * value to the global variable key_pressed. If it is KEY3 then it loads the SW switch 
 * values and stores in the variable pattern
****************************************************************************************/

void PS2_ISR(struct alt_up_dev *up_dev, unsigned int id)
{
     1f4:	defffb04 	addi	sp,sp,-20
     1f8:	dfc00415 	stw	ra,16(sp)
     1fc:	df000315 	stw	fp,12(sp)
     200:	df000304 	addi	fp,sp,12
     204:	e13ffe15 	stw	r4,-8(fp)
     208:	e17fff15 	stw	r5,-4(fp)

	unsigned char PS2_data;


	/* check for PS/2 data--display on HEX displays */
	if (alt_up_ps2_read_data_byte (up_dev->PS2_dev, &PS2_data) == 0)
     20c:	e0bffe17 	ldw	r2,-8(fp)
     210:	11000317 	ldw	r4,12(r2)
     214:	e17ffd04 	addi	r5,fp,-12
     218:	00062800 	call	6280 <alt_up_ps2_read_data_byte>
     21c:	1004c03a 	cmpne	r2,r2,zero
     220:	1000411e 	bne	r2,zero,328 <PS2_ISR+0x134>
	{
		count++;
     224:	00800074 	movhi	r2,1
     228:	10808a04 	addi	r2,r2,552
     22c:	10800017 	ldw	r2,0(r2)
     230:	10c00044 	addi	r3,r2,1
     234:	00800074 	movhi	r2,1
     238:	10808a04 	addi	r2,r2,552
     23c:	10c00015 	stw	r3,0(r2)
		local_b1 = local_b2;
     240:	00800074 	movhi	r2,1
     244:	10808344 	addi	r2,r2,525
     248:	10c00003 	ldbu	r3,0(r2)
     24c:	00800074 	movhi	r2,1
     250:	10808384 	addi	r2,r2,526
     254:	10c00005 	stb	r3,0(r2)
		local_b2 = local_b3;
     258:	00800074 	movhi	r2,1
     25c:	10808c04 	addi	r2,r2,560
     260:	10c00003 	ldbu	r3,0(r2)
     264:	00800074 	movhi	r2,1
     268:	10808344 	addi	r2,r2,525
     26c:	10c00005 	stb	r3,0(r2)
		local_b3 = PS2_data;
     270:	e0fffd03 	ldbu	r3,-12(fp)
     274:	00800074 	movhi	r2,1
     278:	10808c04 	addi	r2,r2,560
     27c:	10c00005 	stb	r3,0(r2)
		if(count == 3){
     280:	00800074 	movhi	r2,1
     284:	10808a04 	addi	r2,r2,552
     288:	10800017 	ldw	r2,0(r2)
     28c:	108000d8 	cmpnei	r2,r2,3
     290:	1000151e 	bne	r2,zero,2e8 <PS2_ISR+0xf4>
			byte1 = local_b1;
     294:	00800074 	movhi	r2,1
     298:	10808384 	addi	r2,r2,526
     29c:	10c00003 	ldbu	r3,0(r2)
     2a0:	00800074 	movhi	r2,1
     2a4:	10808304 	addi	r2,r2,524
     2a8:	10c00005 	stb	r3,0(r2)
			byte2 = local_b2;
     2ac:	00800074 	movhi	r2,1
     2b0:	10808344 	addi	r2,r2,525
     2b4:	10c00003 	ldbu	r3,0(r2)
     2b8:	00800074 	movhi	r2,1
     2bc:	10808104 	addi	r2,r2,516
     2c0:	10c00005 	stb	r3,0(r2)
			byte3 = local_b3;
     2c4:	00800074 	movhi	r2,1
     2c8:	10808c04 	addi	r2,r2,560
     2cc:	10c00003 	ldbu	r3,0(r2)
     2d0:	00800074 	movhi	r2,1
     2d4:	10808144 	addi	r2,r2,517
     2d8:	10c00005 	stb	r3,0(r2)
			count = 0;
     2dc:	00800074 	movhi	r2,1
     2e0:	10808a04 	addi	r2,r2,552
     2e4:	10000015 	stw	zero,0(r2)
		}
		/* allows save the last three bytes of data */
//		byte1 = byte2;
//		byte2 = byte3;
//		byte3 = PS2_data;
		if ( (local_b2 == (unsigned char) 0xAA) && (local_b3 == (unsigned char) 0x00) )
     2e8:	00800074 	movhi	r2,1
     2ec:	10808344 	addi	r2,r2,525
     2f0:	10800003 	ldbu	r2,0(r2)
     2f4:	10803fcc 	andi	r2,r2,255
     2f8:	10802a98 	cmpnei	r2,r2,170
     2fc:	10000a1e 	bne	r2,zero,328 <PS2_ISR+0x134>
     300:	00800074 	movhi	r2,1
     304:	10808c04 	addi	r2,r2,560
     308:	10800003 	ldbu	r2,0(r2)
     30c:	10803fcc 	andi	r2,r2,255
     310:	1004c03a 	cmpne	r2,r2,zero
     314:	1000041e 	bne	r2,zero,328 <PS2_ISR+0x134>
			// mouse inserted; initialize sending of data
			(void) alt_up_ps2_write_data_byte (up_dev->PS2_dev, (unsigned char) 0xF4);
     318:	e0bffe17 	ldw	r2,-8(fp)
     31c:	11000317 	ldw	r4,12(r2)
     320:	01403d04 	movi	r5,244
     324:	000607c0 	call	607c <alt_up_ps2_write_data_byte>
	}

	return;
}
     328:	e037883a 	mov	sp,fp
     32c:	dfc00117 	ldw	ra,4(sp)
     330:	df000017 	ldw	fp,0(sp)
     334:	dec00204 	addi	sp,sp,8
     338:	f800283a 	ret

0000033c <amplitude_operation>:
#include "amplitude_calculation.h"


void amplitude_operation(int size, int num, int rbuff_addr, int lbuff_addr, int dest_addr)
{
     33c:	defffa04 	addi	sp,sp,-24
     340:	dfc00515 	stw	ra,20(sp)
     344:	df000415 	stw	fp,16(sp)
     348:	df000404 	addi	fp,sp,16
     34c:	e13ffc15 	stw	r4,-16(fp)
     350:	e17ffd15 	stw	r5,-12(fp)
     354:	e1bffe15 	stw	r6,-8(fp)
     358:	e1ffff15 	stw	r7,-4(fp)
	amplitude_circute_stop();
     35c:	00003ac0 	call	3ac <amplitude_circute_stop>
	amplitude_circute_set_size(size);
     360:	e13ffc17 	ldw	r4,-16(fp)
     364:	00004200 	call	420 <amplitude_circute_set_size>
	// also for your debugging make int amplitude_circute_get_size(); (optional)
	amplitude_circute_set_num(num);
     368:	e13ffd17 	ldw	r4,-12(fp)
     36c:	00004940 	call	494 <amplitude_circute_set_num>
	// also for your debugging make int amplitude_circute_get_num(); (optional)
	amplitude_circute_set_rbuff_addr(rbuff_addr);
     370:	e13ffe17 	ldw	r4,-8(fp)
     374:	00005080 	call	508 <amplitude_circute_set_rbuff_addr>
	// also for your debugging make int amplitude_circute_get_lbuff_addr(); (optional)
	amplitude_circute_set_lbuff_addr(lbuff_addr);
     378:	e13fff17 	ldw	r4,-4(fp)
     37c:	00005380 	call	538 <amplitude_circute_set_lbuff_addr>
	// also for your debugging make int amplitude_circute_get_rbuff_addr(); (optional)
	amplitude_circute_set_dest_addr(dest_addr);
     380:	e1000217 	ldw	r4,8(fp)
     384:	00005680 	call	568 <amplitude_circute_set_dest_addr>
	// also for your debugging make int amplitude_circute_get_dest_addr(); (optional)
	amplitude_circute_start();
     388:	00005980 	call	598 <amplitude_circute_start>
	while(amplitude_circute_get_status() == 0);
     38c:	00005cc0 	call	5cc <amplitude_circute_get_status>
     390:	1005003a 	cmpeq	r2,r2,zero
     394:	103ffd1e 	bne	r2,zero,38c <amplitude_operation+0x50>
	return;
}
     398:	e037883a 	mov	sp,fp
     39c:	dfc00117 	ldw	ra,4(sp)
     3a0:	df000017 	ldw	fp,0(sp)
     3a4:	dec00204 	addi	sp,sp,8
     3a8:	f800283a 	ret

000003ac <amplitude_circute_stop>:
int Base_Data = 0;
int Read_Data;
int Read_Reg0;
int Done_Bit;

void amplitude_circute_stop(){
     3ac:	deffff04 	addi	sp,sp,-4
     3b0:	df000015 	stw	fp,0(sp)
     3b4:	d839883a 	mov	fp,sp
	Read_Reg0 = IORD_ALT_UP_PARALLEL_PORT_DIRECTION(0x10004000);
     3b8:	00840034 	movhi	r2,4096
     3bc:	10900104 	addi	r2,r2,16388
     3c0:	10800037 	ldwio	r2,0(r2)
     3c4:	d0a82f15 	stw	r2,-24388(gp)
	Done_Bit = Read_Reg0 >> 31;
     3c8:	d0a82f17 	ldw	r2,-24388(gp)
     3cc:	1005d7fa 	srai	r2,r2,31
     3d0:	d0a83015 	stw	r2,-24384(gp)
	if(Done_Bit == 1){
     3d4:	d0a83017 	ldw	r2,-24384(gp)
     3d8:	10800058 	cmpnei	r2,r2,1
     3dc:	1000051e 	bne	r2,zero,3f4 <amplitude_circute_stop+0x48>
		IOWR_ALT_UP_PARALLEL_PORT_DIRECTION(0x10004000,Base_Data || 1 << 31);
     3e0:	00c40034 	movhi	r3,4096
     3e4:	18d00104 	addi	r3,r3,16388
     3e8:	00800044 	movi	r2,1
     3ec:	18800035 	stwio	r2,0(r3)
     3f0:	00000706 	br	410 <amplitude_circute_stop+0x64>
	}
	else if (Done_Bit == 0){
     3f4:	d0a83017 	ldw	r2,-24384(gp)
     3f8:	1004c03a 	cmpne	r2,r2,zero
     3fc:	1000041e 	bne	r2,zero,410 <amplitude_circute_stop+0x64>
		IOWR_ALT_UP_PARALLEL_PORT_DIRECTION(0x10004000,Base_Data);
     400:	d0e82d17 	ldw	r3,-24396(gp)
     404:	00840034 	movhi	r2,4096
     408:	10900104 	addi	r2,r2,16388
     40c:	10c00035 	stwio	r3,0(r2)
	}
}
     410:	e037883a 	mov	sp,fp
     414:	df000017 	ldw	fp,0(sp)
     418:	dec00104 	addi	sp,sp,4
     41c:	f800283a 	ret

00000420 <amplitude_circute_set_size>:

void amplitude_circute_set_size(int size){
     420:	defffd04 	addi	sp,sp,-12
     424:	df000215 	stw	fp,8(sp)
     428:	df000204 	addi	fp,sp,8
     42c:	e13ffe15 	stw	r4,-8(fp)
	Base_Data = size;
     430:	e0bffe17 	ldw	r2,-8(fp)
     434:	d0a82d15 	stw	r2,-24396(gp)
	Read_Reg0 = IORD_ALT_UP_PARALLEL_PORT_DIRECTION(0x10004000);
     438:	00840034 	movhi	r2,4096
     43c:	10900104 	addi	r2,r2,16388
     440:	10800037 	ldwio	r2,0(r2)
     444:	d0a82f15 	stw	r2,-24388(gp)
	IOWR_ALT_UP_PARALLEL_PORT_DIRECTION(0x10004000,Read_Reg0 || (Base_Data << 12));
     448:	d0a82f17 	ldw	r2,-24388(gp)
     44c:	1004c03a 	cmpne	r2,r2,zero
     450:	1000041e 	bne	r2,zero,464 <amplitude_circute_set_size+0x44>
     454:	d0a82d17 	ldw	r2,-24396(gp)
     458:	1004933a 	slli	r2,r2,12
     45c:	1005003a 	cmpeq	r2,r2,zero
     460:	1000031e 	bne	r2,zero,470 <amplitude_circute_set_size+0x50>
     464:	00800044 	movi	r2,1
     468:	e0bfff15 	stw	r2,-4(fp)
     46c:	00000106 	br	474 <amplitude_circute_set_size+0x54>
     470:	e03fff15 	stw	zero,-4(fp)
     474:	00840034 	movhi	r2,4096
     478:	10900104 	addi	r2,r2,16388
     47c:	e0ffff17 	ldw	r3,-4(fp)
     480:	10c00035 	stwio	r3,0(r2)
}
     484:	e037883a 	mov	sp,fp
     488:	df000017 	ldw	fp,0(sp)
     48c:	dec00104 	addi	sp,sp,4
     490:	f800283a 	ret

00000494 <amplitude_circute_set_num>:

void amplitude_circute_set_num(int num){
     494:	defffd04 	addi	sp,sp,-12
     498:	df000215 	stw	fp,8(sp)
     49c:	df000204 	addi	fp,sp,8
     4a0:	e13ffe15 	stw	r4,-8(fp)
	Base_Data = num;
     4a4:	e0bffe17 	ldw	r2,-8(fp)
     4a8:	d0a82d15 	stw	r2,-24396(gp)
	Read_Reg0 = IORD_ALT_UP_PARALLEL_PORT_DIRECTION(0x10004000);
     4ac:	00840034 	movhi	r2,4096
     4b0:	10900104 	addi	r2,r2,16388
     4b4:	10800037 	ldwio	r2,0(r2)
     4b8:	d0a82f15 	stw	r2,-24388(gp)
	IOWR_ALT_UP_PARALLEL_PORT_DIRECTION(0x10004000,Read_Reg0 || (Base_Data << 1));
     4bc:	d0a82f17 	ldw	r2,-24388(gp)
     4c0:	1004c03a 	cmpne	r2,r2,zero
     4c4:	1000041e 	bne	r2,zero,4d8 <amplitude_circute_set_num+0x44>
     4c8:	d0a82d17 	ldw	r2,-24396(gp)
     4cc:	1085883a 	add	r2,r2,r2
     4d0:	1005003a 	cmpeq	r2,r2,zero
     4d4:	1000031e 	bne	r2,zero,4e4 <amplitude_circute_set_num+0x50>
     4d8:	00800044 	movi	r2,1
     4dc:	e0bfff15 	stw	r2,-4(fp)
     4e0:	00000106 	br	4e8 <amplitude_circute_set_num+0x54>
     4e4:	e03fff15 	stw	zero,-4(fp)
     4e8:	00840034 	movhi	r2,4096
     4ec:	10900104 	addi	r2,r2,16388
     4f0:	e0ffff17 	ldw	r3,-4(fp)
     4f4:	10c00035 	stwio	r3,0(r2)
}
     4f8:	e037883a 	mov	sp,fp
     4fc:	df000017 	ldw	fp,0(sp)
     500:	dec00104 	addi	sp,sp,4
     504:	f800283a 	ret

00000508 <amplitude_circute_set_rbuff_addr>:

void amplitude_circute_set_rbuff_addr(int Right_Address){
     508:	defffe04 	addi	sp,sp,-8
     50c:	df000115 	stw	fp,4(sp)
     510:	df000104 	addi	fp,sp,4
     514:	e13fff15 	stw	r4,-4(fp)
	IOWR_ALT_UP_PARALLEL_PORT_DIRECTION(0x10004004, Right_Address);
     518:	00c40034 	movhi	r3,4096
     51c:	18d00204 	addi	r3,r3,16392
     520:	e0bfff17 	ldw	r2,-4(fp)
     524:	18800035 	stwio	r2,0(r3)
}
     528:	e037883a 	mov	sp,fp
     52c:	df000017 	ldw	fp,0(sp)
     530:	dec00104 	addi	sp,sp,4
     534:	f800283a 	ret

00000538 <amplitude_circute_set_lbuff_addr>:

void amplitude_circute_set_lbuff_addr(int Left_Address){
     538:	defffe04 	addi	sp,sp,-8
     53c:	df000115 	stw	fp,4(sp)
     540:	df000104 	addi	fp,sp,4
     544:	e13fff15 	stw	r4,-4(fp)
	IOWR_ALT_UP_PARALLEL_PORT_DIRECTION(0x10004008, Left_Address);
     548:	00c40034 	movhi	r3,4096
     54c:	18d00304 	addi	r3,r3,16396
     550:	e0bfff17 	ldw	r2,-4(fp)
     554:	18800035 	stwio	r2,0(r3)
}
     558:	e037883a 	mov	sp,fp
     55c:	df000017 	ldw	fp,0(sp)
     560:	dec00104 	addi	sp,sp,4
     564:	f800283a 	ret

00000568 <amplitude_circute_set_dest_addr>:

void amplitude_circute_set_dest_addr(int Dest_Address){
     568:	defffe04 	addi	sp,sp,-8
     56c:	df000115 	stw	fp,4(sp)
     570:	df000104 	addi	fp,sp,4
     574:	e13fff15 	stw	r4,-4(fp)
	IOWR_ALT_UP_PARALLEL_PORT_DIRECTION(0x10004012, Dest_Address);
     578:	00c40034 	movhi	r3,4096
     57c:	18d00584 	addi	r3,r3,16406
     580:	e0bfff17 	ldw	r2,-4(fp)
     584:	18800035 	stwio	r2,0(r3)
}
     588:	e037883a 	mov	sp,fp
     58c:	df000017 	ldw	fp,0(sp)
     590:	dec00104 	addi	sp,sp,4
     594:	f800283a 	ret

00000598 <amplitude_circute_start>:

void amplitude_circute_start(){
     598:	deffff04 	addi	sp,sp,-4
     59c:	df000015 	stw	fp,0(sp)
     5a0:	d839883a 	mov	fp,sp
	Base_Data = 1;
     5a4:	00800044 	movi	r2,1
     5a8:	d0a82d15 	stw	r2,-24396(gp)
	IOWR_ALT_UP_PARALLEL_PORT_DIRECTION(0x10004000,Base_Data);
     5ac:	d0e82d17 	ldw	r3,-24396(gp)
     5b0:	00840034 	movhi	r2,4096
     5b4:	10900104 	addi	r2,r2,16388
     5b8:	10c00035 	stwio	r3,0(r2)
}
     5bc:	e037883a 	mov	sp,fp
     5c0:	df000017 	ldw	fp,0(sp)
     5c4:	dec00104 	addi	sp,sp,4
     5c8:	f800283a 	ret

000005cc <amplitude_circute_get_status>:

int amplitude_circute_get_status(){
     5cc:	defffe04 	addi	sp,sp,-8
     5d0:	df000115 	stw	fp,4(sp)
     5d4:	df000104 	addi	fp,sp,4
	Read_Reg0 = IORD_ALT_UP_PARALLEL_PORT_DIRECTION(0x10004000);
     5d8:	00840034 	movhi	r2,4096
     5dc:	10900104 	addi	r2,r2,16388
     5e0:	10800037 	ldwio	r2,0(r2)
     5e4:	d0a82f15 	stw	r2,-24388(gp)
	Done_Bit = Read_Reg0 >> 31;
     5e8:	d0a82f17 	ldw	r2,-24388(gp)
     5ec:	1005d7fa 	srai	r2,r2,31
     5f0:	d0a83015 	stw	r2,-24384(gp)
	if(Done_Bit == 1){
     5f4:	d0a83017 	ldw	r2,-24384(gp)
     5f8:	10800058 	cmpnei	r2,r2,1
     5fc:	1000021e 	bne	r2,zero,608 <amplitude_circute_get_status+0x3c>
		return 0;
     600:	e03fff15 	stw	zero,-4(fp)
     604:	00000806 	br	628 <amplitude_circute_get_status+0x5c>
	}
	if(Done_Bit == 0){
     608:	d0a83017 	ldw	r2,-24384(gp)
     60c:	1004c03a 	cmpne	r2,r2,zero
     610:	1000031e 	bne	r2,zero,620 <amplitude_circute_get_status+0x54>
		return 1;
     614:	00800044 	movi	r2,1
     618:	e0bfff15 	stw	r2,-4(fp)
     61c:	00000206 	br	628 <amplitude_circute_get_status+0x5c>
	}
	return 2;
     620:	00800084 	movi	r2,2
     624:	e0bfff15 	stw	r2,-4(fp)
     628:	e0bfff17 	ldw	r2,-4(fp)
}
     62c:	e037883a 	mov	sp,fp
     630:	df000017 	ldw	fp,0(sp)
     634:	dec00104 	addi	sp,sp,4
     638:	f800283a 	ret

0000063c <audio_ISR>:
 *                                                                          
 * This interrupt service routine records or plays back audio, depending on which type
 * interrupt (read or write) is pending in the audio device.
****************************************************************************************/
void audio_ISR(struct alt_up_dev *up_dev, unsigned int id)
{
     63c:	defff904 	addi	sp,sp,-28
     640:	dfc00615 	stw	ra,24(sp)
     644:	df000515 	stw	fp,20(sp)
     648:	df000504 	addi	fp,sp,20
     64c:	e13ffe15 	stw	r4,-8(fp)
     650:	e17fff15 	stw	r5,-4(fp)
	int num_read; int num_written;

	unsigned int fifospace;
		
	if (alt_up_audio_read_interrupt_pending(up_dev->audio_dev))	// check for read interrupt
     654:	e0bffe17 	ldw	r2,-8(fp)
     658:	11000517 	ldw	r4,20(r2)
     65c:	0004ab80 	call	4ab8 <alt_up_audio_read_interrupt_pending>
     660:	1005003a 	cmpeq	r2,r2,zero
     664:	10004a1e 	bne	r2,zero,790 <audio_ISR+0x154>
	{
		alt_up_parallel_port_write_data (up_dev->green_LEDs_dev, 0x1); // set LEDG[0] on
     668:	e0bffe17 	ldw	r2,-8(fp)
     66c:	10800117 	ldw	r2,4(r2)
     670:	10800a17 	ldw	r2,40(r2)
     674:	1007883a 	mov	r3,r2
     678:	00800044 	movi	r2,1
     67c:	18800035 	stwio	r2,0(r3)
		Echo_End = 0;
     680:	00800074 	movhi	r2,1
     684:	10808404 	addi	r2,r2,528
     688:	10000015 	stw	zero,0(r2)

		// store data until the buffer is full
		if (buf_index_record < BUF_SIZE)
     68c:	00800074 	movhi	r2,1
     690:	10808d04 	addi	r2,r2,564
     694:	10c00017 	ldw	r3,0(r2)
     698:	00800234 	movhi	r2,8
     69c:	10a847c4 	addi	r2,r2,-24289
     6a0:	10c03b16 	blt	r2,r3,790 <audio_ISR+0x154>
		{
			num_read = alt_up_audio_record_r (up_dev->audio_dev, &(r_buf[buf_index_record]), 
     6a4:	e0bffe17 	ldw	r2,-8(fp)
     6a8:	11000517 	ldw	r4,20(r2)
     6ac:	00800074 	movhi	r2,1
     6b0:	10808d04 	addi	r2,r2,564
     6b4:	10800017 	ldw	r2,0(r2)
     6b8:	1085883a 	add	r2,r2,r2
     6bc:	1085883a 	add	r2,r2,r2
     6c0:	1007883a 	mov	r3,r2
     6c4:	00800834 	movhi	r2,32
     6c8:	10a1da04 	addi	r2,r2,-30872
     6cc:	1885883a 	add	r2,r3,r2
     6d0:	100b883a 	mov	r5,r2
     6d4:	00800074 	movhi	r2,1
     6d8:	10808d04 	addi	r2,r2,564
     6dc:	10c00017 	ldw	r3,0(r2)
     6e0:	00800234 	movhi	r2,8
     6e4:	10a84804 	addi	r2,r2,-24288
     6e8:	10cdc83a 	sub	r6,r2,r3
     6ec:	0004c280 	call	4c28 <alt_up_audio_record_r>
     6f0:	e0bffd15 	stw	r2,-12(fp)
				BUF_SIZE - buf_index_record);
//			Temp_r_buf[buf_index_record] = r_buf[buf_index_record];
			/* assume we can read same # words from the left and right */
			(void) alt_up_audio_record_l (up_dev->audio_dev, &(l_buf[buf_index_record]), 
     6f4:	e0bffe17 	ldw	r2,-8(fp)
     6f8:	11000517 	ldw	r4,20(r2)
     6fc:	00800074 	movhi	r2,1
     700:	10808d04 	addi	r2,r2,564
     704:	10800017 	ldw	r2,0(r2)
     708:	1085883a 	add	r2,r2,r2
     70c:	1085883a 	add	r2,r2,r2
     710:	1007883a 	mov	r3,r2
     714:	00801774 	movhi	r2,93
     718:	10a41a04 	addi	r2,r2,-28568
     71c:	1885883a 	add	r2,r3,r2
     720:	100b883a 	mov	r5,r2
     724:	e1bffd17 	ldw	r6,-12(fp)
     728:	0004c980 	call	4c98 <alt_up_audio_record_l>
				num_read);
//			Temp_l_buf[buf_index_record] = l_buf[buf_index_record];
			buf_index_record += num_read;
     72c:	00800074 	movhi	r2,1
     730:	10808d04 	addi	r2,r2,564
     734:	10c00017 	ldw	r3,0(r2)
     738:	e0bffd17 	ldw	r2,-12(fp)
     73c:	1887883a 	add	r3,r3,r2
     740:	00800074 	movhi	r2,1
     744:	10808d04 	addi	r2,r2,564
     748:	10c00015 	stw	r3,0(r2)

			if (buf_index_record == BUF_SIZE)
     74c:	00800074 	movhi	r2,1
     750:	10808d04 	addi	r2,r2,564
     754:	10c00017 	ldw	r3,0(r2)
     758:	00800234 	movhi	r2,8
     75c:	10a84804 	addi	r2,r2,-24288
     760:	18800b1e 	bne	r3,r2,790 <audio_ISR+0x154>
			{
				// done recording
				End_Record = 1;
     764:	00c00074 	movhi	r3,1
     768:	18c08804 	addi	r3,r3,544
     76c:	00800044 	movi	r2,1
     770:	18800015 	stw	r2,0(r3)
				alt_up_parallel_port_write_data (up_dev->green_LEDs_dev, 0); // turn off LEDG
     774:	e0bffe17 	ldw	r2,-8(fp)
     778:	10800117 	ldw	r2,4(r2)
     77c:	10800a17 	ldw	r2,40(r2)
     780:	10000035 	stwio	zero,0(r2)
				alt_up_audio_disable_read_interrupt(up_dev->audio_dev);
     784:	e0bffe17 	ldw	r2,-8(fp)
     788:	11000517 	ldw	r4,20(r2)
     78c:	00049cc0 	call	49cc <alt_up_audio_disable_read_interrupt>
			}
		}
	}
	if (alt_up_audio_write_interrupt_pending(up_dev->audio_dev))	// check for write interrupt
     790:	e0bffe17 	ldw	r2,-8(fp)
     794:	11000517 	ldw	r4,20(r2)
     798:	0004af40 	call	4af4 <alt_up_audio_write_interrupt_pending>
     79c:	1005003a 	cmpeq	r2,r2,zero
     7a0:	1000af1e 	bne	r2,zero,a60 <audio_ISR+0x424>
	{

		// output data until the buffer is empty //Echo
		if (buf_index_play < BUF_SIZE && Echo_complete == 1 && Click_Echo == 1)
     7a4:	00800074 	movhi	r2,1
     7a8:	10808b04 	addi	r2,r2,556
     7ac:	10c00017 	ldw	r3,0(r2)
     7b0:	00800234 	movhi	r2,8
     7b4:	10a847c4 	addi	r2,r2,-24289
     7b8:	10c04816 	blt	r2,r3,8dc <audio_ISR+0x2a0>
     7bc:	00800074 	movhi	r2,1
     7c0:	10808504 	addi	r2,r2,532
     7c4:	10800017 	ldw	r2,0(r2)
     7c8:	10800058 	cmpnei	r2,r2,1
     7cc:	1000431e 	bne	r2,zero,8dc <audio_ISR+0x2a0>
     7d0:	00800074 	movhi	r2,1
     7d4:	10808e04 	addi	r2,r2,568
     7d8:	10800017 	ldw	r2,0(r2)
     7dc:	10800058 	cmpnei	r2,r2,1
     7e0:	10003e1e 	bne	r2,zero,8dc <audio_ISR+0x2a0>
		{
			alt_up_parallel_port_write_data (up_dev->green_LEDs_dev, 0x4); // set LEDG[1] on
     7e4:	e0bffe17 	ldw	r2,-8(fp)
     7e8:	10800117 	ldw	r2,4(r2)
     7ec:	10800a17 	ldw	r2,40(r2)
     7f0:	1007883a 	mov	r3,r2
     7f4:	00800104 	movi	r2,4
     7f8:	18800035 	stwio	r2,0(r3)
				num_written = alt_up_audio_play_r (up_dev->audio_dev, &(Echo_buf_r[buf_index_play]),
     7fc:	e0bffe17 	ldw	r2,-8(fp)
     800:	11000517 	ldw	r4,20(r2)
     804:	00800074 	movhi	r2,1
     808:	10808b04 	addi	r2,r2,556
     80c:	10800017 	ldw	r2,0(r2)
     810:	1085883a 	add	r2,r2,r2
     814:	1085883a 	add	r2,r2,r2
     818:	1007883a 	mov	r3,r2
     81c:	00800fb4 	movhi	r2,62
     820:	1082fa04 	addi	r2,r2,3048
     824:	1885883a 	add	r2,r3,r2
     828:	100b883a 	mov	r5,r2
     82c:	00800074 	movhi	r2,1
     830:	10808b04 	addi	r2,r2,556
     834:	10c00017 	ldw	r3,0(r2)
     838:	00800234 	movhi	r2,8
     83c:	10a84804 	addi	r2,r2,-24288
     840:	10cdc83a 	sub	r6,r2,r3
     844:	0004d7c0 	call	4d7c <alt_up_audio_play_r>
     848:	e0bffc15 	stw	r2,-16(fp)
					BUF_SIZE - buf_index_play);
				/* assume that we can write the same # words to the left and right */
				(void) alt_up_audio_play_l (up_dev->audio_dev, &(Echo_buf_l[buf_index_play]),
     84c:	e0bffe17 	ldw	r2,-8(fp)
     850:	11000517 	ldw	r4,20(r2)
     854:	00800074 	movhi	r2,1
     858:	10808b04 	addi	r2,r2,556
     85c:	10800017 	ldw	r2,0(r2)
     860:	1085883a 	add	r2,r2,r2
     864:	1085883a 	add	r2,r2,r2
     868:	1007883a 	mov	r3,r2
     86c:	00800074 	movhi	r2,1
     870:	1080ba04 	addi	r2,r2,744
     874:	1885883a 	add	r2,r3,r2
     878:	100b883a 	mov	r5,r2
     87c:	e1bffc17 	ldw	r6,-16(fp)
     880:	0004dec0 	call	4dec <alt_up_audio_play_l>
					num_written);
				buf_index_play += num_written;
     884:	00800074 	movhi	r2,1
     888:	10808b04 	addi	r2,r2,556
     88c:	10c00017 	ldw	r3,0(r2)
     890:	e0bffc17 	ldw	r2,-16(fp)
     894:	1887883a 	add	r3,r3,r2
     898:	00800074 	movhi	r2,1
     89c:	10808b04 	addi	r2,r2,556
     8a0:	10c00015 	stw	r3,0(r2)

				if (buf_index_play >= BUF_SIZE)
     8a4:	00800074 	movhi	r2,1
     8a8:	10808b04 	addi	r2,r2,556
     8ac:	10c00017 	ldw	r3,0(r2)
     8b0:	00800234 	movhi	r2,8
     8b4:	10a847c4 	addi	r2,r2,-24289
     8b8:	10c0690e 	bge	r2,r3,a60 <audio_ISR+0x424>
				{
					// done playback
					alt_up_parallel_port_write_data (up_dev->green_LEDs_dev, 0); // turn off LEDG
     8bc:	e0bffe17 	ldw	r2,-8(fp)
     8c0:	10800117 	ldw	r2,4(r2)
     8c4:	10800a17 	ldw	r2,40(r2)
     8c8:	10000035 	stwio	zero,0(r2)
					alt_up_audio_disable_write_interrupt(up_dev->audio_dev);
     8cc:	e0bffe17 	ldw	r2,-8(fp)
     8d0:	11000517 	ldw	r4,20(r2)
     8d4:	0004a680 	call	4a68 <alt_up_audio_disable_write_interrupt>
	}
	if (alt_up_audio_write_interrupt_pending(up_dev->audio_dev))	// check for write interrupt
	{

		// output data until the buffer is empty //Echo
		if (buf_index_play < BUF_SIZE && Echo_complete == 1 && Click_Echo == 1)
     8d8:	00006106 	br	a60 <audio_ISR+0x424>
					alt_up_audio_disable_write_interrupt(up_dev->audio_dev);
				}
		}

		// output data until the buffer is empty //Play
		else if (buf_index_play < BUF_SIZE && Click_Echo == 0)
     8dc:	00800074 	movhi	r2,1
     8e0:	10808b04 	addi	r2,r2,556
     8e4:	10c00017 	ldw	r3,0(r2)
     8e8:	00800234 	movhi	r2,8
     8ec:	10a847c4 	addi	r2,r2,-24289
     8f0:	10c05216 	blt	r2,r3,a3c <audio_ISR+0x400>
     8f4:	00800074 	movhi	r2,1
     8f8:	10808e04 	addi	r2,r2,568
     8fc:	10800017 	ldw	r2,0(r2)
     900:	1004c03a 	cmpne	r2,r2,zero
     904:	10004d1e 	bne	r2,zero,a3c <audio_ISR+0x400>
		{

			alt_up_parallel_port_write_data (up_dev->green_LEDs_dev, 0x2); // set LEDG[2] on
     908:	e0bffe17 	ldw	r2,-8(fp)
     90c:	10800117 	ldw	r2,4(r2)
     910:	10800a17 	ldw	r2,40(r2)
     914:	1007883a 	mov	r3,r2
     918:	00800084 	movi	r2,2
     91c:	18800035 	stwio	r2,0(r3)
			num_written = alt_up_audio_play_r (up_dev->audio_dev, &(r_buf[buf_index_play]), 
     920:	e0bffe17 	ldw	r2,-8(fp)
     924:	11000517 	ldw	r4,20(r2)
     928:	00800074 	movhi	r2,1
     92c:	10808b04 	addi	r2,r2,556
     930:	10800017 	ldw	r2,0(r2)
     934:	1085883a 	add	r2,r2,r2
     938:	1085883a 	add	r2,r2,r2
     93c:	1007883a 	mov	r3,r2
     940:	00800834 	movhi	r2,32
     944:	10a1da04 	addi	r2,r2,-30872
     948:	1885883a 	add	r2,r3,r2
     94c:	100b883a 	mov	r5,r2
     950:	00800074 	movhi	r2,1
     954:	10808b04 	addi	r2,r2,556
     958:	10c00017 	ldw	r3,0(r2)
     95c:	00800234 	movhi	r2,8
     960:	10a84804 	addi	r2,r2,-24288
     964:	10cdc83a 	sub	r6,r2,r3
     968:	0004d7c0 	call	4d7c <alt_up_audio_play_r>
     96c:	e0bffc15 	stw	r2,-16(fp)
			 	BUF_SIZE - buf_index_play);
			/* assume that we can write the same # words to the left and right */
			(void) alt_up_audio_play_l (up_dev->audio_dev, &(l_buf[buf_index_play]), 
     970:	e0bffe17 	ldw	r2,-8(fp)
     974:	11000517 	ldw	r4,20(r2)
     978:	00800074 	movhi	r2,1
     97c:	10808b04 	addi	r2,r2,556
     980:	10800017 	ldw	r2,0(r2)
     984:	1085883a 	add	r2,r2,r2
     988:	1085883a 	add	r2,r2,r2
     98c:	1007883a 	mov	r3,r2
     990:	00801774 	movhi	r2,93
     994:	10a41a04 	addi	r2,r2,-28568
     998:	1885883a 	add	r2,r3,r2
     99c:	100b883a 	mov	r5,r2
     9a0:	e1bffc17 	ldw	r6,-16(fp)
     9a4:	0004dec0 	call	4dec <alt_up_audio_play_l>
				num_written);
			buf_index_play += num_written;
     9a8:	00800074 	movhi	r2,1
     9ac:	10808b04 	addi	r2,r2,556
     9b0:	10c00017 	ldw	r3,0(r2)
     9b4:	e0bffc17 	ldw	r2,-16(fp)
     9b8:	1887883a 	add	r3,r3,r2
     9bc:	00800074 	movhi	r2,1
     9c0:	10808b04 	addi	r2,r2,556
     9c4:	10c00015 	stw	r3,0(r2)

			if(buf_index_play >= ((BUF_SIZE / N)*Play_Index)){
     9c8:	00800074 	movhi	r2,1
     9cc:	10808204 	addi	r2,r2,520
     9d0:	10800017 	ldw	r2,0(r2)
     9d4:	10d046a4 	muli	r3,r2,16666
     9d8:	00800074 	movhi	r2,1
     9dc:	10808b04 	addi	r2,r2,556
     9e0:	10800017 	ldw	r2,0(r2)
     9e4:	10c00416 	blt	r2,r3,9f8 <audio_ISR+0x3bc>
				Play_Flag = 1;
     9e8:	00c00074 	movhi	r3,1
     9ec:	18c08604 	addi	r3,r3,536
     9f0:	00800044 	movi	r2,1
     9f4:	18800015 	stw	r2,0(r3)
			}
	
			if (buf_index_play >= BUF_SIZE)
     9f8:	00800074 	movhi	r2,1
     9fc:	10808b04 	addi	r2,r2,556
     a00:	10c00017 	ldw	r3,0(r2)
     a04:	00800234 	movhi	r2,8
     a08:	10a847c4 	addi	r2,r2,-24289
     a0c:	10c0140e 	bge	r2,r3,a60 <audio_ISR+0x424>
			{
				// done playback
				Play_Index = 0;
     a10:	00800074 	movhi	r2,1
     a14:	10808204 	addi	r2,r2,520
     a18:	10000015 	stw	zero,0(r2)
				alt_up_parallel_port_write_data (up_dev->green_LEDs_dev, 0); // turn off LEDG
     a1c:	e0bffe17 	ldw	r2,-8(fp)
     a20:	10800117 	ldw	r2,4(r2)
     a24:	10800a17 	ldw	r2,40(r2)
     a28:	10000035 	stwio	zero,0(r2)
				alt_up_audio_disable_write_interrupt(up_dev->audio_dev);
     a2c:	e0bffe17 	ldw	r2,-8(fp)
     a30:	11000517 	ldw	r4,20(r2)
     a34:	0004a680 	call	4a68 <alt_up_audio_disable_write_interrupt>
					alt_up_audio_disable_write_interrupt(up_dev->audio_dev);
				}
		}

		// output data until the buffer is empty //Play
		else if (buf_index_play < BUF_SIZE && Click_Echo == 0)
     a38:	00000906 	br	a60 <audio_ISR+0x424>
				alt_up_parallel_port_write_data (up_dev->green_LEDs_dev, 0); // turn off LEDG
				alt_up_audio_disable_write_interrupt(up_dev->audio_dev);
			}
		}
		else {
			alt_up_parallel_port_write_data (up_dev->green_LEDs_dev, 0x80); //  LEDG
     a3c:	e0bffe17 	ldw	r2,-8(fp)
     a40:	10800117 	ldw	r2,4(r2)
     a44:	10800a17 	ldw	r2,40(r2)
     a48:	1007883a 	mov	r3,r2
     a4c:	00802004 	movi	r2,128
     a50:	18800035 	stwio	r2,0(r3)
			alt_up_audio_disable_write_interrupt(up_dev->audio_dev);
     a54:	e0bffe17 	ldw	r2,-8(fp)
     a58:	11000517 	ldw	r4,20(r2)
     a5c:	0004a680 	call	4a68 <alt_up_audio_disable_write_interrupt>
		}

	}
	return;
}
     a60:	e037883a 	mov	sp,fp
     a64:	dfc00117 	ldw	ra,4(sp)
     a68:	df000017 	ldw	fp,0(sp)
     a6c:	dec00204 	addi	sp,sp,8
     a70:	f800283a 	ret

00000a74 <interval_timer_ISR>:
 * Shifts a PATTERN being displayed on the LCD character display. The shift 
 * direction is determined by the external variable KEY_PRESSED.
 * 
******************************************************************************/
void interval_timer_ISR(struct alt_up_dev *up_dev, unsigned int id)
{
     a74:	defffb04 	addi	sp,sp,-20
     a78:	dfc00415 	stw	ra,16(sp)
     a7c:	df000315 	stw	fp,12(sp)
     a80:	df000304 	addi	fp,sp,12
     a84:	e13ffe15 	stw	r4,-8(fp)
     a88:	e17fff15 	stw	r5,-4(fp)
	volatile int *interval_timer_ptr = (int *) 0x10002000;
     a8c:	00840034 	movhi	r2,4096
     a90:	10880004 	addi	r2,r2,8192
     a94:	e0bffd15 	stw	r2,-12(fp)

	*(interval_timer_ptr) = 0; 										// clear the interrupt
     a98:	e0bffd17 	ldw	r2,-12(fp)
     a9c:	10000015 	stw	zero,0(r2)
	timeout = 1;															// set global variable
     aa0:	00c00074 	movhi	r3,1
     aa4:	18c08904 	addi	r3,r3,548
     aa8:	00800044 	movi	r2,1
     aac:	18800015 	stw	r2,0(r3)

	/* shift the LCD display to the left */
	alt_up_character_lcd_shift_display (up_dev->lcd_dev, -1);
     ab0:	e0bffe17 	ldw	r2,-8(fp)
     ab4:	11000417 	ldw	r4,16(r2)
     ab8:	017fffc4 	movi	r5,-1
     abc:	00054d40 	call	54d4 <alt_up_character_lcd_shift_display>

	return;
}
     ac0:	e037883a 	mov	sp,fp
     ac4:	dfc00117 	ldw	ra,4(sp)
     ac8:	df000017 	ldw	fp,0(sp)
     acc:	dec00204 	addi	sp,sp,8
     ad0:	f800283a 	ret

00000ad4 <main>:
 * 	   interrupts
 * 	6. The speed of scrolling the LCD display and of refreshing the VGA screen
 * 	   are controlled by interrupts from the interval timer
********************************************************************************/
int main(void)
{
     ad4:	deffb804 	addi	sp,sp,-288
     ad8:	dfc04715 	stw	ra,284(sp)
     adc:	df004615 	stw	fp,280(sp)
     ae0:	df004604 	addi	fp,sp,280
	alt_up_character_lcd_dev *lcd_dev;
	alt_up_audio_dev *audio_dev;
	alt_up_char_buffer_dev *char_buffer_dev;
	alt_up_pixel_buffer_dma_dev *pixel_buffer_dev;
	/* declare volatile pointer for interval timer, which does not have HAL functions */
	volatile int * interval_timer_ptr = (int *) 0x10002000;	// interal timer base address
     ae4:	00840034 	movhi	r2,4096
     ae8:	10880004 	addi	r2,r2,8192
     aec:	e0bfce15 	stw	r2,-200(fp)

	/* initialize some variables */
	byte1 = 0; byte2 = 0; byte3 = 0; 			// used to hold PS/2 data
     af0:	00800074 	movhi	r2,1
     af4:	10808304 	addi	r2,r2,524
     af8:	10000005 	stb	zero,0(r2)
     afc:	00800074 	movhi	r2,1
     b00:	10808104 	addi	r2,r2,516
     b04:	10000005 	stb	zero,0(r2)
     b08:	00800074 	movhi	r2,1
     b0c:	10808144 	addi	r2,r2,517
     b10:	10000005 	stb	zero,0(r2)
	count = 0;
     b14:	00800074 	movhi	r2,1
     b18:	10808a04 	addi	r2,r2,552
     b1c:	10000015 	stw	zero,0(r2)
	timeout = 0;										// synchronize with the timer
     b20:	00800074 	movhi	r2,1
     b24:	10808904 	addi	r2,r2,548
     b28:	10000015 	stw	zero,0(r2)
	int blue_x1; int blue_y1; int blue_x2; int blue_y2; 
	int screen_x; int screen_y; int char_buffer_x; int char_buffer_y;
	short color;

	/* set the interval timer period for scrolling the HEX displays */
	int counter = 0x960000;				// 1/(50 MHz) x (0x960000) ~= 200 msec
     b2c:	008025b4 	movhi	r2,150
     b30:	e0bfc015 	stw	r2,-256(fp)
	*(interval_timer_ptr + 0x2) = (counter & 0xFFFF);
     b34:	e0bfce17 	ldw	r2,-200(fp)
     b38:	10c00204 	addi	r3,r2,8
     b3c:	e0bfc017 	ldw	r2,-256(fp)
     b40:	10bfffcc 	andi	r2,r2,65535
     b44:	18800015 	stw	r2,0(r3)
	*(interval_timer_ptr + 0x3) = (counter >> 16) & 0xFFFF;
     b48:	e0bfce17 	ldw	r2,-200(fp)
     b4c:	10c00304 	addi	r3,r2,12
     b50:	e0bfc017 	ldw	r2,-256(fp)
     b54:	1005d43a 	srai	r2,r2,16
     b58:	10bfffcc 	andi	r2,r2,65535
     b5c:	18800015 	stw	r2,0(r3)

	/* start interval timer, enable its interrupts */
	*(interval_timer_ptr + 1) = 0x7;	// STOP = 0, START = 1, CONT = 1, ITO = 1 
     b60:	e0bfce17 	ldw	r2,-200(fp)
     b64:	10c00104 	addi	r3,r2,4
     b68:	008001c4 	movi	r2,7
     b6c:	18800015 	stw	r2,0(r3)
	
	// open the pushbuttom KEY parallel port
	KEY_dev = alt_up_parallel_port_open_dev ("/dev/Pushbuttons");
     b70:	01000074 	movhi	r4,1
     b74:	212eb404 	addi	r4,r4,-17712
     b78:	0005d980 	call	5d98 <alt_up_parallel_port_open_dev>
     b7c:	e0bfd615 	stw	r2,-168(fp)
	if ( KEY_dev == NULL)
     b80:	e0bfd617 	ldw	r2,-168(fp)
     b84:	1004c03a 	cmpne	r2,r2,zero
     b88:	1000061e 	bne	r2,zero,ba4 <main+0xd0>
	{
		alt_printf ("Error: could not open pushbutton KEY device\n");
     b8c:	01000074 	movhi	r4,1
     b90:	212eb904 	addi	r4,r4,-17692
     b94:	00036980 	call	3698 <alt_printf>
		return -1;
     b98:	00bfffc4 	movi	r2,-1
     b9c:	e0bfff15 	stw	r2,-4(fp)
     ba0:	00047406 	br	1d74 <main+0x12a0>
	}
	else
	{
		alt_printf ("Opened pushbutton KEY device\n");
     ba4:	01000074 	movhi	r4,1
     ba8:	212ec504 	addi	r4,r4,-17644
     bac:	00036980 	call	3698 <alt_printf>
		up_dev.KEY_dev = KEY_dev;	// store for use by ISRs
     bb0:	00c00074 	movhi	r3,1
     bb4:	18c0b204 	addi	r3,r3,712
     bb8:	e0bfd617 	ldw	r2,-168(fp)
     bbc:	18800015 	stw	r2,0(r3)
	}
	/* write to the pushbutton interrupt mask register, and set 3 mask bits to 1 
	 * (bit 0 is Nios II reset) */
	alt_up_parallel_port_set_interrupt_mask (KEY_dev, 0xE);
     bc0:	e0bfd617 	ldw	r2,-168(fp)
     bc4:	10800a17 	ldw	r2,40(r2)
     bc8:	10800204 	addi	r2,r2,8
     bcc:	1007883a 	mov	r3,r2
     bd0:	00800384 	movi	r2,14
     bd4:	18800035 	stwio	r2,0(r3)

	// open the green LEDs parallel port
	green_LEDs_dev = alt_up_parallel_port_open_dev ("/dev/Green_LEDs");
     bd8:	01000074 	movhi	r4,1
     bdc:	212ecd04 	addi	r4,r4,-17612
     be0:	0005d980 	call	5d98 <alt_up_parallel_port_open_dev>
     be4:	e0bfd515 	stw	r2,-172(fp)
	if ( green_LEDs_dev == NULL)
     be8:	e0bfd517 	ldw	r2,-172(fp)
     bec:	1004c03a 	cmpne	r2,r2,zero
     bf0:	1000061e 	bne	r2,zero,c0c <main+0x138>
	{
		alt_printf ("Error: could not open green LEDs device\n");
     bf4:	01000074 	movhi	r4,1
     bf8:	212ed104 	addi	r4,r4,-17596
     bfc:	00036980 	call	3698 <alt_printf>
		return -1;
     c00:	00bfffc4 	movi	r2,-1
     c04:	e0bfff15 	stw	r2,-4(fp)
     c08:	00045a06 	br	1d74 <main+0x12a0>
	}
	else
	{
		alt_printf ("Opened green LEDs device\n");
     c0c:	01000074 	movhi	r4,1
     c10:	212edc04 	addi	r4,r4,-17552
     c14:	00036980 	call	3698 <alt_printf>
		up_dev.green_LEDs_dev = green_LEDs_dev;	// store for use by ISRs
     c18:	00c00074 	movhi	r3,1
     c1c:	18c0b204 	addi	r3,r3,712
     c20:	e0bfd517 	ldw	r2,-172(fp)
     c24:	18800115 	stw	r2,4(r3)
	}

	// open the red LEDs parallel port
	green_LEDs_dev = alt_up_parallel_port_open_dev ("/dev/Red_LEDs");
     c28:	01000074 	movhi	r4,1
     c2c:	212ee304 	addi	r4,r4,-17524
     c30:	0005d980 	call	5d98 <alt_up_parallel_port_open_dev>
     c34:	e0bfd515 	stw	r2,-172(fp)
	if ( green_LEDs_dev == NULL)
     c38:	e0bfd517 	ldw	r2,-172(fp)
     c3c:	1004c03a 	cmpne	r2,r2,zero
     c40:	1000061e 	bne	r2,zero,c5c <main+0x188>
	{
		alt_printf ("Error: could not open red LEDs device\n");
     c44:	01000074 	movhi	r4,1
     c48:	212ee704 	addi	r4,r4,-17508
     c4c:	00036980 	call	3698 <alt_printf>
		return -1;
     c50:	00bfffc4 	movi	r2,-1
     c54:	e0bfff15 	stw	r2,-4(fp)
     c58:	00044606 	br	1d74 <main+0x12a0>
	}
	else
	{
		alt_printf ("Opened red LEDs device\n");
     c5c:	01000074 	movhi	r4,1
     c60:	212ef104 	addi	r4,r4,-17468
     c64:	00036980 	call	3698 <alt_printf>
		up_dev.red_LEDs_dev = red_LEDs_dev;	// store for use by ISRs
     c68:	00c00074 	movhi	r3,1
     c6c:	18c0b204 	addi	r3,r3,712
     c70:	e0bfd417 	ldw	r2,-176(fp)
     c74:	18800215 	stw	r2,8(r3)
	}

	// open the PS2 port
	PS2_dev = alt_up_ps2_open_dev ("/dev/PS2_Port");
     c78:	01000074 	movhi	r4,1
     c7c:	212ef704 	addi	r4,r4,-17444
     c80:	00064980 	call	6498 <alt_up_ps2_open_dev>
     c84:	e0bfd315 	stw	r2,-180(fp)
	if ( PS2_dev == NULL)
     c88:	e0bfd317 	ldw	r2,-180(fp)
     c8c:	1004c03a 	cmpne	r2,r2,zero
     c90:	1000061e 	bne	r2,zero,cac <main+0x1d8>
	{
		alt_printf ("Error: could not open PS2 device\n");
     c94:	01000074 	movhi	r4,1
     c98:	212efb04 	addi	r4,r4,-17428
     c9c:	00036980 	call	3698 <alt_printf>
		return -1;
     ca0:	00bfffc4 	movi	r2,-1
     ca4:	e0bfff15 	stw	r2,-4(fp)
     ca8:	00043206 	br	1d74 <main+0x12a0>
	}
	else
	{
		alt_printf ("Opened PS2 device\n");
     cac:	01000074 	movhi	r4,1
     cb0:	212f0404 	addi	r4,r4,-17392
     cb4:	00036980 	call	3698 <alt_printf>
		up_dev.PS2_dev = PS2_dev;	// store for use by ISRs
     cb8:	00c00074 	movhi	r3,1
     cbc:	18c0b204 	addi	r3,r3,712
     cc0:	e0bfd317 	ldw	r2,-180(fp)
     cc4:	18800315 	stw	r2,12(r3)
	}
	(void) alt_up_ps2_write_data_byte (PS2_dev, 0xFF);		// reset
     cc8:	e13fd317 	ldw	r4,-180(fp)
     ccc:	01403fc4 	movi	r5,255
     cd0:	000607c0 	call	607c <alt_up_ps2_write_data_byte>
	alt_up_ps2_enable_read_interrupt (PS2_dev); // enable interrupts from PS/2 port
     cd4:	e13fd317 	ldw	r4,-180(fp)
     cd8:	0005fd00 	call	5fd0 <alt_up_ps2_enable_read_interrupt>

	// open the audio port
	audio_dev = alt_up_audio_open_dev ("/dev/Audio");
     cdc:	01000074 	movhi	r4,1
     ce0:	212f0904 	addi	r4,r4,-17372
     ce4:	00049400 	call	4940 <alt_up_audio_open_dev>
     ce8:	e0bfd115 	stw	r2,-188(fp)
	if ( audio_dev == NULL)
     cec:	e0bfd117 	ldw	r2,-188(fp)
     cf0:	1004c03a 	cmpne	r2,r2,zero
     cf4:	1000061e 	bne	r2,zero,d10 <main+0x23c>
	{
		alt_printf ("Error: could not open audio device\n");
     cf8:	01000074 	movhi	r4,1
     cfc:	212f0c04 	addi	r4,r4,-17360
     d00:	00036980 	call	3698 <alt_printf>
		return -1;
     d04:	00bfffc4 	movi	r2,-1
     d08:	e0bfff15 	stw	r2,-4(fp)
     d0c:	00041906 	br	1d74 <main+0x12a0>
	}
	else
	{
		alt_printf ("Opened audio device\n");
     d10:	01000074 	movhi	r4,1
     d14:	212f1504 	addi	r4,r4,-17324
     d18:	00036980 	call	3698 <alt_printf>
		up_dev.audio_dev = audio_dev;	// store for use by ISRs
     d1c:	00c00074 	movhi	r3,1
     d20:	18c0b204 	addi	r3,r3,712
     d24:	e0bfd117 	ldw	r2,-188(fp)
     d28:	18800515 	stw	r2,20(r3)
	}

	// open the 16x2 character display port
	lcd_dev = alt_up_character_lcd_open_dev ("/dev/Char_LCD_16x2");
     d2c:	01000074 	movhi	r4,1
     d30:	212f1b04 	addi	r4,r4,-17300
     d34:	00052300 	call	5230 <alt_up_character_lcd_open_dev>
     d38:	e0bfd215 	stw	r2,-184(fp)
	if ( lcd_dev == NULL)
     d3c:	e0bfd217 	ldw	r2,-184(fp)
     d40:	1004c03a 	cmpne	r2,r2,zero
     d44:	1000061e 	bne	r2,zero,d60 <main+0x28c>
	{
		alt_printf ("Error: could not open character LCD device\n");
     d48:	01000074 	movhi	r4,1
     d4c:	212f2004 	addi	r4,r4,-17280
     d50:	00036980 	call	3698 <alt_printf>
		return -1;
     d54:	00bfffc4 	movi	r2,-1
     d58:	e0bfff15 	stw	r2,-4(fp)
     d5c:	00040506 	br	1d74 <main+0x12a0>
	}
	else
	{
		alt_printf ("Opened character LCD device\n");
     d60:	01000074 	movhi	r4,1
     d64:	212f2b04 	addi	r4,r4,-17236
     d68:	00036980 	call	3698 <alt_printf>
		up_dev.lcd_dev = lcd_dev;	// store for use by ISRs
     d6c:	00c00074 	movhi	r3,1
     d70:	18c0b204 	addi	r3,r3,712
     d74:	e0bfd217 	ldw	r2,-184(fp)
     d78:	18800415 	stw	r2,16(r3)
	/* use the HAL facility for registering interrupt service routines. */
	/* Note: we are passsing a pointer to up_dev to each ISR (using the context argument) as 
	 * a way of giving the ISR a pointer to every open device. This is useful because some of the
	 * ISRs need to access more than just one device (e.g. the pushbutton ISR accesses both
	 * the pushbutton device and the audio device) */
	alt_irq_register (0, (void *) &up_dev, (void *) interval_timer_ISR);
     d7c:	01800034 	movhi	r6,0
     d80:	31829d04 	addi	r6,r6,2676
     d84:	0009883a 	mov	r4,zero
     d88:	01400074 	movhi	r5,1
     d8c:	2940b204 	addi	r5,r5,712
     d90:	00033800 	call	3380 <alt_irq_register>
	alt_irq_register (1, (void *) &up_dev, (void *) pushbutton_ISR);
     d94:	01800034 	movhi	r6,0
     d98:	318a4b04 	addi	r6,r6,10540
     d9c:	01000044 	movi	r4,1
     da0:	01400074 	movhi	r5,1
     da4:	2940b204 	addi	r5,r5,712
     da8:	00033800 	call	3380 <alt_irq_register>
	alt_irq_register (6, (void *) &up_dev, (void *) audio_ISR);
     dac:	01800034 	movhi	r6,0
     db0:	31818f04 	addi	r6,r6,1596
     db4:	01000184 	movi	r4,6
     db8:	01400074 	movhi	r5,1
     dbc:	2940b204 	addi	r5,r5,712
     dc0:	00033800 	call	3380 <alt_irq_register>
	alt_irq_register (7, (void *) &up_dev, (void *) PS2_ISR);
     dc4:	01800034 	movhi	r6,0
     dc8:	31807d04 	addi	r6,r6,500
     dcc:	010001c4 	movi	r4,7
     dd0:	01400074 	movhi	r5,1
     dd4:	2940b204 	addi	r5,r5,712
     dd8:	00033800 	call	3380 <alt_irq_register>

	/* create a messages to be displayed on the VGA and LCD displays */
	char text_top_LCD[80] = "Welcome to the DE2 Media Computer...\0";
     ddc:	00c00074 	movhi	r3,1
     de0:	18ef6504 	addi	r3,r3,-17004
     de4:	18800017 	ldw	r2,0(r3)
     de8:	e0bfd715 	stw	r2,-164(fp)
     dec:	18800117 	ldw	r2,4(r3)
     df0:	e0bfd815 	stw	r2,-160(fp)
     df4:	18800217 	ldw	r2,8(r3)
     df8:	e0bfd915 	stw	r2,-156(fp)
     dfc:	18800317 	ldw	r2,12(r3)
     e00:	e0bfda15 	stw	r2,-152(fp)
     e04:	18800417 	ldw	r2,16(r3)
     e08:	e0bfdb15 	stw	r2,-148(fp)
     e0c:	18800517 	ldw	r2,20(r3)
     e10:	e0bfdc15 	stw	r2,-144(fp)
     e14:	18800617 	ldw	r2,24(r3)
     e18:	e0bfdd15 	stw	r2,-140(fp)
     e1c:	18800717 	ldw	r2,28(r3)
     e20:	e0bfde15 	stw	r2,-136(fp)
     e24:	18800817 	ldw	r2,32(r3)
     e28:	e0bfdf15 	stw	r2,-132(fp)
     e2c:	1880090b 	ldhu	r2,36(r3)
     e30:	e0bfe00d 	sth	r2,-128(fp)
     e34:	e13fe084 	addi	r4,fp,-126
     e38:	01800a84 	movi	r6,42
     e3c:	000b883a 	mov	r5,zero
     e40:	00032e80 	call	32e8 <memset>
	char text_Record[20] = "Record\0";
     e44:	00c00074 	movhi	r3,1
     e48:	18ef7904 	addi	r3,r3,-16924
     e4c:	18800017 	ldw	r2,0(r3)
     e50:	e0bfeb15 	stw	r2,-84(fp)
     e54:	18800117 	ldw	r2,4(r3)
     e58:	e0bfec15 	stw	r2,-80(fp)
     e5c:	e03fed15 	stw	zero,-76(fp)
     e60:	e03fee15 	stw	zero,-72(fp)
     e64:	e03fef15 	stw	zero,-68(fp)
	char text_Play[20] = "Play\0";
     e68:	00c00074 	movhi	r3,1
     e6c:	18ef7e04 	addi	r3,r3,-16904
     e70:	18800017 	ldw	r2,0(r3)
     e74:	e0bff015 	stw	r2,-64(fp)
     e78:	1880010b 	ldhu	r2,4(r3)
     e7c:	e0bff10d 	sth	r2,-60(fp)
     e80:	e03ff18d 	sth	zero,-58(fp)
     e84:	e03ff20d 	sth	zero,-56(fp)
     e88:	e03ff28d 	sth	zero,-54(fp)
     e8c:	e03ff30d 	sth	zero,-52(fp)
     e90:	e03ff38d 	sth	zero,-50(fp)
     e94:	e03ff40d 	sth	zero,-48(fp)
     e98:	e03ff48d 	sth	zero,-46(fp)
	char text_Echo[20] = "Echo\0";
     e9c:	00c00074 	movhi	r3,1
     ea0:	18ef8304 	addi	r3,r3,-16884
     ea4:	18800017 	ldw	r2,0(r3)
     ea8:	e0bff515 	stw	r2,-44(fp)
     eac:	1880010b 	ldhu	r2,4(r3)
     eb0:	e0bff60d 	sth	r2,-40(fp)
     eb4:	e03ff68d 	sth	zero,-38(fp)
     eb8:	e03ff70d 	sth	zero,-36(fp)
     ebc:	e03ff78d 	sth	zero,-34(fp)
     ec0:	e03ff80d 	sth	zero,-32(fp)
     ec4:	e03ff88d 	sth	zero,-30(fp)
     ec8:	e03ff90d 	sth	zero,-28(fp)
     ecc:	e03ff98d 	sth	zero,-26(fp)
	char test_Audio[20] = "Audio Plot\0";
     ed0:	00c00074 	movhi	r3,1
     ed4:	18ef8804 	addi	r3,r3,-16864
     ed8:	18800017 	ldw	r2,0(r3)
     edc:	e0bffa15 	stw	r2,-24(fp)
     ee0:	18800117 	ldw	r2,4(r3)
     ee4:	e0bffb15 	stw	r2,-20(fp)
     ee8:	18800217 	ldw	r2,8(r3)
     eec:	e0bffc15 	stw	r2,-16(fp)
     ef0:	e03ffd15 	stw	zero,-12(fp)
     ef4:	e03ffe15 	stw	zero,-8(fp)

	/* output text message to the LCD */
	alt_up_character_lcd_set_cursor_pos (lcd_dev, 0, 0);	// set LCD cursor location to top row
     ef8:	e13fd217 	ldw	r4,-184(fp)
     efc:	000b883a 	mov	r5,zero
     f00:	000d883a 	mov	r6,zero
     f04:	00053ac0 	call	53ac <alt_up_character_lcd_set_cursor_pos>
	alt_up_character_lcd_string (lcd_dev, text_top_LCD);
     f08:	e17fd704 	addi	r5,fp,-164
     f0c:	e13fd217 	ldw	r4,-184(fp)
     f10:	00052e80 	call	52e8 <alt_up_character_lcd_string>
	alt_up_character_lcd_cursor_off (lcd_dev);				// turn off the LCD cursor 
     f14:	e13fd217 	ldw	r4,-184(fp)
     f18:	00056140 	call	5614 <alt_up_character_lcd_cursor_off>

	/* open the pixel buffer */
	pixel_buffer_dev = alt_up_pixel_buffer_dma_open_dev ("/dev/VGA_Pixel_Buffer");
     f1c:	01000074 	movhi	r4,1
     f20:	212f3304 	addi	r4,r4,-17204
     f24:	0006b740 	call	6b74 <alt_up_pixel_buffer_dma_open_dev>
     f28:	e0bfcf15 	stw	r2,-196(fp)
	if ( pixel_buffer_dev == NULL)
     f2c:	e0bfcf17 	ldw	r2,-196(fp)
     f30:	1004c03a 	cmpne	r2,r2,zero
     f34:	1000041e 	bne	r2,zero,f48 <main+0x474>
		alt_printf ("Error: could not open pixel buffer device\n");
     f38:	01000074 	movhi	r4,1
     f3c:	212f3904 	addi	r4,r4,-17180
     f40:	00036980 	call	3698 <alt_printf>
     f44:	00000306 	br	f54 <main+0x480>
	else
		alt_printf ("Opened pixel buffer device\n");
     f48:	01000074 	movhi	r4,1
     f4c:	212f4404 	addi	r4,r4,-17136
     f50:	00036980 	call	3698 <alt_printf>

	/* output text message in the middle of the VGA monitor */
	char_buffer_dev = alt_up_char_buffer_open_dev ("/dev/VGA_Char_Buffer");
     f54:	01000074 	movhi	r4,1
     f58:	212f4b04 	addi	r4,r4,-17108
     f5c:	00068f40 	call	68f4 <alt_up_char_buffer_open_dev>
     f60:	e0bfd015 	stw	r2,-192(fp)
	if ( char_buffer_dev == NULL)
     f64:	e0bfd017 	ldw	r2,-192(fp)
     f68:	1004c03a 	cmpne	r2,r2,zero
     f6c:	1000041e 	bne	r2,zero,f80 <main+0x4ac>
		alt_printf ("Error: could not open character buffer device\n");
     f70:	01000074 	movhi	r4,1
     f74:	212f5104 	addi	r4,r4,-17084
     f78:	00036980 	call	3698 <alt_printf>
     f7c:	00000306 	br	f8c <main+0x4b8>
	else
		alt_printf ("Opened character buffer device\n");
     f80:	01000074 	movhi	r4,1
     f84:	212f5d04 	addi	r4,r4,-17036
     f88:	00036980 	call	3698 <alt_printf>


	/* the following variables give the size of the pixel buffer */
	screen_x = 319; screen_y = 239;
     f8c:	00804fc4 	movi	r2,319
     f90:	e0bfc515 	stw	r2,-236(fp)
     f94:	00803bc4 	movi	r2,239
     f98:	e0bfc415 	stw	r2,-240(fp)
	color = 0x1863;		// a dark grey color
     f9c:	008618c4 	movi	r2,6243
     fa0:	e0bfc10d 	sth	r2,-252(fp)
	alt_up_pixel_buffer_dma_draw_box (pixel_buffer_dev, 0, 0, screen_x, 
     fa4:	e0ffc10f 	ldh	r3,-252(fp)
     fa8:	e0bfc417 	ldw	r2,-240(fp)
     fac:	d8800015 	stw	r2,0(sp)
     fb0:	d8c00115 	stw	r3,4(sp)
     fb4:	d8000215 	stw	zero,8(sp)
     fb8:	e13fcf17 	ldw	r4,-196(fp)
     fbc:	000b883a 	mov	r5,zero
     fc0:	000d883a 	mov	r6,zero
     fc4:	e1ffc517 	ldw	r7,-236(fp)
     fc8:	0006f9c0 	call	6f9c <alt_up_pixel_buffer_dma_draw_box>
		screen_y, color, 0); // fill the screen
	
	// draw a medium-blue box in the middle of the screen, using character buffer coordinates
	blue_x1 = 0; blue_x2 = 100; blue_y1 = 0; blue_y2 = 20;
     fcc:	e03fc915 	stw	zero,-220(fp)
     fd0:	00801904 	movi	r2,100
     fd4:	e0bfc715 	stw	r2,-228(fp)
     fd8:	e03fc815 	stw	zero,-224(fp)
     fdc:	00800504 	movi	r2,20
     fe0:	e0bfc615 	stw	r2,-232(fp)
	// character coords * 4 since characters are 4 x 4 pixel buffer coords (8 x 8 VGA coords)
	color = 0x0360;		// a medium blue color
     fe4:	0080d804 	movi	r2,864
     fe8:	e0bfc10d 	sth	r2,-252(fp)
	alt_up_pixel_buffer_dma_draw_box (pixel_buffer_dev, blue_x1 * 4, blue_y1 * 4, blue_x2 * 4, 
     fec:	e0bfc917 	ldw	r2,-220(fp)
     ff0:	1085883a 	add	r2,r2,r2
     ff4:	1085883a 	add	r2,r2,r2
     ff8:	100b883a 	mov	r5,r2
     ffc:	e0bfc817 	ldw	r2,-224(fp)
    1000:	1085883a 	add	r2,r2,r2
    1004:	1085883a 	add	r2,r2,r2
    1008:	100d883a 	mov	r6,r2
    100c:	e0bfc717 	ldw	r2,-228(fp)
    1010:	1085883a 	add	r2,r2,r2
    1014:	1085883a 	add	r2,r2,r2
    1018:	100f883a 	mov	r7,r2
    101c:	e0bfc617 	ldw	r2,-232(fp)
    1020:	1085883a 	add	r2,r2,r2
    1024:	1085883a 	add	r2,r2,r2
    1028:	e0ffc10f 	ldh	r3,-252(fp)
    102c:	d8800015 	stw	r2,0(sp)
    1030:	d8c00115 	stw	r3,4(sp)
    1034:	d8000215 	stw	zero,8(sp)
    1038:	e13fcf17 	ldw	r4,-196(fp)
    103c:	0006f9c0 	call	6f9c <alt_up_pixel_buffer_dma_draw_box>
		blue_y2 * 4, color, 0);

	//Green Box For Record //Record ******************
	blue_x1 = 15; blue_x2 = 25; blue_y1 = 4; blue_y2 = 14;
    1040:	008003c4 	movi	r2,15
    1044:	e0bfc915 	stw	r2,-220(fp)
    1048:	00800644 	movi	r2,25
    104c:	e0bfc715 	stw	r2,-228(fp)
    1050:	00800104 	movi	r2,4
    1054:	e0bfc815 	stw	r2,-224(fp)
    1058:	00800384 	movi	r2,14
    105c:	e0bfc615 	stw	r2,-232(fp)
	// character coords * 4 since characters are 4 x 4 pixel buffer coords (8 x 8 VGA coords)
	color = 0x100F;		// a medium blue color
    1060:	008403c4 	movi	r2,4111
    1064:	e0bfc10d 	sth	r2,-252(fp)
	alt_up_pixel_buffer_dma_draw_box (pixel_buffer_dev, blue_x1 * 4, blue_y1 * 4, blue_x2 * 4,
    1068:	e0bfc917 	ldw	r2,-220(fp)
    106c:	1085883a 	add	r2,r2,r2
    1070:	1085883a 	add	r2,r2,r2
    1074:	100b883a 	mov	r5,r2
    1078:	e0bfc817 	ldw	r2,-224(fp)
    107c:	1085883a 	add	r2,r2,r2
    1080:	1085883a 	add	r2,r2,r2
    1084:	100d883a 	mov	r6,r2
    1088:	e0bfc717 	ldw	r2,-228(fp)
    108c:	1085883a 	add	r2,r2,r2
    1090:	1085883a 	add	r2,r2,r2
    1094:	100f883a 	mov	r7,r2
    1098:	e0bfc617 	ldw	r2,-232(fp)
    109c:	1085883a 	add	r2,r2,r2
    10a0:	1085883a 	add	r2,r2,r2
    10a4:	e0ffc10f 	ldh	r3,-252(fp)
    10a8:	d8800015 	stw	r2,0(sp)
    10ac:	d8c00115 	stw	r3,4(sp)
    10b0:	d8000215 	stw	zero,8(sp)
    10b4:	e13fcf17 	ldw	r4,-196(fp)
    10b8:	0006f9c0 	call	6f9c <alt_up_pixel_buffer_dma_draw_box>
		blue_y2 * 4, color, 0);
	alt_up_char_buffer_string (char_buffer_dev, text_Record, blue_x1 + 2, blue_y1 + 4);
    10bc:	e0bfc917 	ldw	r2,-220(fp)
    10c0:	10800084 	addi	r2,r2,2
    10c4:	100d883a 	mov	r6,r2
    10c8:	e0bfc817 	ldw	r2,-224(fp)
    10cc:	10800104 	addi	r2,r2,4
    10d0:	100f883a 	mov	r7,r2
    10d4:	e17feb04 	addi	r5,fp,-84
    10d8:	e13fd017 	ldw	r4,-192(fp)
    10dc:	0006a040 	call	6a04 <alt_up_char_buffer_string>

	//Green Box For Play //PLAY**********************
	blue_x1 = 35; blue_x2 = 45; blue_y1 = 4; blue_y2 = 14;
    10e0:	008008c4 	movi	r2,35
    10e4:	e0bfc915 	stw	r2,-220(fp)
    10e8:	00800b44 	movi	r2,45
    10ec:	e0bfc715 	stw	r2,-228(fp)
    10f0:	00800104 	movi	r2,4
    10f4:	e0bfc815 	stw	r2,-224(fp)
    10f8:	00800384 	movi	r2,14
    10fc:	e0bfc615 	stw	r2,-232(fp)
	// character coords * 4 since characters are 4 x 4 pixel buffer coords (8 x 8 VGA coords)
	color = 0x100F;		// a medium blue color
    1100:	008403c4 	movi	r2,4111
    1104:	e0bfc10d 	sth	r2,-252(fp)
	alt_up_pixel_buffer_dma_draw_box (pixel_buffer_dev, blue_x1 * 4, blue_y1 * 4, blue_x2 * 4,
    1108:	e0bfc917 	ldw	r2,-220(fp)
    110c:	1085883a 	add	r2,r2,r2
    1110:	1085883a 	add	r2,r2,r2
    1114:	100b883a 	mov	r5,r2
    1118:	e0bfc817 	ldw	r2,-224(fp)
    111c:	1085883a 	add	r2,r2,r2
    1120:	1085883a 	add	r2,r2,r2
    1124:	100d883a 	mov	r6,r2
    1128:	e0bfc717 	ldw	r2,-228(fp)
    112c:	1085883a 	add	r2,r2,r2
    1130:	1085883a 	add	r2,r2,r2
    1134:	100f883a 	mov	r7,r2
    1138:	e0bfc617 	ldw	r2,-232(fp)
    113c:	1085883a 	add	r2,r2,r2
    1140:	1085883a 	add	r2,r2,r2
    1144:	e0ffc10f 	ldh	r3,-252(fp)
    1148:	d8800015 	stw	r2,0(sp)
    114c:	d8c00115 	stw	r3,4(sp)
    1150:	d8000215 	stw	zero,8(sp)
    1154:	e13fcf17 	ldw	r4,-196(fp)
    1158:	0006f9c0 	call	6f9c <alt_up_pixel_buffer_dma_draw_box>
		blue_y2 * 4, color, 0);
	alt_up_char_buffer_string (char_buffer_dev, text_Play, blue_x1 + 4, blue_y1 + 4);
    115c:	e0bfc917 	ldw	r2,-220(fp)
    1160:	10800104 	addi	r2,r2,4
    1164:	100d883a 	mov	r6,r2
    1168:	e0bfc817 	ldw	r2,-224(fp)
    116c:	10800104 	addi	r2,r2,4
    1170:	100f883a 	mov	r7,r2
    1174:	e17ff004 	addi	r5,fp,-64
    1178:	e13fd017 	ldw	r4,-192(fp)
    117c:	0006a040 	call	6a04 <alt_up_char_buffer_string>

	//Green Box For Echo //Echo**********************
	blue_x1 = 55; blue_x2 = 65; blue_y1 = 4; blue_y2 = 14;
    1180:	00800dc4 	movi	r2,55
    1184:	e0bfc915 	stw	r2,-220(fp)
    1188:	00801044 	movi	r2,65
    118c:	e0bfc715 	stw	r2,-228(fp)
    1190:	00800104 	movi	r2,4
    1194:	e0bfc815 	stw	r2,-224(fp)
    1198:	00800384 	movi	r2,14
    119c:	e0bfc615 	stw	r2,-232(fp)
	// character coords * 4 since characters are 4 x 4 pixel buffer coords (8 x 8 VGA coords)
	color = 0x100F;		// a medium blue color
    11a0:	008403c4 	movi	r2,4111
    11a4:	e0bfc10d 	sth	r2,-252(fp)
	alt_up_pixel_buffer_dma_draw_box (pixel_buffer_dev, blue_x1 * 4, blue_y1 * 4, blue_x2 * 4,
    11a8:	e0bfc917 	ldw	r2,-220(fp)
    11ac:	1085883a 	add	r2,r2,r2
    11b0:	1085883a 	add	r2,r2,r2
    11b4:	100b883a 	mov	r5,r2
    11b8:	e0bfc817 	ldw	r2,-224(fp)
    11bc:	1085883a 	add	r2,r2,r2
    11c0:	1085883a 	add	r2,r2,r2
    11c4:	100d883a 	mov	r6,r2
    11c8:	e0bfc717 	ldw	r2,-228(fp)
    11cc:	1085883a 	add	r2,r2,r2
    11d0:	1085883a 	add	r2,r2,r2
    11d4:	100f883a 	mov	r7,r2
    11d8:	e0bfc617 	ldw	r2,-232(fp)
    11dc:	1085883a 	add	r2,r2,r2
    11e0:	1085883a 	add	r2,r2,r2
    11e4:	e0ffc10f 	ldh	r3,-252(fp)
    11e8:	d8800015 	stw	r2,0(sp)
    11ec:	d8c00115 	stw	r3,4(sp)
    11f0:	d8000215 	stw	zero,8(sp)
    11f4:	e13fcf17 	ldw	r4,-196(fp)
    11f8:	0006f9c0 	call	6f9c <alt_up_pixel_buffer_dma_draw_box>
		blue_y2 * 4, color, 0);
	alt_up_char_buffer_string (char_buffer_dev, text_Echo, blue_x1 + 4, blue_y1 + 4);
    11fc:	e0bfc917 	ldw	r2,-220(fp)
    1200:	10800104 	addi	r2,r2,4
    1204:	100d883a 	mov	r6,r2
    1208:	e0bfc817 	ldw	r2,-224(fp)
    120c:	10800104 	addi	r2,r2,4
    1210:	100f883a 	mov	r7,r2
    1214:	e17ff504 	addi	r5,fp,-44
    1218:	e13fd017 	ldw	r4,-192(fp)
    121c:	0006a040 	call	6a04 <alt_up_char_buffer_string>

	// Draw Audio Display
	blue_x1 = 0; blue_x2 = 100; blue_y1 = 20; blue_y2 = 60;
    1220:	e03fc915 	stw	zero,-220(fp)
    1224:	00801904 	movi	r2,100
    1228:	e0bfc715 	stw	r2,-228(fp)
    122c:	00800504 	movi	r2,20
    1230:	e0bfc815 	stw	r2,-224(fp)
    1234:	00800f04 	movi	r2,60
    1238:	e0bfc615 	stw	r2,-232(fp)
	// character coords * 4 since characters are 4 x 4 pixel buffer coords (8 x 8 VGA coords)
	color = 0x0328;		// a medium blue color
    123c:	0080ca04 	movi	r2,808
    1240:	e0bfc10d 	sth	r2,-252(fp)
	alt_up_pixel_buffer_dma_draw_box (pixel_buffer_dev, blue_x1 * 4, blue_y1 * 4, blue_x2 * 4,
    1244:	e0bfc917 	ldw	r2,-220(fp)
    1248:	1085883a 	add	r2,r2,r2
    124c:	1085883a 	add	r2,r2,r2
    1250:	100b883a 	mov	r5,r2
    1254:	e0bfc817 	ldw	r2,-224(fp)
    1258:	1085883a 	add	r2,r2,r2
    125c:	1085883a 	add	r2,r2,r2
    1260:	100d883a 	mov	r6,r2
    1264:	e0bfc717 	ldw	r2,-228(fp)
    1268:	1085883a 	add	r2,r2,r2
    126c:	1085883a 	add	r2,r2,r2
    1270:	100f883a 	mov	r7,r2
    1274:	e0bfc617 	ldw	r2,-232(fp)
    1278:	1085883a 	add	r2,r2,r2
    127c:	1085883a 	add	r2,r2,r2
    1280:	e0ffc10f 	ldh	r3,-252(fp)
    1284:	d8800015 	stw	r2,0(sp)
    1288:	d8c00115 	stw	r3,4(sp)
    128c:	d8000215 	stw	zero,8(sp)
    1290:	e13fcf17 	ldw	r4,-196(fp)
    1294:	0006f9c0 	call	6f9c <alt_up_pixel_buffer_dma_draw_box>
		blue_y2 * 4, color, 0);

	//Write Audio
	blue_x1 = 39; blue_y1 = 22;
    1298:	008009c4 	movi	r2,39
    129c:	e0bfc915 	stw	r2,-220(fp)
    12a0:	00800584 	movi	r2,22
    12a4:	e0bfc815 	stw	r2,-224(fp)
	color = 0xABCD;
    12a8:	00aaf344 	movi	r2,-21555
    12ac:	e0bfc10d 	sth	r2,-252(fp)
	alt_up_char_buffer_string (char_buffer_dev, test_Audio, blue_x1 , blue_y1 );
    12b0:	e1bfc917 	ldw	r6,-220(fp)
    12b4:	e1ffc817 	ldw	r7,-224(fp)
    12b8:	e17ffa04 	addi	r5,fp,-24
    12bc:	e13fd017 	ldw	r4,-192(fp)
    12c0:	0006a040 	call	6a04 <alt_up_char_buffer_string>
	//Audio Line
	blue_x1 = 10; blue_x2 = 70; blue_y1 = 21;
    12c4:	00800284 	movi	r2,10
    12c8:	e0bfc915 	stw	r2,-220(fp)
    12cc:	00801184 	movi	r2,70
    12d0:	e0bfc715 	stw	r2,-228(fp)
    12d4:	00800544 	movi	r2,21
    12d8:	e0bfc815 	stw	r2,-224(fp)
	color = 0xABCD;
    12dc:	00aaf344 	movi	r2,-21555
    12e0:	e0bfc10d 	sth	r2,-252(fp)
	alt_up_pixel_buffer_dma_draw_hline(pixel_buffer_dev,blue_x1 * 4, blue_x2 * 4, blue_y1 * 4, color, 0);
    12e4:	e0bfc917 	ldw	r2,-220(fp)
    12e8:	1085883a 	add	r2,r2,r2
    12ec:	1085883a 	add	r2,r2,r2
    12f0:	100b883a 	mov	r5,r2
    12f4:	e0bfc717 	ldw	r2,-228(fp)
    12f8:	1085883a 	add	r2,r2,r2
    12fc:	1085883a 	add	r2,r2,r2
    1300:	100d883a 	mov	r6,r2
    1304:	e0bfc817 	ldw	r2,-224(fp)
    1308:	1085883a 	add	r2,r2,r2
    130c:	1085883a 	add	r2,r2,r2
    1310:	100f883a 	mov	r7,r2
    1314:	e0bfc10f 	ldh	r2,-252(fp)
    1318:	d8800015 	stw	r2,0(sp)
    131c:	d8000115 	stw	zero,4(sp)
    1320:	e13fcf17 	ldw	r4,-196(fp)
    1324:	00074900 	call	7490 <alt_up_pixel_buffer_dma_draw_hline>
	blue_x1 = 10; blue_x2 = 70; blue_y1 = 23;
    1328:	00800284 	movi	r2,10
    132c:	e0bfc915 	stw	r2,-220(fp)
    1330:	00801184 	movi	r2,70
    1334:	e0bfc715 	stw	r2,-228(fp)
    1338:	008005c4 	movi	r2,23
    133c:	e0bfc815 	stw	r2,-224(fp)
	alt_up_pixel_buffer_dma_draw_hline(pixel_buffer_dev,blue_x1 * 4, blue_x2 * 4, blue_y1 * 4, color, 0);
    1340:	e0bfc917 	ldw	r2,-220(fp)
    1344:	1085883a 	add	r2,r2,r2
    1348:	1085883a 	add	r2,r2,r2
    134c:	100b883a 	mov	r5,r2
    1350:	e0bfc717 	ldw	r2,-228(fp)
    1354:	1085883a 	add	r2,r2,r2
    1358:	1085883a 	add	r2,r2,r2
    135c:	100d883a 	mov	r6,r2
    1360:	e0bfc817 	ldw	r2,-224(fp)
    1364:	1085883a 	add	r2,r2,r2
    1368:	1085883a 	add	r2,r2,r2
    136c:	100f883a 	mov	r7,r2
    1370:	e0bfc10f 	ldh	r2,-252(fp)
    1374:	d8800015 	stw	r2,0(sp)
    1378:	d8000115 	stw	zero,4(sp)
    137c:	e13fcf17 	ldw	r4,-196(fp)
    1380:	00074900 	call	7490 <alt_up_pixel_buffer_dma_draw_hline>
	//Audio OverFlow
	alt_up_pixel_buffer_dma_draw_hline(pixel_buffer_dev,10, 300, 105, 0xABCD, 0);
    1384:	00aaf354 	movui	r2,43981
    1388:	d8800015 	stw	r2,0(sp)
    138c:	d8000115 	stw	zero,4(sp)
    1390:	e13fcf17 	ldw	r4,-196(fp)
    1394:	01400284 	movi	r5,10
    1398:	01804b04 	movi	r6,300
    139c:	01c01a44 	movi	r7,105
    13a0:	00074900 	call	7490 <alt_up_pixel_buffer_dma_draw_hline>

	
	char_buffer_x = 79; char_buffer_y = 59;
    13a4:	008013c4 	movi	r2,79
    13a8:	e0bfc315 	stw	r2,-244(fp)
    13ac:	00800ec4 	movi	r2,59
    13b0:	e0bfc215 	stw	r2,-248(fp)
	MouseX = 10;
    13b4:	00800284 	movi	r2,10
    13b8:	e0bfcd15 	stw	r2,-204(fp)
	MouseY = 10;
    13bc:	00800284 	movi	r2,10
    13c0:	e0bfcc15 	stw	r2,-208(fp)
	int temp1;
	int temp2;
	int temp3;
	Echo_complete = 0;
    13c4:	00800074 	movhi	r2,1
    13c8:	10808504 	addi	r2,r2,532
    13cc:	10000015 	stw	zero,0(r2)
	Play_Index = 0;
    13d0:	00800074 	movhi	r2,1
    13d4:	10808204 	addi	r2,r2,520
    13d8:	10000015 	stw	zero,0(r2)
    13dc:	00000006 	br	13e0 <main+0x90c>
	/* this loops "bounces" the word ALTERA around on the VGA screen */
	while (1)
	{
			while(!timeout);
    13e0:	00800074 	movhi	r2,1
    13e4:	10808904 	addi	r2,r2,548
    13e8:	10800017 	ldw	r2,0(r2)
    13ec:	1005003a 	cmpeq	r2,r2,zero
    13f0:	103ffb1e 	bne	r2,zero,13e0 <main+0x90c>
			// wait to synchronize with timeout, which is set by the interval timer ISR
			/* also, display any PS/2 data (from its interrupt service routine) on HEX displays */
			HEXxy_PS2 (&up_dev, byte1, byte2, byte3);
    13f4:	00800074 	movhi	r2,1
    13f8:	10808304 	addi	r2,r2,524
    13fc:	10800003 	ldbu	r2,0(r2)
    1400:	11403fcc 	andi	r5,r2,255
    1404:	00800074 	movhi	r2,1
    1408:	10808104 	addi	r2,r2,516
    140c:	10800003 	ldbu	r2,0(r2)
    1410:	11803fcc 	andi	r6,r2,255
    1414:	00800074 	movhi	r2,1
    1418:	10808144 	addi	r2,r2,517
    141c:	10800003 	ldbu	r2,0(r2)
    1420:	11c03fcc 	andi	r7,r2,255
    1424:	01000074 	movhi	r4,1
    1428:	2100b204 	addi	r4,r4,712
    142c:	0001d8c0 	call	1d8c <HEXxy_PS2>
			temp1 = byte1;
    1430:	00800074 	movhi	r2,1
    1434:	10808304 	addi	r2,r2,524
    1438:	10800003 	ldbu	r2,0(r2)
    143c:	10803fcc 	andi	r2,r2,255
    1440:	e0bfbf15 	stw	r2,-260(fp)
			temp2 = byte2;
    1444:	00800074 	movhi	r2,1
    1448:	10808104 	addi	r2,r2,516
    144c:	10800003 	ldbu	r2,0(r2)
    1450:	10803fcc 	andi	r2,r2,255
    1454:	e0bfbe15 	stw	r2,-264(fp)
			temp3 = byte3;
    1458:	00800074 	movhi	r2,1
    145c:	10808144 	addi	r2,r2,517
    1460:	10800003 	ldbu	r2,0(r2)
    1464:	10803fcc 	andi	r2,r2,255
    1468:	e0bfbd15 	stw	r2,-268(fp)
			if((temp1 >= 100 && !Xsign) || (temp2>= 100 && !Ysign)){
    146c:	e0bfbf17 	ldw	r2,-260(fp)
    1470:	10801910 	cmplti	r2,r2,100
    1474:	1000031e 	bne	r2,zero,1484 <main+0x9b0>
    1478:	d0a84917 	ldw	r2,-24284(gp)
    147c:	1005003a 	cmpeq	r2,r2,zero
    1480:	103fd71e 	bne	r2,zero,13e0 <main+0x90c>
    1484:	e0bfbe17 	ldw	r2,-264(fp)
    1488:	10801910 	cmplti	r2,r2,100
    148c:	1000031e 	bne	r2,zero,149c <main+0x9c8>
    1490:	d0a84d17 	ldw	r2,-24268(gp)
    1494:	1005003a 	cmpeq	r2,r2,zero
    1498:	103fd11e 	bne	r2,zero,13e0 <main+0x90c>
				continue;
			}
			if((temp1 <= 150 && Xsign) || (temp2<= 150 && Ysign)){
    149c:	e0bfbf17 	ldw	r2,-260(fp)
    14a0:	108025c8 	cmpgei	r2,r2,151
    14a4:	1000031e 	bne	r2,zero,14b4 <main+0x9e0>
    14a8:	d0a84917 	ldw	r2,-24284(gp)
    14ac:	1004c03a 	cmpne	r2,r2,zero
    14b0:	103fcb1e 	bne	r2,zero,13e0 <main+0x90c>
    14b4:	e0bfbe17 	ldw	r2,-264(fp)
    14b8:	108025c8 	cmpgei	r2,r2,151
    14bc:	1000031e 	bne	r2,zero,14cc <main+0x9f8>
    14c0:	d0a84d17 	ldw	r2,-24268(gp)
    14c4:	1004c03a 	cmpne	r2,r2,zero
    14c8:	103fc51e 	bne	r2,zero,13e0 <main+0x90c>
				continue;
			}


			//Record interrupt
			if(Temp_MouseX >= 60 && Temp_MouseX <= 100 && Temp_MouseY >= 16 && Temp_MouseY <= 56){
    14cc:	e0bfcb17 	ldw	r2,-212(fp)
    14d0:	10800f10 	cmplti	r2,r2,60
    14d4:	10006f1e 	bne	r2,zero,1694 <main+0xbc0>
    14d8:	e0bfcb17 	ldw	r2,-212(fp)
    14dc:	10801948 	cmpgei	r2,r2,101
    14e0:	10006c1e 	bne	r2,zero,1694 <main+0xbc0>
    14e4:	e0bfca17 	ldw	r2,-216(fp)
    14e8:	10800410 	cmplti	r2,r2,16
    14ec:	1000691e 	bne	r2,zero,1694 <main+0xbc0>
    14f0:	e0bfca17 	ldw	r2,-216(fp)
    14f4:	10800e48 	cmpgei	r2,r2,57
    14f8:	1000661e 	bne	r2,zero,1694 <main+0xbc0>
				if(Temp_MouseX <= 62 || Temp_MouseX >= 98 || Temp_MouseY <= 20 || Temp_MouseY >= 52){
    14fc:	e0bfcb17 	ldw	r2,-212(fp)
    1500:	10800fd0 	cmplti	r2,r2,63
    1504:	1000091e 	bne	r2,zero,152c <main+0xa58>
    1508:	e0bfcb17 	ldw	r2,-212(fp)
    150c:	10801888 	cmpgei	r2,r2,98
    1510:	1000061e 	bne	r2,zero,152c <main+0xa58>
    1514:	e0bfca17 	ldw	r2,-216(fp)
    1518:	10800550 	cmplti	r2,r2,21
    151c:	1000031e 	bne	r2,zero,152c <main+0xa58>
    1520:	e0bfca17 	ldw	r2,-216(fp)
    1524:	10800d10 	cmplti	r2,r2,52
    1528:	1000481e 	bne	r2,zero,164c <main+0xb78>

					// draw a medium-blue box in the middle of the screen, using character buffer coordinates
					blue_x1 = 14; blue_x2 = 26; blue_y1 = 3; blue_y2 = 15;
    152c:	00800384 	movi	r2,14
    1530:	e0bfc915 	stw	r2,-220(fp)
    1534:	00800684 	movi	r2,26
    1538:	e0bfc715 	stw	r2,-228(fp)
    153c:	008000c4 	movi	r2,3
    1540:	e0bfc815 	stw	r2,-224(fp)
    1544:	008003c4 	movi	r2,15
    1548:	e0bfc615 	stw	r2,-232(fp)
					// character coords * 4 since characters are 4 x 4 pixel buffer coords (8 x 8 VGA coords)
					color = 0x0360;		// a medium blue color
    154c:	0080d804 	movi	r2,864
    1550:	e0bfc10d 	sth	r2,-252(fp)
					alt_up_pixel_buffer_dma_draw_box (pixel_buffer_dev, blue_x1 * 4, blue_y1 * 4, blue_x2 * 4,
    1554:	e0bfc917 	ldw	r2,-220(fp)
    1558:	1085883a 	add	r2,r2,r2
    155c:	1085883a 	add	r2,r2,r2
    1560:	100b883a 	mov	r5,r2
    1564:	e0bfc817 	ldw	r2,-224(fp)
    1568:	1085883a 	add	r2,r2,r2
    156c:	1085883a 	add	r2,r2,r2
    1570:	100d883a 	mov	r6,r2
    1574:	e0bfc717 	ldw	r2,-228(fp)
    1578:	1085883a 	add	r2,r2,r2
    157c:	1085883a 	add	r2,r2,r2
    1580:	100f883a 	mov	r7,r2
    1584:	e0bfc617 	ldw	r2,-232(fp)
    1588:	1085883a 	add	r2,r2,r2
    158c:	1085883a 	add	r2,r2,r2
    1590:	e0ffc10f 	ldh	r3,-252(fp)
    1594:	d8800015 	stw	r2,0(sp)
    1598:	d8c00115 	stw	r3,4(sp)
    159c:	d8000215 	stw	zero,8(sp)
    15a0:	e13fcf17 	ldw	r4,-196(fp)
    15a4:	0006f9c0 	call	6f9c <alt_up_pixel_buffer_dma_draw_box>
						blue_y2 * 4, color, 0);

					//Green Box For Record //Record ******************
					// character coords * 4 since characters are 4 x 4 pixel buffer coords (8 x 8 VGA coords)
					blue_x1 = 15; blue_x2 = 25; blue_y1 = 4; blue_y2 = 14;
    15a8:	008003c4 	movi	r2,15
    15ac:	e0bfc915 	stw	r2,-220(fp)
    15b0:	00800644 	movi	r2,25
    15b4:	e0bfc715 	stw	r2,-228(fp)
    15b8:	00800104 	movi	r2,4
    15bc:	e0bfc815 	stw	r2,-224(fp)
    15c0:	00800384 	movi	r2,14
    15c4:	e0bfc615 	stw	r2,-232(fp)
					color = 0x100F;
    15c8:	008403c4 	movi	r2,4111
    15cc:	e0bfc10d 	sth	r2,-252(fp)
					alt_up_pixel_buffer_dma_draw_box (pixel_buffer_dev, blue_x1 * 4, blue_y1 * 4, blue_x2 * 4,
    15d0:	e0bfc917 	ldw	r2,-220(fp)
    15d4:	1085883a 	add	r2,r2,r2
    15d8:	1085883a 	add	r2,r2,r2
    15dc:	100b883a 	mov	r5,r2
    15e0:	e0bfc817 	ldw	r2,-224(fp)
    15e4:	1085883a 	add	r2,r2,r2
    15e8:	1085883a 	add	r2,r2,r2
    15ec:	100d883a 	mov	r6,r2
    15f0:	e0bfc717 	ldw	r2,-228(fp)
    15f4:	1085883a 	add	r2,r2,r2
    15f8:	1085883a 	add	r2,r2,r2
    15fc:	100f883a 	mov	r7,r2
    1600:	e0bfc617 	ldw	r2,-232(fp)
    1604:	1085883a 	add	r2,r2,r2
    1608:	1085883a 	add	r2,r2,r2
    160c:	e0ffc10f 	ldh	r3,-252(fp)
    1610:	d8800015 	stw	r2,0(sp)
    1614:	d8c00115 	stw	r3,4(sp)
    1618:	d8000215 	stw	zero,8(sp)
    161c:	e13fcf17 	ldw	r4,-196(fp)
    1620:	0006f9c0 	call	6f9c <alt_up_pixel_buffer_dma_draw_box>
						blue_y2 * 4, color, 0);
					alt_up_char_buffer_string (char_buffer_dev, text_Record, blue_x1 + 2, blue_y1 + 4);
    1624:	e0bfc917 	ldw	r2,-220(fp)
    1628:	10800084 	addi	r2,r2,2
    162c:	100d883a 	mov	r6,r2
    1630:	e0bfc817 	ldw	r2,-224(fp)
    1634:	10800104 	addi	r2,r2,4
    1638:	100f883a 	mov	r7,r2
    163c:	e17feb04 	addi	r5,fp,-84
    1640:	e13fd017 	ldw	r4,-192(fp)
    1644:	0006a040 	call	6a04 <alt_up_char_buffer_string>
			}


			//Record interrupt
			if(Temp_MouseX >= 60 && Temp_MouseX <= 100 && Temp_MouseY >= 16 && Temp_MouseY <= 56){
				if(Temp_MouseX <= 62 || Temp_MouseX >= 98 || Temp_MouseY <= 20 || Temp_MouseY >= 52){
    1648:	00011306 	br	1a98 <main+0xfc4>
						blue_y2 * 4, color, 0);
					alt_up_char_buffer_string (char_buffer_dev, text_Record, blue_x1 + 2, blue_y1 + 4);

				}
				else {
					color = 0x100F;		// a medium blue color
    164c:	008403c4 	movi	r2,4111
    1650:	e0bfc10d 	sth	r2,-252(fp)
					alt_up_pixel_buffer_dma_draw_box (pixel_buffer_dev, Temp_MouseX - 2, Temp_MouseY - 2, Temp_MouseX + 2, Temp_MouseY + 2, color, 1);
    1654:	e0bfcb17 	ldw	r2,-212(fp)
    1658:	117fff84 	addi	r5,r2,-2
    165c:	e0bfca17 	ldw	r2,-216(fp)
    1660:	11bfff84 	addi	r6,r2,-2
    1664:	e0bfcb17 	ldw	r2,-212(fp)
    1668:	11c00084 	addi	r7,r2,2
    166c:	e0bfca17 	ldw	r2,-216(fp)
    1670:	10800084 	addi	r2,r2,2
    1674:	e0ffc10f 	ldh	r3,-252(fp)
    1678:	d8800015 	stw	r2,0(sp)
    167c:	d8c00115 	stw	r3,4(sp)
    1680:	00800044 	movi	r2,1
    1684:	d8800215 	stw	r2,8(sp)
    1688:	e13fcf17 	ldw	r4,-196(fp)
    168c:	0006f9c0 	call	6f9c <alt_up_pixel_buffer_dma_draw_box>
				continue;
			}


			//Record interrupt
			if(Temp_MouseX >= 60 && Temp_MouseX <= 100 && Temp_MouseY >= 16 && Temp_MouseY <= 56){
    1690:	00010106 	br	1a98 <main+0xfc4>
					alt_up_pixel_buffer_dma_draw_box (pixel_buffer_dev, Temp_MouseX - 2, Temp_MouseY - 2, Temp_MouseX + 2, Temp_MouseY + 2, color, 1);
				}
			}


			else if(Temp_MouseX >= 140 && Temp_MouseX <= 180 && Temp_MouseY >= 16 && Temp_MouseY <= 56){
    1694:	e0bfcb17 	ldw	r2,-212(fp)
    1698:	10802310 	cmplti	r2,r2,140
    169c:	10006f1e 	bne	r2,zero,185c <main+0xd88>
    16a0:	e0bfcb17 	ldw	r2,-212(fp)
    16a4:	10802d48 	cmpgei	r2,r2,181
    16a8:	10006c1e 	bne	r2,zero,185c <main+0xd88>
    16ac:	e0bfca17 	ldw	r2,-216(fp)
    16b0:	10800410 	cmplti	r2,r2,16
    16b4:	1000691e 	bne	r2,zero,185c <main+0xd88>
    16b8:	e0bfca17 	ldw	r2,-216(fp)
    16bc:	10800e48 	cmpgei	r2,r2,57
    16c0:	1000661e 	bne	r2,zero,185c <main+0xd88>
				if(Temp_MouseX <= 142 || Temp_MouseX >= 178 || Temp_MouseY <= 20 || Temp_MouseY >= 52){
    16c4:	e0bfcb17 	ldw	r2,-212(fp)
    16c8:	108023d0 	cmplti	r2,r2,143
    16cc:	1000091e 	bne	r2,zero,16f4 <main+0xc20>
    16d0:	e0bfcb17 	ldw	r2,-212(fp)
    16d4:	10802c88 	cmpgei	r2,r2,178
    16d8:	1000061e 	bne	r2,zero,16f4 <main+0xc20>
    16dc:	e0bfca17 	ldw	r2,-216(fp)
    16e0:	10800550 	cmplti	r2,r2,21
    16e4:	1000031e 	bne	r2,zero,16f4 <main+0xc20>
    16e8:	e0bfca17 	ldw	r2,-216(fp)
    16ec:	10800d10 	cmplti	r2,r2,52
    16f0:	1000481e 	bne	r2,zero,1814 <main+0xd40>

					// draw a medium-blue box in the middle of the screen, using character buffer coordinates
					blue_x1 = 34; blue_x2 = 46; blue_y1 = 3; blue_y2 = 15;
    16f4:	00800884 	movi	r2,34
    16f8:	e0bfc915 	stw	r2,-220(fp)
    16fc:	00800b84 	movi	r2,46
    1700:	e0bfc715 	stw	r2,-228(fp)
    1704:	008000c4 	movi	r2,3
    1708:	e0bfc815 	stw	r2,-224(fp)
    170c:	008003c4 	movi	r2,15
    1710:	e0bfc615 	stw	r2,-232(fp)
					// character coords * 4 since characters are 4 x 4 pixel buffer coords (8 x 8 VGA coords)
					color = 0x0360;		// a medium blue color
    1714:	0080d804 	movi	r2,864
    1718:	e0bfc10d 	sth	r2,-252(fp)
					alt_up_pixel_buffer_dma_draw_box (pixel_buffer_dev, blue_x1 * 4, blue_y1 * 4, blue_x2 * 4,
    171c:	e0bfc917 	ldw	r2,-220(fp)
    1720:	1085883a 	add	r2,r2,r2
    1724:	1085883a 	add	r2,r2,r2
    1728:	100b883a 	mov	r5,r2
    172c:	e0bfc817 	ldw	r2,-224(fp)
    1730:	1085883a 	add	r2,r2,r2
    1734:	1085883a 	add	r2,r2,r2
    1738:	100d883a 	mov	r6,r2
    173c:	e0bfc717 	ldw	r2,-228(fp)
    1740:	1085883a 	add	r2,r2,r2
    1744:	1085883a 	add	r2,r2,r2
    1748:	100f883a 	mov	r7,r2
    174c:	e0bfc617 	ldw	r2,-232(fp)
    1750:	1085883a 	add	r2,r2,r2
    1754:	1085883a 	add	r2,r2,r2
    1758:	e0ffc10f 	ldh	r3,-252(fp)
    175c:	d8800015 	stw	r2,0(sp)
    1760:	d8c00115 	stw	r3,4(sp)
    1764:	d8000215 	stw	zero,8(sp)
    1768:	e13fcf17 	ldw	r4,-196(fp)
    176c:	0006f9c0 	call	6f9c <alt_up_pixel_buffer_dma_draw_box>
						blue_y2 * 4, color, 0);

					blue_x1 = 35; blue_x2 = 45; blue_y1 = 4; blue_y2 = 14;
    1770:	008008c4 	movi	r2,35
    1774:	e0bfc915 	stw	r2,-220(fp)
    1778:	00800b44 	movi	r2,45
    177c:	e0bfc715 	stw	r2,-228(fp)
    1780:	00800104 	movi	r2,4
    1784:	e0bfc815 	stw	r2,-224(fp)
    1788:	00800384 	movi	r2,14
    178c:	e0bfc615 	stw	r2,-232(fp)
					//Green Box For Record //Record ******************
					// character coords * 4 since characters are 4 x 4 pixel buffer coords (8 x 8 VGA coords)
					color = 0x100F;		//
    1790:	008403c4 	movi	r2,4111
    1794:	e0bfc10d 	sth	r2,-252(fp)
					alt_up_pixel_buffer_dma_draw_box (pixel_buffer_dev, blue_x1 * 4, blue_y1 * 4, blue_x2 * 4,
    1798:	e0bfc917 	ldw	r2,-220(fp)
    179c:	1085883a 	add	r2,r2,r2
    17a0:	1085883a 	add	r2,r2,r2
    17a4:	100b883a 	mov	r5,r2
    17a8:	e0bfc817 	ldw	r2,-224(fp)
    17ac:	1085883a 	add	r2,r2,r2
    17b0:	1085883a 	add	r2,r2,r2
    17b4:	100d883a 	mov	r6,r2
    17b8:	e0bfc717 	ldw	r2,-228(fp)
    17bc:	1085883a 	add	r2,r2,r2
    17c0:	1085883a 	add	r2,r2,r2
    17c4:	100f883a 	mov	r7,r2
    17c8:	e0bfc617 	ldw	r2,-232(fp)
    17cc:	1085883a 	add	r2,r2,r2
    17d0:	1085883a 	add	r2,r2,r2
    17d4:	e0ffc10f 	ldh	r3,-252(fp)
    17d8:	d8800015 	stw	r2,0(sp)
    17dc:	d8c00115 	stw	r3,4(sp)
    17e0:	d8000215 	stw	zero,8(sp)
    17e4:	e13fcf17 	ldw	r4,-196(fp)
    17e8:	0006f9c0 	call	6f9c <alt_up_pixel_buffer_dma_draw_box>
						blue_y2 * 4, color, 0);
					alt_up_char_buffer_string (char_buffer_dev, text_Play, blue_x1 + 4, blue_y1 + 4);
    17ec:	e0bfc917 	ldw	r2,-220(fp)
    17f0:	10800104 	addi	r2,r2,4
    17f4:	100d883a 	mov	r6,r2
    17f8:	e0bfc817 	ldw	r2,-224(fp)
    17fc:	10800104 	addi	r2,r2,4
    1800:	100f883a 	mov	r7,r2
    1804:	e17ff004 	addi	r5,fp,-64
    1808:	e13fd017 	ldw	r4,-192(fp)
    180c:	0006a040 	call	6a04 <alt_up_char_buffer_string>
				}
			}


			else if(Temp_MouseX >= 140 && Temp_MouseX <= 180 && Temp_MouseY >= 16 && Temp_MouseY <= 56){
				if(Temp_MouseX <= 142 || Temp_MouseX >= 178 || Temp_MouseY <= 20 || Temp_MouseY >= 52){
    1810:	0000a106 	br	1a98 <main+0xfc4>
						blue_y2 * 4, color, 0);
					alt_up_char_buffer_string (char_buffer_dev, text_Play, blue_x1 + 4, blue_y1 + 4);

				}
				else {
					color = 0x100F;		// a medium blue color
    1814:	008403c4 	movi	r2,4111
    1818:	e0bfc10d 	sth	r2,-252(fp)
					alt_up_pixel_buffer_dma_draw_box (pixel_buffer_dev, Temp_MouseX - 2, Temp_MouseY - 2, Temp_MouseX + 2, Temp_MouseY + 2, color, 1);
    181c:	e0bfcb17 	ldw	r2,-212(fp)
    1820:	117fff84 	addi	r5,r2,-2
    1824:	e0bfca17 	ldw	r2,-216(fp)
    1828:	11bfff84 	addi	r6,r2,-2
    182c:	e0bfcb17 	ldw	r2,-212(fp)
    1830:	11c00084 	addi	r7,r2,2
    1834:	e0bfca17 	ldw	r2,-216(fp)
    1838:	10800084 	addi	r2,r2,2
    183c:	e0ffc10f 	ldh	r3,-252(fp)
    1840:	d8800015 	stw	r2,0(sp)
    1844:	d8c00115 	stw	r3,4(sp)
    1848:	00800044 	movi	r2,1
    184c:	d8800215 	stw	r2,8(sp)
    1850:	e13fcf17 	ldw	r4,-196(fp)
    1854:	0006f9c0 	call	6f9c <alt_up_pixel_buffer_dma_draw_box>
					alt_up_pixel_buffer_dma_draw_box (pixel_buffer_dev, Temp_MouseX - 2, Temp_MouseY - 2, Temp_MouseX + 2, Temp_MouseY + 2, color, 1);
				}
			}


			else if(Temp_MouseX >= 140 && Temp_MouseX <= 180 && Temp_MouseY >= 16 && Temp_MouseY <= 56){
    1858:	00008f06 	br	1a98 <main+0xfc4>
					color = 0x100F;		// a medium blue color
					alt_up_pixel_buffer_dma_draw_box (pixel_buffer_dev, Temp_MouseX - 2, Temp_MouseY - 2, Temp_MouseX + 2, Temp_MouseY + 2, color, 1);
				}
			}

			else if(Temp_MouseX >= 220 && Temp_MouseX <= 260 && Temp_MouseY >= 16 && Temp_MouseY <= 56){
    185c:	e0bfcb17 	ldw	r2,-212(fp)
    1860:	10803710 	cmplti	r2,r2,220
    1864:	10006f1e 	bne	r2,zero,1a24 <main+0xf50>
    1868:	e0bfcb17 	ldw	r2,-212(fp)
    186c:	10804148 	cmpgei	r2,r2,261
    1870:	10006c1e 	bne	r2,zero,1a24 <main+0xf50>
    1874:	e0bfca17 	ldw	r2,-216(fp)
    1878:	10800410 	cmplti	r2,r2,16
    187c:	1000691e 	bne	r2,zero,1a24 <main+0xf50>
    1880:	e0bfca17 	ldw	r2,-216(fp)
    1884:	10800e48 	cmpgei	r2,r2,57
    1888:	1000661e 	bne	r2,zero,1a24 <main+0xf50>
				if(Temp_MouseX <= 222 || Temp_MouseX >= 258 || Temp_MouseY <= 20 || Temp_MouseY >= 52){
    188c:	e0bfcb17 	ldw	r2,-212(fp)
    1890:	108037d0 	cmplti	r2,r2,223
    1894:	1000091e 	bne	r2,zero,18bc <main+0xde8>
    1898:	e0bfcb17 	ldw	r2,-212(fp)
    189c:	10804088 	cmpgei	r2,r2,258
    18a0:	1000061e 	bne	r2,zero,18bc <main+0xde8>
    18a4:	e0bfca17 	ldw	r2,-216(fp)
    18a8:	10800550 	cmplti	r2,r2,21
    18ac:	1000031e 	bne	r2,zero,18bc <main+0xde8>
    18b0:	e0bfca17 	ldw	r2,-216(fp)
    18b4:	10800d10 	cmplti	r2,r2,52
    18b8:	1000481e 	bne	r2,zero,19dc <main+0xf08>

					// draw a medium-blue box in the middle of the screen, using character buffer coordinates
					blue_x1 = 54; blue_x2 = 66; blue_y1 = 3; blue_y2 = 15;
    18bc:	00800d84 	movi	r2,54
    18c0:	e0bfc915 	stw	r2,-220(fp)
    18c4:	00801084 	movi	r2,66
    18c8:	e0bfc715 	stw	r2,-228(fp)
    18cc:	008000c4 	movi	r2,3
    18d0:	e0bfc815 	stw	r2,-224(fp)
    18d4:	008003c4 	movi	r2,15
    18d8:	e0bfc615 	stw	r2,-232(fp)
					// character coords * 4 since characters are 4 x 4 pixel buffer coords (8 x 8 VGA coords)
					color = 0x0360;		// a medium blue color
    18dc:	0080d804 	movi	r2,864
    18e0:	e0bfc10d 	sth	r2,-252(fp)
					alt_up_pixel_buffer_dma_draw_box (pixel_buffer_dev, blue_x1 * 4, blue_y1 * 4, blue_x2 * 4,
    18e4:	e0bfc917 	ldw	r2,-220(fp)
    18e8:	1085883a 	add	r2,r2,r2
    18ec:	1085883a 	add	r2,r2,r2
    18f0:	100b883a 	mov	r5,r2
    18f4:	e0bfc817 	ldw	r2,-224(fp)
    18f8:	1085883a 	add	r2,r2,r2
    18fc:	1085883a 	add	r2,r2,r2
    1900:	100d883a 	mov	r6,r2
    1904:	e0bfc717 	ldw	r2,-228(fp)
    1908:	1085883a 	add	r2,r2,r2
    190c:	1085883a 	add	r2,r2,r2
    1910:	100f883a 	mov	r7,r2
    1914:	e0bfc617 	ldw	r2,-232(fp)
    1918:	1085883a 	add	r2,r2,r2
    191c:	1085883a 	add	r2,r2,r2
    1920:	e0ffc10f 	ldh	r3,-252(fp)
    1924:	d8800015 	stw	r2,0(sp)
    1928:	d8c00115 	stw	r3,4(sp)
    192c:	d8000215 	stw	zero,8(sp)
    1930:	e13fcf17 	ldw	r4,-196(fp)
    1934:	0006f9c0 	call	6f9c <alt_up_pixel_buffer_dma_draw_box>
						blue_y2 * 4, color, 0);

					//Green Box For Record //Record ******************
					// character coords * 4 since characters are 4 x 4 pixel buffer coords (8 x 8 VGA coords)
					blue_x1 = 55; blue_x2 = 65; blue_y1 = 4; blue_y2 = 14;
    1938:	00800dc4 	movi	r2,55
    193c:	e0bfc915 	stw	r2,-220(fp)
    1940:	00801044 	movi	r2,65
    1944:	e0bfc715 	stw	r2,-228(fp)
    1948:	00800104 	movi	r2,4
    194c:	e0bfc815 	stw	r2,-224(fp)
    1950:	00800384 	movi	r2,14
    1954:	e0bfc615 	stw	r2,-232(fp)
					color = 0x100F;
    1958:	008403c4 	movi	r2,4111
    195c:	e0bfc10d 	sth	r2,-252(fp)
					alt_up_pixel_buffer_dma_draw_box (pixel_buffer_dev, blue_x1 * 4, blue_y1 * 4, blue_x2 * 4,
    1960:	e0bfc917 	ldw	r2,-220(fp)
    1964:	1085883a 	add	r2,r2,r2
    1968:	1085883a 	add	r2,r2,r2
    196c:	100b883a 	mov	r5,r2
    1970:	e0bfc817 	ldw	r2,-224(fp)
    1974:	1085883a 	add	r2,r2,r2
    1978:	1085883a 	add	r2,r2,r2
    197c:	100d883a 	mov	r6,r2
    1980:	e0bfc717 	ldw	r2,-228(fp)
    1984:	1085883a 	add	r2,r2,r2
    1988:	1085883a 	add	r2,r2,r2
    198c:	100f883a 	mov	r7,r2
    1990:	e0bfc617 	ldw	r2,-232(fp)
    1994:	1085883a 	add	r2,r2,r2
    1998:	1085883a 	add	r2,r2,r2
    199c:	e0ffc10f 	ldh	r3,-252(fp)
    19a0:	d8800015 	stw	r2,0(sp)
    19a4:	d8c00115 	stw	r3,4(sp)
    19a8:	d8000215 	stw	zero,8(sp)
    19ac:	e13fcf17 	ldw	r4,-196(fp)
    19b0:	0006f9c0 	call	6f9c <alt_up_pixel_buffer_dma_draw_box>
						blue_y2 * 4, color, 0);
					alt_up_char_buffer_string (char_buffer_dev, text_Echo, blue_x1 + 4, blue_y1 + 4);
    19b4:	e0bfc917 	ldw	r2,-220(fp)
    19b8:	10800104 	addi	r2,r2,4
    19bc:	100d883a 	mov	r6,r2
    19c0:	e0bfc817 	ldw	r2,-224(fp)
    19c4:	10800104 	addi	r2,r2,4
    19c8:	100f883a 	mov	r7,r2
    19cc:	e17ff504 	addi	r5,fp,-44
    19d0:	e13fd017 	ldw	r4,-192(fp)
    19d4:	0006a040 	call	6a04 <alt_up_char_buffer_string>
					alt_up_pixel_buffer_dma_draw_box (pixel_buffer_dev, Temp_MouseX - 2, Temp_MouseY - 2, Temp_MouseX + 2, Temp_MouseY + 2, color, 1);
				}
			}

			else if(Temp_MouseX >= 220 && Temp_MouseX <= 260 && Temp_MouseY >= 16 && Temp_MouseY <= 56){
				if(Temp_MouseX <= 222 || Temp_MouseX >= 258 || Temp_MouseY <= 20 || Temp_MouseY >= 52){
    19d8:	00002f06 	br	1a98 <main+0xfc4>
						blue_y2 * 4, color, 0);
					alt_up_char_buffer_string (char_buffer_dev, text_Echo, blue_x1 + 4, blue_y1 + 4);

				}
				else {
					color = 0x100F;		// a medium blue color
    19dc:	008403c4 	movi	r2,4111
    19e0:	e0bfc10d 	sth	r2,-252(fp)
					alt_up_pixel_buffer_dma_draw_box (pixel_buffer_dev, Temp_MouseX - 2, Temp_MouseY - 2, Temp_MouseX + 2, Temp_MouseY + 2, color, 1);
    19e4:	e0bfcb17 	ldw	r2,-212(fp)
    19e8:	117fff84 	addi	r5,r2,-2
    19ec:	e0bfca17 	ldw	r2,-216(fp)
    19f0:	11bfff84 	addi	r6,r2,-2
    19f4:	e0bfcb17 	ldw	r2,-212(fp)
    19f8:	11c00084 	addi	r7,r2,2
    19fc:	e0bfca17 	ldw	r2,-216(fp)
    1a00:	10800084 	addi	r2,r2,2
    1a04:	e0ffc10f 	ldh	r3,-252(fp)
    1a08:	d8800015 	stw	r2,0(sp)
    1a0c:	d8c00115 	stw	r3,4(sp)
    1a10:	00800044 	movi	r2,1
    1a14:	d8800215 	stw	r2,8(sp)
    1a18:	e13fcf17 	ldw	r4,-196(fp)
    1a1c:	0006f9c0 	call	6f9c <alt_up_pixel_buffer_dma_draw_box>
					color = 0x100F;		// a medium blue color
					alt_up_pixel_buffer_dma_draw_box (pixel_buffer_dev, Temp_MouseX - 2, Temp_MouseY - 2, Temp_MouseX + 2, Temp_MouseY + 2, color, 1);
				}
			}

			else if(Temp_MouseX >= 220 && Temp_MouseX <= 260 && Temp_MouseY >= 16 && Temp_MouseY <= 56){
    1a20:	00001d06 	br	1a98 <main+0xfc4>
					alt_up_pixel_buffer_dma_draw_box (pixel_buffer_dev, Temp_MouseX - 2, Temp_MouseY - 2, Temp_MouseX + 2, Temp_MouseY + 2, color, 1);
				}
			}

			//Boxe Out
			else if(Temp_MouseX >= 0 && Temp_MouseX <= 400 && Temp_MouseY >= 0 && Temp_MouseY <= 80){
    1a24:	e0bfcb17 	ldw	r2,-212(fp)
    1a28:	1004803a 	cmplt	r2,r2,zero
    1a2c:	10001a1e 	bne	r2,zero,1a98 <main+0xfc4>
    1a30:	e0bfcb17 	ldw	r2,-212(fp)
    1a34:	10806448 	cmpgei	r2,r2,401
    1a38:	1000171e 	bne	r2,zero,1a98 <main+0xfc4>
    1a3c:	e0bfca17 	ldw	r2,-216(fp)
    1a40:	1004803a 	cmplt	r2,r2,zero
    1a44:	1000141e 	bne	r2,zero,1a98 <main+0xfc4>
    1a48:	e0bfca17 	ldw	r2,-216(fp)
    1a4c:	10801448 	cmpgei	r2,r2,81
    1a50:	1000111e 	bne	r2,zero,1a98 <main+0xfc4>
				color = 0x0360;
    1a54:	0080d804 	movi	r2,864
    1a58:	e0bfc10d 	sth	r2,-252(fp)
				alt_up_pixel_buffer_dma_draw_box (pixel_buffer_dev, Temp_MouseX - 2, Temp_MouseY - 2, Temp_MouseX + 2, Temp_MouseY + 2, color, 1);
    1a5c:	e0bfcb17 	ldw	r2,-212(fp)
    1a60:	117fff84 	addi	r5,r2,-2
    1a64:	e0bfca17 	ldw	r2,-216(fp)
    1a68:	11bfff84 	addi	r6,r2,-2
    1a6c:	e0bfcb17 	ldw	r2,-212(fp)
    1a70:	11c00084 	addi	r7,r2,2
    1a74:	e0bfca17 	ldw	r2,-216(fp)
    1a78:	10800084 	addi	r2,r2,2
    1a7c:	e0ffc10f 	ldh	r3,-252(fp)
    1a80:	d8800015 	stw	r2,0(sp)
    1a84:	d8c00115 	stw	r3,4(sp)
    1a88:	00800044 	movi	r2,1
    1a8c:	d8800215 	stw	r2,8(sp)
    1a90:	e13fcf17 	ldw	r4,-196(fp)
    1a94:	0006f9c0 	call	6f9c <alt_up_pixel_buffer_dma_draw_box>
//				alt_up_pixel_buffer_dma_draw_box (pixel_buffer_dev, Temp_MouseX - 2, Temp_MouseY - 2, Temp_MouseX + 2, Temp_MouseY + 2, color, 1);
//			}

//			alt_up_pixel_buffer_dma_draw_box (pixel_buffer_dev, Temp_MouseX - 2, Temp_MouseY - 2, Temp_MouseX + 2, Temp_MouseY + 2, color, 1);

			if(Xsign){
    1a98:	d0a84917 	ldw	r2,-24284(gp)
    1a9c:	1005003a 	cmpeq	r2,r2,zero
    1aa0:	1000071e 	bne	r2,zero,1ac0 <main+0xfec>
				MouseX = MouseX - (256-(alt_u8)(temp1)) - 1;
    1aa4:	e0bfbf17 	ldw	r2,-260(fp)
    1aa8:	10c03fcc 	andi	r3,r2,255
    1aac:	e0bfcd17 	ldw	r2,-204(fp)
    1ab0:	1885883a 	add	r2,r3,r2
    1ab4:	10bfbfc4 	addi	r2,r2,-257
    1ab8:	e0bfcd15 	stw	r2,-204(fp)
    1abc:	00000506 	br	1ad4 <main+0x1000>
			}
			else{
				MouseX = MouseX + (alt_u8)(temp1);
    1ac0:	e0bfbf17 	ldw	r2,-260(fp)
    1ac4:	10c03fcc 	andi	r3,r2,255
    1ac8:	e0bfcd17 	ldw	r2,-204(fp)
    1acc:	10c5883a 	add	r2,r2,r3
    1ad0:	e0bfcd15 	stw	r2,-204(fp)
			}
			if(Ysign){
    1ad4:	d0a84d17 	ldw	r2,-24268(gp)
    1ad8:	1005003a 	cmpeq	r2,r2,zero
    1adc:	1000071e 	bne	r2,zero,1afc <main+0x1028>
				MouseY = MouseY + (256-(alt_u8)(temp2)) + 1;
    1ae0:	e0bfbe17 	ldw	r2,-264(fp)
    1ae4:	10c03fcc 	andi	r3,r2,255
    1ae8:	e0bfcc17 	ldw	r2,-208(fp)
    1aec:	10c5c83a 	sub	r2,r2,r3
    1af0:	10804044 	addi	r2,r2,257
    1af4:	e0bfcc15 	stw	r2,-208(fp)
    1af8:	00000506 	br	1b10 <main+0x103c>
			}
			else {
				MouseY = MouseY - (alt_u8)(temp2);
    1afc:	e0bfbe17 	ldw	r2,-264(fp)
    1b00:	10c03fcc 	andi	r3,r2,255
    1b04:	e0bfcc17 	ldw	r2,-208(fp)
    1b08:	10c5c83a 	sub	r2,r2,r3
    1b0c:	e0bfcc15 	stw	r2,-208(fp)
			}
			if(MouseX >= 320){
    1b10:	e0bfcd17 	ldw	r2,-204(fp)
    1b14:	10805010 	cmplti	r2,r2,320
    1b18:	1000021e 	bne	r2,zero,1b24 <main+0x1050>
				MouseX = 320;
    1b1c:	00805004 	movi	r2,320
    1b20:	e0bfcd15 	stw	r2,-204(fp)
			}
			if(MouseX <= 2){
    1b24:	e0bfcd17 	ldw	r2,-204(fp)
    1b28:	108000c8 	cmpgei	r2,r2,3
    1b2c:	1000021e 	bne	r2,zero,1b38 <main+0x1064>
				MouseX = 2;
    1b30:	00800084 	movi	r2,2
    1b34:	e0bfcd15 	stw	r2,-204(fp)
			}
			if(MouseY >= 77){
    1b38:	e0bfcc17 	ldw	r2,-208(fp)
    1b3c:	10801350 	cmplti	r2,r2,77
    1b40:	1000021e 	bne	r2,zero,1b4c <main+0x1078>
				MouseY = 77;
    1b44:	00801344 	movi	r2,77
    1b48:	e0bfcc15 	stw	r2,-208(fp)
			}
			if(MouseY <= 2){
    1b4c:	e0bfcc17 	ldw	r2,-208(fp)
    1b50:	108000c8 	cmpgei	r2,r2,3
    1b54:	1000021e 	bne	r2,zero,1b60 <main+0x108c>
				MouseY = 2;
    1b58:	00800084 	movi	r2,2
    1b5c:	e0bfcc15 	stw	r2,-208(fp)
			}
			color = 0xDDDD;		// a medium blue color
    1b60:	00b77744 	movi	r2,-8739
    1b64:	e0bfc10d 	sth	r2,-252(fp)
			alt_up_pixel_buffer_dma_draw_box (pixel_buffer_dev, MouseX - 2, MouseY - 2, MouseX + 2, MouseY + 2, color, 1);
    1b68:	e0bfcd17 	ldw	r2,-204(fp)
    1b6c:	117fff84 	addi	r5,r2,-2
    1b70:	e0bfcc17 	ldw	r2,-208(fp)
    1b74:	11bfff84 	addi	r6,r2,-2
    1b78:	e0bfcd17 	ldw	r2,-204(fp)
    1b7c:	11c00084 	addi	r7,r2,2
    1b80:	e0bfcc17 	ldw	r2,-208(fp)
    1b84:	10800084 	addi	r2,r2,2
    1b88:	e0ffc10f 	ldh	r3,-252(fp)
    1b8c:	d8800015 	stw	r2,0(sp)
    1b90:	d8c00115 	stw	r3,4(sp)
    1b94:	00800044 	movi	r2,1
    1b98:	d8800215 	stw	r2,8(sp)
    1b9c:	e13fcf17 	ldw	r4,-196(fp)
    1ba0:	0006f9c0 	call	6f9c <alt_up_pixel_buffer_dma_draw_box>
//						alt_up_pixel_buffer_dma_draw_box (pixel_buffer_dev, MouseX - a, MouseY - b,MouseX - a+1, MouseY - b+1, color, 1);
//					}
//				}
//			}

			Temp_MouseX = MouseX;
    1ba4:	e0bfcd17 	ldw	r2,-204(fp)
    1ba8:	e0bfcb15 	stw	r2,-212(fp)
			Temp_MouseY = MouseY;
    1bac:	e0bfcc17 	ldw	r2,-208(fp)
    1bb0:	e0bfca15 	stw	r2,-216(fp)

			//Record interrupt
			if(MouseX >= 60 && MouseX <= 100 && MouseY >= 16 && MouseY <= 56 && LeftBtn){
    1bb4:	e0bfcd17 	ldw	r2,-204(fp)
    1bb8:	10800f10 	cmplti	r2,r2,60
    1bbc:	10001a1e 	bne	r2,zero,1c28 <main+0x1154>
    1bc0:	e0bfcd17 	ldw	r2,-204(fp)
    1bc4:	10801948 	cmpgei	r2,r2,101
    1bc8:	1000171e 	bne	r2,zero,1c28 <main+0x1154>
    1bcc:	e0bfcc17 	ldw	r2,-208(fp)
    1bd0:	10800410 	cmplti	r2,r2,16
    1bd4:	1000141e 	bne	r2,zero,1c28 <main+0x1154>
    1bd8:	e0bfcc17 	ldw	r2,-208(fp)
    1bdc:	10800e48 	cmpgei	r2,r2,57
    1be0:	1000111e 	bne	r2,zero,1c28 <main+0x1154>
    1be4:	d0a84b17 	ldw	r2,-24276(gp)
    1be8:	1005003a 	cmpeq	r2,r2,zero
    1bec:	10000e1e 	bne	r2,zero,1c28 <main+0x1154>
				index_Echo = 0;
    1bf0:	d0284515 	stw	zero,-24300(gp)
				Echo_complete = 0;
    1bf4:	00800074 	movhi	r2,1
    1bf8:	10808504 	addi	r2,r2,532
    1bfc:	10000015 	stw	zero,0(r2)
				Click_Echo = 0;
    1c00:	00800074 	movhi	r2,1
    1c04:	10808e04 	addi	r2,r2,568
    1c08:	10000015 	stw	zero,0(r2)
				// reset the buffer index for recording
				buf_index_record = 0;
    1c0c:	00800074 	movhi	r2,1
    1c10:	10808d04 	addi	r2,r2,564
    1c14:	10000015 	stw	zero,0(r2)
				// clear audio FIFOs
				alt_up_audio_reset_audio_core (audio_dev);
    1c18:	e13fd117 	ldw	r4,-188(fp)
    1c1c:	0004b300 	call	4b30 <alt_up_audio_reset_audio_core>
				// enable audio-in interrupts
				alt_up_audio_enable_read_interrupt (audio_dev);
    1c20:	e13fd117 	ldw	r4,-188(fp)
    1c24:	00049800 	call	4980 <alt_up_audio_enable_read_interrupt>
			}

			//Play interrupt
			if(MouseX >= 140 && MouseX <= 180 && MouseY >= 16 && MouseY <= 56 && LeftBtn){
    1c28:	e0bfcd17 	ldw	r2,-204(fp)
    1c2c:	10802310 	cmplti	r2,r2,140
    1c30:	1000231e 	bne	r2,zero,1cc0 <main+0x11ec>
    1c34:	e0bfcd17 	ldw	r2,-204(fp)
    1c38:	10802d48 	cmpgei	r2,r2,181
    1c3c:	1000201e 	bne	r2,zero,1cc0 <main+0x11ec>
    1c40:	e0bfcc17 	ldw	r2,-208(fp)
    1c44:	10800410 	cmplti	r2,r2,16
    1c48:	10001d1e 	bne	r2,zero,1cc0 <main+0x11ec>
    1c4c:	e0bfcc17 	ldw	r2,-208(fp)
    1c50:	10800e48 	cmpgei	r2,r2,57
    1c54:	10001a1e 	bne	r2,zero,1cc0 <main+0x11ec>
    1c58:	d0a84b17 	ldw	r2,-24276(gp)
    1c5c:	1005003a 	cmpeq	r2,r2,zero
    1c60:	1000171e 	bne	r2,zero,1cc0 <main+0x11ec>
				Click_Echo = 0;
    1c64:	00800074 	movhi	r2,1
    1c68:	10808e04 	addi	r2,r2,568
    1c6c:	10000015 	stw	zero,0(r2)
				Play_Index = 0;
    1c70:	00800074 	movhi	r2,1
    1c74:	10808204 	addi	r2,r2,520
    1c78:	10000015 	stw	zero,0(r2)
				alt_up_pixel_buffer_dma_draw_box (pixel_buffer_dev, 0 , 200, 100 * 4,
    1c7c:	00803e84 	movi	r2,250
    1c80:	d8800015 	stw	r2,0(sp)
    1c84:	0080ca04 	movi	r2,808
    1c88:	d8800115 	stw	r2,4(sp)
    1c8c:	d8000215 	stw	zero,8(sp)
    1c90:	e13fcf17 	ldw	r4,-196(fp)
    1c94:	000b883a 	mov	r5,zero
    1c98:	01803204 	movi	r6,200
    1c9c:	01c06404 	movi	r7,400
    1ca0:	0006f9c0 	call	6f9c <alt_up_pixel_buffer_dma_draw_box>
					250, 0x0328, 0);
				// reset the buffer index for recording
				buf_index_play = 0;
    1ca4:	00800074 	movhi	r2,1
    1ca8:	10808b04 	addi	r2,r2,556
    1cac:	10000015 	stw	zero,0(r2)
				// clear audio FIFOs
				alt_up_audio_reset_audio_core (audio_dev);
    1cb0:	e13fd117 	ldw	r4,-188(fp)
    1cb4:	0004b300 	call	4b30 <alt_up_audio_reset_audio_core>
				// enable audio-in interrupts
				alt_up_audio_enable_write_interrupt (audio_dev);
    1cb8:	e13fd117 	ldw	r4,-188(fp)
    1cbc:	0004a1c0 	call	4a1c <alt_up_audio_enable_write_interrupt>
			}

			//Echo interrupt
			if(MouseX >= 220 && MouseX <= 260 && MouseY >= 16 && MouseY <= 56 && LeftBtn){
    1cc0:	e0bfcd17 	ldw	r2,-204(fp)
    1cc4:	10803710 	cmplti	r2,r2,220
    1cc8:	1000181e 	bne	r2,zero,1d2c <main+0x1258>
    1ccc:	e0bfcd17 	ldw	r2,-204(fp)
    1cd0:	10804148 	cmpgei	r2,r2,261
    1cd4:	1000151e 	bne	r2,zero,1d2c <main+0x1258>
    1cd8:	e0bfcc17 	ldw	r2,-208(fp)
    1cdc:	10800410 	cmplti	r2,r2,16
    1ce0:	1000121e 	bne	r2,zero,1d2c <main+0x1258>
    1ce4:	e0bfcc17 	ldw	r2,-208(fp)
    1ce8:	10800e48 	cmpgei	r2,r2,57
    1cec:	10000f1e 	bne	r2,zero,1d2c <main+0x1258>
    1cf0:	d0a84b17 	ldw	r2,-24276(gp)
    1cf4:	1005003a 	cmpeq	r2,r2,zero
    1cf8:	10000c1e 	bne	r2,zero,1d2c <main+0x1258>
				Do_Soft_Echo();
    1cfc:	00020980 	call	2098 <Do_Soft_Echo>
				Click_Echo = 1;
    1d00:	00800074 	movhi	r2,1
    1d04:	10808e04 	addi	r2,r2,568
    1d08:	00c00044 	movi	r3,1
    1d0c:	10c00015 	stw	r3,0(r2)
				// reset the buffer index for recording
				buf_index_play = 0;
    1d10:	00800074 	movhi	r2,1
    1d14:	10808b04 	addi	r2,r2,556
    1d18:	10000015 	stw	zero,0(r2)
				// clear audio FIFOs
				alt_up_audio_reset_audio_core (audio_dev);
    1d1c:	e13fd117 	ldw	r4,-188(fp)
    1d20:	0004b300 	call	4b30 <alt_up_audio_reset_audio_core>
				// enable audio-in interrupts
				alt_up_audio_enable_write_interrupt (audio_dev);
    1d24:	e13fd117 	ldw	r4,-188(fp)
    1d28:	0004a1c0 	call	4a1c <alt_up_audio_enable_write_interrupt>
			}
//			if(Echo_End == 1 && Echo_complete == 0){
//				Do_Echo();
//			}

			if(End_Record == 1){
    1d2c:	00800074 	movhi	r2,1
    1d30:	10808804 	addi	r2,r2,544
    1d34:	10800017 	ldw	r2,0(r2)
    1d38:	10800058 	cmpnei	r2,r2,1
    1d3c:	1000071e 	bne	r2,zero,1d5c <main+0x1288>
//				Audio_Average(); // Software Calculate
				Do_Hardware_Calculate();//Hardware Calculate
    1d40:	00027ac0 	call	27ac <Do_Hardware_Calculate>
				Calculate_Avrage();//For Hardware
    1d44:	00027f80 	call	27f8 <Calculate_Avrage>
				Plot_AudioRecord(pixel_buffer_dev);
    1d48:	e13fcf17 	ldw	r4,-196(fp)
    1d4c:	000223c0 	call	223c <Plot_AudioRecord>
				End_Record = 0;
    1d50:	00800074 	movhi	r2,1
    1d54:	10808804 	addi	r2,r2,544
    1d58:	10000015 	stw	zero,0(r2)
			}
			Plot_Play_Audio(pixel_buffer_dev);
    1d5c:	e13fcf17 	ldw	r4,-196(fp)
    1d60:	00026a00 	call	26a0 <Plot_Play_Audio>
			timeout = 0;
    1d64:	00800074 	movhi	r2,1
    1d68:	10808904 	addi	r2,r2,548
    1d6c:	10000015 	stw	zero,0(r2)

		}
    1d70:	003d9b06 	br	13e0 <main+0x90c>
    1d74:	e0bfff17 	ldw	r2,-4(fp)
}
    1d78:	e037883a 	mov	sp,fp
    1d7c:	dfc00117 	ldw	ra,4(sp)
    1d80:	df000017 	ldw	fp,0(sp)
    1d84:	dec00204 	addi	sp,sp,8
    1d88:	f800283a 	ret

00001d8c <HEXxy_PS2>:
 * also use the HAL functions for these ports instead
 ****************************************************************************************/

/****************************************************************************************/
void HEXxy_PS2(struct alt_up_dev *up_dev,unsigned char b1, unsigned char b2, unsigned char b3)
{
    1d8c:	deffec04 	addi	sp,sp,-80
    1d90:	dfc01315 	stw	ra,76(sp)
    1d94:	df001215 	stw	fp,72(sp)
    1d98:	df001204 	addi	fp,sp,72
    1d9c:	e13ffc15 	stw	r4,-16(fp)
    1da0:	e17ffd05 	stb	r5,-12(fp)
    1da4:	e1bffe05 	stb	r6,-8(fp)
    1da8:	e1ffff05 	stb	r7,-4(fp)
	volatile int *HEX3_HEX0_ptr = (int *) 0x10000020;
    1dac:	00840034 	movhi	r2,4096
    1db0:	10800804 	addi	r2,r2,32
    1db4:	e0bff515 	stw	r2,-44(fp)
	volatile int *HEX7_HEX4_ptr = (int *) 0x10000030;
    1db8:	00840034 	movhi	r2,4096
    1dbc:	10800c04 	addi	r2,r2,48
    1dc0:	e0bff415 	stw	r2,-48(fp)

	/* SEVEN_SEGMENT_DECODE_TABLE gives the on/off settings for all segments in
	 * a single 7-seg display in the DE2 Media Computer, for the hex digits 0 - F */
	unsigned char	seven_seg_decode_table[] = {0x3F, 0x06, 0x5B, 0x4F, 0x66, 0x6D, 0x7D, 0x07,
												0x7F, 0x67, 0x77, 0x7C, 0x39, 0x5E, 0x79, 0x71  };
    1dc4:	00800074 	movhi	r2,1
    1dc8:	10af8d04 	addi	r2,r2,-16844
    1dcc:	e13ff604 	addi	r4,fp,-40
    1dd0:	100b883a 	mov	r5,r2
    1dd4:	01800404 	movi	r6,16
    1dd8:	00032480 	call	3248 <memcpy>
	unsigned char	hex_segs[] = { 0, 0, 0, 0, 0, 0, 0, 0 };
    1ddc:	e03ffa05 	stb	zero,-24(fp)
    1de0:	e03ffa45 	stb	zero,-23(fp)
    1de4:	e03ffa85 	stb	zero,-22(fp)
    1de8:	e03ffac5 	stb	zero,-21(fp)
    1dec:	e03ffb05 	stb	zero,-20(fp)
    1df0:	e03ffb45 	stb	zero,-19(fp)
    1df4:	e03ffb85 	stb	zero,-18(fp)
    1df8:	e03ffbc5 	stb	zero,-17(fp)
	unsigned int shift_buffer,Temp_Buffer, nibble;
	unsigned char code;
	unsigned int Mouse_Btn;
	int i;

	shift_buffer = (b1 << 16) | (b2 << 8) | b3;
    1dfc:	e0bffd03 	ldbu	r2,-12(fp)
    1e00:	1006943a 	slli	r3,r2,16
    1e04:	e0bffe03 	ldbu	r2,-8(fp)
    1e08:	1004923a 	slli	r2,r2,8
    1e0c:	1886b03a 	or	r3,r3,r2
    1e10:	e0bfff03 	ldbu	r2,-4(fp)
    1e14:	1884b03a 	or	r2,r3,r2
    1e18:	e0bff315 	stw	r2,-52(fp)
	Temp_Buffer = shift_buffer;
    1e1c:	e0bff317 	ldw	r2,-52(fp)
    1e20:	e0bff215 	stw	r2,-56(fp)


	for ( i = 0; i < 6; i++ )
    1e24:	e03fee15 	stw	zero,-72(fp)
    1e28:	00008a06 	br	2054 <HEXxy_PS2+0x2c8>
	{
		nibble = shift_buffer & 0x0000000F;		// character is in rightmost nibble
    1e2c:	e0bff317 	ldw	r2,-52(fp)
    1e30:	108003cc 	andi	r2,r2,15
    1e34:	e0bff115 	stw	r2,-60(fp)
		code = seven_seg_decode_table[nibble];
    1e38:	e0fff117 	ldw	r3,-60(fp)
    1e3c:	e0bff604 	addi	r2,fp,-40
    1e40:	10c5883a 	add	r2,r2,r3
    1e44:	10800003 	ldbu	r2,0(r2)
    1e48:	e0bff005 	stb	r2,-64(fp)
		if(i==0){
    1e4c:	e0bfee17 	ldw	r2,-72(fp)
    1e50:	1004c03a 	cmpne	r2,r2,zero
    1e54:	1000131e 	bne	r2,zero,1ea4 <HEXxy_PS2+0x118>
			LeftBtn   = shift_buffer & 0x00000001;
    1e58:	e0bff317 	ldw	r2,-52(fp)
    1e5c:	1080004c 	andi	r2,r2,1
    1e60:	d0a84b15 	stw	r2,-24276(gp)
			RightBtn  = shift_buffer & 0x00000002;
    1e64:	e0bff317 	ldw	r2,-52(fp)
    1e68:	1080008c 	andi	r2,r2,2
    1e6c:	d0a84815 	stw	r2,-24288(gp)
			MiddleBtn = shift_buffer & 0x00000004;
    1e70:	e0bff317 	ldw	r2,-52(fp)
    1e74:	1080010c 	andi	r2,r2,4
    1e78:	d0a84415 	stw	r2,-24304(gp)
			Mouse_Btn = LeftBtn | MiddleBtn | RightBtn;
    1e7c:	d0e84b17 	ldw	r3,-24276(gp)
    1e80:	d0a84417 	ldw	r2,-24304(gp)
    1e84:	1886b03a 	or	r3,r3,r2
    1e88:	d0a84817 	ldw	r2,-24288(gp)
    1e8c:	1884b03a 	or	r2,r3,r2
    1e90:	e0bfef15 	stw	r2,-68(fp)
			IOWR_ALT_UP_PARALLEL_PORT_DATA(RED_LEDS_BASE,Mouse_Btn);
    1e94:	e0ffef17 	ldw	r3,-68(fp)
    1e98:	00840034 	movhi	r2,4096
    1e9c:	10c00035 	stwio	r3,0(r2)
    1ea0:	00006606 	br	203c <HEXxy_PS2+0x2b0>
		}
		else if(i==1){
    1ea4:	e0bfee17 	ldw	r2,-72(fp)
    1ea8:	10800058 	cmpnei	r2,r2,1
    1eac:	1000211e 	bne	r2,zero,1f34 <HEXxy_PS2+0x1a8>
			Xsign = shift_buffer & 0x00000001;
    1eb0:	e0bff317 	ldw	r2,-52(fp)
    1eb4:	1080004c 	andi	r2,r2,1
    1eb8:	d0a84915 	stw	r2,-24284(gp)
			Ysign = shift_buffer & 0x00000002;
    1ebc:	e0bff317 	ldw	r2,-52(fp)
    1ec0:	1080008c 	andi	r2,r2,2
    1ec4:	d0a84d15 	stw	r2,-24268(gp)
			XoverFlow = shift_buffer & 0x00000004;
    1ec8:	e0bff317 	ldw	r2,-52(fp)
    1ecc:	1080010c 	andi	r2,r2,4
    1ed0:	d0a84315 	stw	r2,-24308(gp)
			YoverFlow = shift_buffer & 0x00000008;
    1ed4:	e0bff317 	ldw	r2,-52(fp)
    1ed8:	1080020c 	andi	r2,r2,8
    1edc:	d0a84c15 	stw	r2,-24272(gp)
			hex_segs[6] = seven_seg_decode_table[Xsign];
    1ee0:	d0e84917 	ldw	r3,-24284(gp)
    1ee4:	e0bff604 	addi	r2,fp,-40
    1ee8:	10c5883a 	add	r2,r2,r3
    1eec:	10800003 	ldbu	r2,0(r2)
    1ef0:	e0bffb85 	stb	r2,-18(fp)
			hex_segs[2] = seven_seg_decode_table[Ysign];
    1ef4:	d0e84d17 	ldw	r3,-24268(gp)
    1ef8:	e0bff604 	addi	r2,fp,-40
    1efc:	10c5883a 	add	r2,r2,r3
    1f00:	10800003 	ldbu	r2,0(r2)
    1f04:	e0bffa85 	stb	r2,-22(fp)
			hex_segs[7] = seven_seg_decode_table[XoverFlow];
    1f08:	d0e84317 	ldw	r3,-24308(gp)
    1f0c:	e0bff604 	addi	r2,fp,-40
    1f10:	10c5883a 	add	r2,r2,r3
    1f14:	10800003 	ldbu	r2,0(r2)
    1f18:	e0bffbc5 	stb	r2,-17(fp)
			hex_segs[3] = seven_seg_decode_table[YoverFlow];
    1f1c:	d0e84c17 	ldw	r3,-24272(gp)
    1f20:	e0bff604 	addi	r2,fp,-40
    1f24:	10c5883a 	add	r2,r2,r3
    1f28:	10800003 	ldbu	r2,0(r2)
    1f2c:	e0bffac5 	stb	r2,-21(fp)
    1f30:	00004206 	br	203c <HEXxy_PS2+0x2b0>
		}
		else if(i==4 || i==5){
    1f34:	e0bfee17 	ldw	r2,-72(fp)
    1f38:	10800120 	cmpeqi	r2,r2,4
    1f3c:	1000031e 	bne	r2,zero,1f4c <HEXxy_PS2+0x1c0>
    1f40:	e0bfee17 	ldw	r2,-72(fp)
    1f44:	10800158 	cmpnei	r2,r2,5
    1f48:	10001b1e 	bne	r2,zero,1fb8 <HEXxy_PS2+0x22c>
			Temp_Sign = Temp_Buffer & 0x00000010;
    1f4c:	e0bff217 	ldw	r2,-56(fp)
    1f50:	1080040c 	andi	r2,r2,16
    1f54:	d0a84a15 	stw	r2,-24280(gp)
			if(Xsign){
    1f58:	d0a84917 	ldw	r2,-24284(gp)
    1f5c:	1005003a 	cmpeq	r2,r2,zero
    1f60:	10000a1e 	bne	r2,zero,1f8c <HEXxy_PS2+0x200>
				nibble_TempX = 15 - nibble;
    1f64:	00c003c4 	movi	r3,15
    1f68:	e0bff117 	ldw	r2,-60(fp)
    1f6c:	1885c83a 	sub	r2,r3,r2
    1f70:	d0a84715 	stw	r2,-24292(gp)
				code = seven_seg_decode_table[nibble_TempX];
    1f74:	d0e84717 	ldw	r3,-24292(gp)
    1f78:	e0bff604 	addi	r2,fp,-40
    1f7c:	10c5883a 	add	r2,r2,r3
    1f80:	10800003 	ldbu	r2,0(r2)
    1f84:	e0bff005 	stb	r2,-64(fp)
    1f88:	00000506 	br	1fa0 <HEXxy_PS2+0x214>
			}
			else{
				code = seven_seg_decode_table[nibble];
    1f8c:	e0fff117 	ldw	r3,-60(fp)
    1f90:	e0bff604 	addi	r2,fp,-40
    1f94:	10c5883a 	add	r2,r2,r3
    1f98:	10800003 	ldbu	r2,0(r2)
    1f9c:	e0bff005 	stb	r2,-64(fp)
			}
			hex_segs[i] = code;
    1fa0:	e0ffee17 	ldw	r3,-72(fp)
    1fa4:	e0bffa04 	addi	r2,fp,-24
    1fa8:	10c7883a 	add	r3,r2,r3
    1fac:	e0bff003 	ldbu	r2,-64(fp)
    1fb0:	18800005 	stb	r2,0(r3)
			hex_segs[6] = seven_seg_decode_table[Xsign];
			hex_segs[2] = seven_seg_decode_table[Ysign];
			hex_segs[7] = seven_seg_decode_table[XoverFlow];
			hex_segs[3] = seven_seg_decode_table[YoverFlow];
		}
		else if(i==4 || i==5){
    1fb4:	00002106 	br	203c <HEXxy_PS2+0x2b0>
			else{
				code = seven_seg_decode_table[nibble];
			}
			hex_segs[i] = code;
		}
		else if(i==2 || i==3){
    1fb8:	e0bfee17 	ldw	r2,-72(fp)
    1fbc:	108000a0 	cmpeqi	r2,r2,2
    1fc0:	1000031e 	bne	r2,zero,1fd0 <HEXxy_PS2+0x244>
    1fc4:	e0bfee17 	ldw	r2,-72(fp)
    1fc8:	108000d8 	cmpnei	r2,r2,3
    1fcc:	10001b1e 	bne	r2,zero,203c <HEXxy_PS2+0x2b0>
			Temp_Sign = Temp_Buffer & 0x00000002;
    1fd0:	e0bff217 	ldw	r2,-56(fp)
    1fd4:	1080008c 	andi	r2,r2,2
    1fd8:	d0a84a15 	stw	r2,-24280(gp)
			if(Ysign){
    1fdc:	d0a84d17 	ldw	r2,-24268(gp)
    1fe0:	1005003a 	cmpeq	r2,r2,zero
    1fe4:	10000a1e 	bne	r2,zero,2010 <HEXxy_PS2+0x284>
				nibble_TempY = 15 - nibble;
    1fe8:	00c003c4 	movi	r3,15
    1fec:	e0bff117 	ldw	r2,-60(fp)
    1ff0:	1885c83a 	sub	r2,r3,r2
    1ff4:	d0a84615 	stw	r2,-24296(gp)
				code = seven_seg_decode_table[nibble_TempY];
    1ff8:	d0e84617 	ldw	r3,-24296(gp)
    1ffc:	e0bff604 	addi	r2,fp,-40
    2000:	10c5883a 	add	r2,r2,r3
    2004:	10800003 	ldbu	r2,0(r2)
    2008:	e0bff005 	stb	r2,-64(fp)
    200c:	00000506 	br	2024 <HEXxy_PS2+0x298>
			}
			else{
				code = seven_seg_decode_table[nibble];
    2010:	e0fff117 	ldw	r3,-60(fp)
    2014:	e0bff604 	addi	r2,fp,-40
    2018:	10c5883a 	add	r2,r2,r3
    201c:	10800003 	ldbu	r2,0(r2)
    2020:	e0bff005 	stb	r2,-64(fp)
			}
			hex_segs[i-2] = code;
    2024:	e0bfee17 	ldw	r2,-72(fp)
    2028:	10ffff84 	addi	r3,r2,-2
    202c:	e0bffa04 	addi	r2,fp,-24
    2030:	10c7883a 	add	r3,r2,r3
    2034:	e0bff003 	ldbu	r2,-64(fp)
    2038:	18800005 	stb	r2,0(r3)
		}
		shift_buffer = shift_buffer >> 4;
    203c:	e0bff317 	ldw	r2,-52(fp)
    2040:	1004d13a 	srli	r2,r2,4
    2044:	e0bff315 	stw	r2,-52(fp)

	shift_buffer = (b1 << 16) | (b2 << 8) | b3;
	Temp_Buffer = shift_buffer;


	for ( i = 0; i < 6; i++ )
    2048:	e0bfee17 	ldw	r2,-72(fp)
    204c:	10800044 	addi	r2,r2,1
    2050:	e0bfee15 	stw	r2,-72(fp)
    2054:	e0bfee17 	ldw	r2,-72(fp)
    2058:	10800190 	cmplti	r2,r2,6
    205c:	103f731e 	bne	r2,zero,1e2c <HEXxy_PS2+0xa0>
			hex_segs[i-2] = code;
		}
		shift_buffer = shift_buffer >> 4;
	}
	/* drive the hex displays */
	*(HEX3_HEX0_ptr) = *(int *) (hex_segs);
    2060:	e0bffa04 	addi	r2,fp,-24
    2064:	10c00017 	ldw	r3,0(r2)
    2068:	e0bff517 	ldw	r2,-44(fp)
    206c:	10c00015 	stw	r3,0(r2)
	*(HEX7_HEX4_ptr) = *(int *) (hex_segs+4);
    2070:	e0bffa04 	addi	r2,fp,-24
    2074:	10800104 	addi	r2,r2,4
    2078:	10c00017 	ldw	r3,0(r2)
    207c:	e0bff417 	ldw	r2,-48(fp)
    2080:	10c00015 	stw	r3,0(r2)
}
    2084:	e037883a 	mov	sp,fp
    2088:	dfc00117 	ldw	ra,4(sp)
    208c:	df000017 	ldw	fp,0(sp)
    2090:	dec00204 	addi	sp,sp,8
    2094:	f800283a 	ret

00002098 <Do_Soft_Echo>:
//
//}


/****************************************************************************************/
void Do_Soft_Echo(){
    2098:	defff504 	addi	sp,sp,-44
    209c:	dfc00a15 	stw	ra,40(sp)
    20a0:	df000915 	stw	fp,36(sp)
    20a4:	df000904 	addi	fp,sp,36
	int j;
	int i;
	for(i=0;i<BUF_SIZE;i++){
    20a8:	e03ffe15 	stw	zero,-8(fp)
    20ac:	00005206 	br	21f8 <Do_Soft_Echo+0x160>
		alt_64 temp = 0;
    20b0:	e03ffc15 	stw	zero,-16(fp)
    20b4:	e03ffd15 	stw	zero,-12(fp)
		for(j = 0; j<64; j++)
    20b8:	e03fff15 	stw	zero,-4(fp)
    20bc:	00002d06 	br	2174 <Do_Soft_Echo+0xdc>
		{
			alt_64 eff = (alt_64)(coeff[j]);
    20c0:	e0bfff17 	ldw	r2,-4(fp)
    20c4:	00c00074 	movhi	r3,1
    20c8:	18f03f04 	addi	r3,r3,-16132
    20cc:	1085883a 	add	r2,r2,r2
    20d0:	10c5883a 	add	r2,r2,r3
    20d4:	1080000b 	ldhu	r2,0(r2)
    20d8:	10bfffcc 	andi	r2,r2,65535
    20dc:	10a0001c 	xori	r2,r2,32768
    20e0:	10a00004 	addi	r2,r2,-32768
    20e4:	e0bff915 	stw	r2,-28(fp)
    20e8:	1005d7fa 	srai	r2,r2,31
    20ec:	e0bffa15 	stw	r2,-24(fp)
			alt_64 data = ((alt_64)((alt_32)l_buf[i-j]));
    20f0:	e0fffe17 	ldw	r3,-8(fp)
    20f4:	e0bfff17 	ldw	r2,-4(fp)
    20f8:	1885c83a 	sub	r2,r3,r2
    20fc:	00c01774 	movhi	r3,93
    2100:	18e41a04 	addi	r3,r3,-28568
    2104:	1085883a 	add	r2,r2,r2
    2108:	1085883a 	add	r2,r2,r2
    210c:	10c5883a 	add	r2,r2,r3
    2110:	10800017 	ldw	r2,0(r2)
    2114:	e0bff715 	stw	r2,-36(fp)
    2118:	1005d7fa 	srai	r2,r2,31
    211c:	e0bff815 	stw	r2,-32(fp)
			temp = (temp + (data * eff));
    2120:	e13ff717 	ldw	r4,-36(fp)
    2124:	e17ff817 	ldw	r5,-32(fp)
    2128:	e1bff917 	ldw	r6,-28(fp)
    212c:	e1fffa17 	ldw	r7,-24(fp)
    2130:	00029e40 	call	29e4 <__muldi3>
    2134:	1009883a 	mov	r4,r2
    2138:	180b883a 	mov	r5,r3
    213c:	200d883a 	mov	r6,r4
    2140:	280f883a 	mov	r7,r5
    2144:	e13ffc17 	ldw	r4,-16(fp)
    2148:	e17ffd17 	ldw	r5,-12(fp)
    214c:	2185883a 	add	r2,r4,r6
    2150:	1111803a 	cmpltu	r8,r2,r4
    2154:	29c7883a 	add	r3,r5,r7
    2158:	40c9883a 	add	r4,r8,r3
    215c:	2007883a 	mov	r3,r4
    2160:	e0bffc15 	stw	r2,-16(fp)
    2164:	e0fffd15 	stw	r3,-12(fp)
void Do_Soft_Echo(){
	int j;
	int i;
	for(i=0;i<BUF_SIZE;i++){
		alt_64 temp = 0;
		for(j = 0; j<64; j++)
    2168:	e0bfff17 	ldw	r2,-4(fp)
    216c:	10800044 	addi	r2,r2,1
    2170:	e0bfff15 	stw	r2,-4(fp)
    2174:	e0bfff17 	ldw	r2,-4(fp)
    2178:	10801010 	cmplti	r2,r2,64
    217c:	103fd01e 	bne	r2,zero,20c0 <Do_Soft_Echo+0x28>
		{
			alt_64 eff = (alt_64)(coeff[j]);
			alt_64 data = ((alt_64)((alt_32)l_buf[i-j]));
			temp = (temp + (data * eff));
		}
		temp = (temp >> 15);
    2180:	e0bffd17 	ldw	r2,-12(fp)
    2184:	100a947a 	slli	r5,r2,17
    2188:	e13ffc17 	ldw	r4,-16(fp)
    218c:	e1bffd17 	ldw	r6,-12(fp)
    2190:	2004d3fa 	srli	r2,r4,15
    2194:	1144b03a 	or	r2,r2,r5
    2198:	3007d3fa 	srai	r3,r6,15
    219c:	e0bffc15 	stw	r2,-16(fp)
    21a0:	e0fffd15 	stw	r3,-12(fp)
		alt_u32 dataout = (alt_u32)((alt_32)temp);
    21a4:	e0bffc17 	ldw	r2,-16(fp)
    21a8:	e0bffb15 	stw	r2,-20(fp)
		Echo_buf_l[i] = dataout;
    21ac:	e0bffe17 	ldw	r2,-8(fp)
    21b0:	00c00074 	movhi	r3,1
    21b4:	18c0ba04 	addi	r3,r3,744
    21b8:	1085883a 	add	r2,r2,r2
    21bc:	1085883a 	add	r2,r2,r2
    21c0:	10c7883a 	add	r3,r2,r3
    21c4:	e0bffb17 	ldw	r2,-20(fp)
    21c8:	18800015 	stw	r2,0(r3)
		Echo_buf_r[i] = dataout;
    21cc:	e0bffe17 	ldw	r2,-8(fp)
    21d0:	00c00fb4 	movhi	r3,62
    21d4:	18c2fa04 	addi	r3,r3,3048
    21d8:	1085883a 	add	r2,r2,r2
    21dc:	1085883a 	add	r2,r2,r2
    21e0:	10c7883a 	add	r3,r2,r3
    21e4:	e0bffb17 	ldw	r2,-20(fp)
    21e8:	18800015 	stw	r2,0(r3)

/****************************************************************************************/
void Do_Soft_Echo(){
	int j;
	int i;
	for(i=0;i<BUF_SIZE;i++){
    21ec:	e0bffe17 	ldw	r2,-8(fp)
    21f0:	10800044 	addi	r2,r2,1
    21f4:	e0bffe15 	stw	r2,-8(fp)
    21f8:	e0fffe17 	ldw	r3,-8(fp)
    21fc:	00800234 	movhi	r2,8
    2200:	10a847c4 	addi	r2,r2,-24289
    2204:	10ffaa0e 	bge	r2,r3,20b0 <Do_Soft_Echo+0x18>
//			temp = ((alt_64)temp + (((alt_64)((alt_32)r_buf[i])) * ((alt_64)coeff)));
//		}
//		Echo_buf_r[i] = temp;
//	}

	IOWR_ALT_UP_PARALLEL_PORT_DATA(GREEN_LEDS_BASE,0x0);
    2208:	00840034 	movhi	r2,4096
    220c:	10800404 	addi	r2,r2,16
    2210:	10000035 	stwio	zero,0(r2)
	Echo = 0;
    2214:	d0283f15 	stw	zero,-24324(gp)
	Echo_complete = 1;
    2218:	00c00074 	movhi	r3,1
    221c:	18c08504 	addi	r3,r3,532
    2220:	00800044 	movi	r2,1
    2224:	18800015 	stw	r2,0(r3)
}
    2228:	e037883a 	mov	sp,fp
    222c:	dfc00117 	ldw	ra,4(sp)
    2230:	df000017 	ldw	fp,0(sp)
    2234:	dec00204 	addi	sp,sp,8
    2238:	f800283a 	ret

0000223c <Plot_AudioRecord>:

/****************************************************************************************/
void Plot_AudioRecord(alt_up_pixel_buffer_dma_dev *pixel_buffer){
    223c:	defff204 	addi	sp,sp,-56
    2240:	dfc00d15 	stw	ra,52(sp)
    2244:	df000c15 	stw	fp,48(sp)
    2248:	df000c04 	addi	fp,sp,48
    224c:	e13fff15 	stw	r4,-4(fp)

	// Draw Audio Display
	// character coords * 4 since characters are 4 x 4 pixel buffer coords (8 x 8 VGA coords)
	alt_up_pixel_buffer_dma_draw_box (pixel_buffer, 0 , 20 * 4, 100 * 4,
    2250:	00803c04 	movi	r2,240
    2254:	d8800015 	stw	r2,0(sp)
    2258:	0080ca04 	movi	r2,808
    225c:	d8800115 	stw	r2,4(sp)
    2260:	d8000215 	stw	zero,8(sp)
    2264:	e13fff17 	ldw	r4,-4(fp)
    2268:	000b883a 	mov	r5,zero
    226c:	01801404 	movi	r6,80
    2270:	01c06404 	movi	r7,400
    2274:	0006f9c0 	call	6f9c <alt_up_pixel_buffer_dma_draw_box>
		60 * 4, 0x0328, 0);

	//Audio Line
	alt_up_pixel_buffer_dma_draw_hline(pixel_buffer,10 * 4, 70 * 4, 21 * 4, 0xABCD, 0);
    2278:	00aaf354 	movui	r2,43981
    227c:	d8800015 	stw	r2,0(sp)
    2280:	d8000115 	stw	zero,4(sp)
    2284:	e13fff17 	ldw	r4,-4(fp)
    2288:	01400a04 	movi	r5,40
    228c:	01804604 	movi	r6,280
    2290:	01c01504 	movi	r7,84
    2294:	00074900 	call	7490 <alt_up_pixel_buffer_dma_draw_hline>
	alt_up_pixel_buffer_dma_draw_hline(pixel_buffer,10 * 4, 70 * 4, 23 * 4, 0xABCD, 0);
    2298:	00aaf354 	movui	r2,43981
    229c:	d8800015 	stw	r2,0(sp)
    22a0:	d8000115 	stw	zero,4(sp)
    22a4:	e13fff17 	ldw	r4,-4(fp)
    22a8:	01400a04 	movi	r5,40
    22ac:	01804604 	movi	r6,280
    22b0:	01c01704 	movi	r7,92
    22b4:	00074900 	call	7490 <alt_up_pixel_buffer_dma_draw_hline>
	//Audio OverFlow
	alt_up_pixel_buffer_dma_draw_hline(pixel_buffer,10, 300, 105, 0xABCD, 0);
    22b8:	00aaf354 	movui	r2,43981
    22bc:	d8800015 	stw	r2,0(sp)
    22c0:	d8000115 	stw	zero,4(sp)
    22c4:	e13fff17 	ldw	r4,-4(fp)
    22c8:	01400284 	movi	r5,10
    22cc:	01804b04 	movi	r6,300
    22d0:	01c01a44 	movi	r7,105
    22d4:	00074900 	call	7490 <alt_up_pixel_buffer_dma_draw_hline>

	int i=0;
    22d8:	e03ffe15 	stw	zero,-8(fp)
	short color = 0x8053;
    22dc:	00a014c4 	movi	r2,-32685
    22e0:	e0bffd0d 	sth	r2,-12(fp)
	int x1 = 10;
    22e4:	00800284 	movi	r2,10
    22e8:	e0bffc15 	stw	r2,-16(fp)
	int x2 = 310;
    22ec:	00804d84 	movi	r2,310
    22f0:	e0bffb15 	stw	r2,-20(fp)
	int gap = 3;
    22f4:	008000c4 	movi	r2,3
    22f8:	e0bffa15 	stw	r2,-24(fp)
	int Range = ((x2 - x1)/N)-3;
    22fc:	e0fffb17 	ldw	r3,-20(fp)
    2300:	e0bffc17 	ldw	r2,-16(fp)
    2304:	1887c83a 	sub	r3,r3,r2
    2308:	00800784 	movi	r2,30
    230c:	1885283a 	div	r2,r3,r2
    2310:	10bfff44 	addi	r2,r2,-3
    2314:	e0bff915 	stw	r2,-28(fp)

	int x_Start=0,x_End=10;
    2318:	e03ff815 	stw	zero,-32(fp)
    231c:	00800284 	movi	r2,10
    2320:	e0bff715 	stw	r2,-36(fp)

	for(i=0;i<N;i++){
    2324:	e03ffe15 	stw	zero,-8(fp)
    2328:	00001f06 	br	23a8 <Plot_AudioRecord+0x16c>
		x_Start = x_End + gap;
    232c:	e0fff717 	ldw	r3,-36(fp)
    2330:	e0bffa17 	ldw	r2,-24(fp)
    2334:	1885883a 	add	r2,r3,r2
    2338:	e0bff815 	stw	r2,-32(fp)
		x_End = x_Start + Range;
    233c:	e0fff817 	ldw	r3,-32(fp)
    2340:	e0bff917 	ldw	r2,-28(fp)
    2344:	1885883a 	add	r2,r3,r2
    2348:	e0bff715 	stw	r2,-36(fp)
		//Draw Audio Range
		alt_up_pixel_buffer_dma_draw_box (pixel_buffer, x_Start, 200-Average[i], x_End,
    234c:	e0bffe17 	ldw	r2,-8(fp)
    2350:	00c01ef4 	movhi	r3,123
    2354:	18c5b604 	addi	r3,r3,5848
    2358:	100490fa 	slli	r2,r2,3
    235c:	10c9883a 	add	r4,r2,r3
    2360:	20800017 	ldw	r2,0(r4)
    2364:	20c00117 	ldw	r3,4(r4)
    2368:	1007883a 	mov	r3,r2
    236c:	00803204 	movi	r2,200
    2370:	10c5c83a 	sub	r2,r2,r3
    2374:	100d883a 	mov	r6,r2
    2378:	e0fffd0f 	ldh	r3,-12(fp)
    237c:	00803204 	movi	r2,200
    2380:	d8800015 	stw	r2,0(sp)
    2384:	d8c00115 	stw	r3,4(sp)
    2388:	d8000215 	stw	zero,8(sp)
    238c:	e13fff17 	ldw	r4,-4(fp)
    2390:	e17ff817 	ldw	r5,-32(fp)
    2394:	e1fff717 	ldw	r7,-36(fp)
    2398:	0006f9c0 	call	6f9c <alt_up_pixel_buffer_dma_draw_box>
	int gap = 3;
	int Range = ((x2 - x1)/N)-3;

	int x_Start=0,x_End=10;

	for(i=0;i<N;i++){
    239c:	e0bffe17 	ldw	r2,-8(fp)
    23a0:	10800044 	addi	r2,r2,1
    23a4:	e0bffe15 	stw	r2,-8(fp)
    23a8:	e0bffe17 	ldw	r2,-8(fp)
    23ac:	10800790 	cmplti	r2,r2,30
    23b0:	103fde1e 	bne	r2,zero,232c <Plot_AudioRecord+0xf0>
		x_End = x_Start + Range;
		//Draw Audio Range
		alt_up_pixel_buffer_dma_draw_box (pixel_buffer, x_Start, 200-Average[i], x_End,
			200, color, 0);
	}
}
    23b4:	e037883a 	mov	sp,fp
    23b8:	dfc00117 	ldw	ra,4(sp)
    23bc:	df000017 	ldw	fp,0(sp)
    23c0:	dec00204 	addi	sp,sp,8
    23c4:	f800283a 	ret

000023c8 <Audio_Average>:
/****************************************************************************************/
void Audio_Average(){
    23c8:	defff304 	addi	sp,sp,-52
    23cc:	dfc00c15 	stw	ra,48(sp)
    23d0:	df000b15 	stw	fp,44(sp)
    23d4:	dc000a15 	stw	r16,40(sp)
    23d8:	df000a04 	addi	fp,sp,40
	int i=0;
    23dc:	e03ffb15 	stw	zero,-20(fp)
	int j=0;
    23e0:	e03ffa15 	stw	zero,-24(fp)
	long long int Sum=0;
    23e4:	e03ff815 	stw	zero,-32(fp)
    23e8:	e03ff915 	stw	zero,-28(fp)

	int anita;

	int Duration = BUF_SIZE / N;
    23ec:	00904684 	movi	r2,16666
    23f0:	e0bff615 	stw	r2,-40(fp)
	for(j=0;j<N;j++){
    23f4:	e03ffa15 	stw	zero,-24(fp)
    23f8:	0000a006 	br	267c <Audio_Average+0x2b4>
		Average[j] = 0;
    23fc:	e0bffa17 	ldw	r2,-24(fp)
    2400:	00c01ef4 	movhi	r3,123
    2404:	18c5b604 	addi	r3,r3,5848
    2408:	100490fa 	slli	r2,r2,3
    240c:	10c5883a 	add	r2,r2,r3
    2410:	10000015 	stw	zero,0(r2)
    2414:	10000115 	stw	zero,4(r2)
		Sum =0;
    2418:	e03ff815 	stw	zero,-32(fp)
    241c:	e03ff915 	stw	zero,-28(fp)
		for(i=0;i<Duration;i++){
    2420:	e03ffb15 	stw	zero,-20(fp)
    2424:	00004506 	br	253c <Audio_Average+0x174>
			Sum = ((alt_u64)abs(((alt_u32)l_buf[i + j * Duration]))) + Sum;
    2428:	e0fffa17 	ldw	r3,-24(fp)
    242c:	e0bff617 	ldw	r2,-40(fp)
    2430:	1887383a 	mul	r3,r3,r2
    2434:	e0bffb17 	ldw	r2,-20(fp)
    2438:	1885883a 	add	r2,r3,r2
    243c:	00c01774 	movhi	r3,93
    2440:	18e41a04 	addi	r3,r3,-28568
    2444:	1085883a 	add	r2,r2,r2
    2448:	1085883a 	add	r2,r2,r2
    244c:	10c5883a 	add	r2,r2,r3
    2450:	10800017 	ldw	r2,0(r2)
    2454:	e0bfff15 	stw	r2,-4(fp)
    2458:	e0ffff17 	ldw	r3,-4(fp)
    245c:	1804403a 	cmpge	r2,r3,zero
    2460:	1000031e 	bne	r2,zero,2470 <Audio_Average+0xa8>
    2464:	e13fff17 	ldw	r4,-4(fp)
    2468:	0109c83a 	sub	r4,zero,r4
    246c:	e13fff15 	stw	r4,-4(fp)
    2470:	e0ffff17 	ldw	r3,-4(fp)
    2474:	1805d7fa 	srai	r2,r3,31
    2478:	e13fff17 	ldw	r4,-4(fp)
    247c:	100b883a 	mov	r5,r2
    2480:	e1bff817 	ldw	r6,-32(fp)
    2484:	e1fff917 	ldw	r7,-28(fp)
    2488:	2185883a 	add	r2,r4,r6
    248c:	1111803a 	cmpltu	r8,r2,r4
    2490:	29c7883a 	add	r3,r5,r7
    2494:	40c9883a 	add	r4,r8,r3
    2498:	2007883a 	mov	r3,r4
    249c:	1009883a 	mov	r4,r2
    24a0:	180b883a 	mov	r5,r3
    24a4:	e13ff815 	stw	r4,-32(fp)
    24a8:	e17ff915 	stw	r5,-28(fp)
			Sum = ((alt_u64)abs(((alt_u32)r_buf[i + j * Duration]))) + Sum;
    24ac:	e0fffa17 	ldw	r3,-24(fp)
    24b0:	e0bff617 	ldw	r2,-40(fp)
    24b4:	1887383a 	mul	r3,r3,r2
    24b8:	e0bffb17 	ldw	r2,-20(fp)
    24bc:	1885883a 	add	r2,r3,r2
    24c0:	00c00834 	movhi	r3,32
    24c4:	18e1da04 	addi	r3,r3,-30872
    24c8:	1085883a 	add	r2,r2,r2
    24cc:	1085883a 	add	r2,r2,r2
    24d0:	10c5883a 	add	r2,r2,r3
    24d4:	10800017 	ldw	r2,0(r2)
    24d8:	e0bffe15 	stw	r2,-8(fp)
    24dc:	e13ffe17 	ldw	r4,-8(fp)
    24e0:	2004403a 	cmpge	r2,r4,zero
    24e4:	1000031e 	bne	r2,zero,24f4 <Audio_Average+0x12c>
    24e8:	e0bffe17 	ldw	r2,-8(fp)
    24ec:	0085c83a 	sub	r2,zero,r2
    24f0:	e0bffe15 	stw	r2,-8(fp)
    24f4:	e0fffe17 	ldw	r3,-8(fp)
    24f8:	1805d7fa 	srai	r2,r3,31
    24fc:	e13ffe17 	ldw	r4,-8(fp)
    2500:	100b883a 	mov	r5,r2
    2504:	e1bff817 	ldw	r6,-32(fp)
    2508:	e1fff917 	ldw	r7,-28(fp)
    250c:	2185883a 	add	r2,r4,r6
    2510:	1111803a 	cmpltu	r8,r2,r4
    2514:	29c7883a 	add	r3,r5,r7
    2518:	40c9883a 	add	r4,r8,r3
    251c:	2007883a 	mov	r3,r4
    2520:	1009883a 	mov	r4,r2
    2524:	180b883a 	mov	r5,r3
    2528:	e13ff815 	stw	r4,-32(fp)
    252c:	e17ff915 	stw	r5,-28(fp)

	int Duration = BUF_SIZE / N;
	for(j=0;j<N;j++){
		Average[j] = 0;
		Sum =0;
		for(i=0;i<Duration;i++){
    2530:	e0bffb17 	ldw	r2,-20(fp)
    2534:	10800044 	addi	r2,r2,1
    2538:	e0bffb15 	stw	r2,-20(fp)
    253c:	e0fffb17 	ldw	r3,-20(fp)
    2540:	e0bff617 	ldw	r2,-40(fp)
    2544:	18bfb816 	blt	r3,r2,2428 <Audio_Average+0x60>
			Sum = ((alt_u64)abs(((alt_u32)l_buf[i + j * Duration]))) + Sum;
			Sum = ((alt_u64)abs(((alt_u32)r_buf[i + j * Duration]))) + Sum;
		}

		Average[j] = (((Sum * 400) / (Duration) ) >> 32);
    2548:	e43ffa17 	ldw	r16,-24(fp)
    254c:	e13ff817 	ldw	r4,-32(fp)
    2550:	e17ff917 	ldw	r5,-28(fp)
    2554:	01806404 	movi	r6,400
    2558:	000f883a 	mov	r7,zero
    255c:	00029e40 	call	29e4 <__muldi3>
    2560:	1009883a 	mov	r4,r2
    2564:	180b883a 	mov	r5,r3
    2568:	200d883a 	mov	r6,r4
    256c:	280f883a 	mov	r7,r5
    2570:	e0bff617 	ldw	r2,-40(fp)
    2574:	1009d7fa 	srai	r4,r2,31
    2578:	e0bff617 	ldw	r2,-40(fp)
    257c:	2007883a 	mov	r3,r4
    2580:	3009883a 	mov	r4,r6
    2584:	380b883a 	mov	r5,r7
    2588:	100d883a 	mov	r6,r2
    258c:	180f883a 	mov	r7,r3
    2590:	0002a7c0 	call	2a7c <__divdi3>
    2594:	1009883a 	mov	r4,r2
    2598:	180b883a 	mov	r5,r3
    259c:	2005883a 	mov	r2,r4
    25a0:	2807883a 	mov	r3,r5
    25a4:	1809d83a 	sra	r4,r3,zero
    25a8:	180bd7fa 	srai	r5,r3,31
    25ac:	00c01ef4 	movhi	r3,123
    25b0:	18c5b604 	addi	r3,r3,5848
    25b4:	800490fa 	slli	r2,r16,3
    25b8:	10c5883a 	add	r2,r2,r3
    25bc:	11000015 	stw	r4,0(r2)
    25c0:	11400115 	stw	r5,4(r2)
		anita = Average[j];
    25c4:	e0bffa17 	ldw	r2,-24(fp)
    25c8:	00c01ef4 	movhi	r3,123
    25cc:	18c5b604 	addi	r3,r3,5848
    25d0:	100490fa 	slli	r2,r2,3
    25d4:	10c9883a 	add	r4,r2,r3
    25d8:	20800017 	ldw	r2,0(r4)
    25dc:	20c00117 	ldw	r3,4(r4)
    25e0:	e0bff715 	stw	r2,-36(fp)
        if((200-Average[j]) < 110 ){
    25e4:	e0bffa17 	ldw	r2,-24(fp)
    25e8:	00c01ef4 	movhi	r3,123
    25ec:	18c5b604 	addi	r3,r3,5848
    25f0:	100490fa 	slli	r2,r2,3
    25f4:	10c5883a 	add	r2,r2,r3
    25f8:	11800017 	ldw	r6,0(r2)
    25fc:	11c00117 	ldw	r7,4(r2)
    2600:	01003204 	movi	r4,200
    2604:	000b883a 	mov	r5,zero
    2608:	2185c83a 	sub	r2,r4,r6
    260c:	2091803a 	cmpltu	r8,r4,r2
    2610:	29c7c83a 	sub	r3,r5,r7
    2614:	1a09c83a 	sub	r4,r3,r8
    2618:	2007883a 	mov	r3,r4
    261c:	1009883a 	mov	r4,r2
    2620:	e13ffc15 	stw	r4,-16(fp)
    2624:	1805883a 	mov	r2,r3
    2628:	e0bffd15 	stw	r2,-12(fp)
    262c:	e0fffd17 	ldw	r3,-12(fp)
    2630:	18800048 	cmpgei	r2,r3,1
    2634:	10000e1e 	bne	r2,zero,2670 <Audio_Average+0x2a8>
    2638:	e13ffd17 	ldw	r4,-12(fp)
    263c:	2004c03a 	cmpne	r2,r4,zero
    2640:	1000031e 	bne	r2,zero,2650 <Audio_Average+0x288>
    2644:	e0fffc17 	ldw	r3,-16(fp)
    2648:	18801ba8 	cmpgeui	r2,r3,110
    264c:	1000081e 	bne	r2,zero,2670 <Audio_Average+0x2a8>
        	Average[j] = 95;
    2650:	e0bffa17 	ldw	r2,-24(fp)
    2654:	00c01ef4 	movhi	r3,123
    2658:	18c5b604 	addi	r3,r3,5848
    265c:	100490fa 	slli	r2,r2,3
    2660:	10c7883a 	add	r3,r2,r3
    2664:	008017c4 	movi	r2,95
    2668:	18800015 	stw	r2,0(r3)
    266c:	18000115 	stw	zero,4(r3)
	long long int Sum=0;

	int anita;

	int Duration = BUF_SIZE / N;
	for(j=0;j<N;j++){
    2670:	e0bffa17 	ldw	r2,-24(fp)
    2674:	10800044 	addi	r2,r2,1
    2678:	e0bffa15 	stw	r2,-24(fp)
    267c:	e0bffa17 	ldw	r2,-24(fp)
    2680:	10800790 	cmplti	r2,r2,30
    2684:	103f5d1e 	bne	r2,zero,23fc <Audio_Average+0x34>
		anita = Average[j];
        if((200-Average[j]) < 110 ){
        	Average[j] = 95;
        }
	}
}
    2688:	e037883a 	mov	sp,fp
    268c:	dfc00217 	ldw	ra,8(sp)
    2690:	df000117 	ldw	fp,4(sp)
    2694:	dc000017 	ldw	r16,0(sp)
    2698:	dec00304 	addi	sp,sp,12
    269c:	f800283a 	ret

000026a0 <Plot_Play_Audio>:
/****************************************************************************************/
void Plot_Play_Audio(alt_up_pixel_buffer_dma_dev *pixel_buffer){
    26a0:	defff304 	addi	sp,sp,-52
    26a4:	dfc00c15 	stw	ra,48(sp)
    26a8:	df000b15 	stw	fp,44(sp)
    26ac:	df000b04 	addi	fp,sp,44
    26b0:	e13fff15 	stw	r4,-4(fp)
	int x_Start=0,x_End=10;
    26b4:	e03ffe15 	stw	zero,-8(fp)
    26b8:	00800284 	movi	r2,10
    26bc:	e0bffd15 	stw	r2,-12(fp)
	int gap = 3;
    26c0:	008000c4 	movi	r2,3
    26c4:	e0bffc15 	stw	r2,-16(fp)
	int x1 = 10;
    26c8:	00800284 	movi	r2,10
    26cc:	e0bffb15 	stw	r2,-20(fp)
	int x2 = 310;
    26d0:	00804d84 	movi	r2,310
    26d4:	e0bffa15 	stw	r2,-24(fp)
	int Range = ((x2 - x1)/N)-3;
    26d8:	e0fffa17 	ldw	r3,-24(fp)
    26dc:	e0bffb17 	ldw	r2,-20(fp)
    26e0:	1887c83a 	sub	r3,r3,r2
    26e4:	00800784 	movi	r2,30
    26e8:	1885283a 	div	r2,r3,r2
    26ec:	10bfff44 	addi	r2,r2,-3
    26f0:	e0bff915 	stw	r2,-28(fp)
	short color = 0x1111;
    26f4:	00844444 	movi	r2,4369
    26f8:	e0bff80d 	sth	r2,-32(fp)


	if(Play_Flag == 1){
    26fc:	00800074 	movhi	r2,1
    2700:	10808604 	addi	r2,r2,536
    2704:	10800017 	ldw	r2,0(r2)
    2708:	10800058 	cmpnei	r2,r2,1
    270c:	1000221e 	bne	r2,zero,2798 <Plot_Play_Audio+0xf8>
		x_Start = Play_Index * Range + gap * Play_Index + 13;
    2710:	e0fff917 	ldw	r3,-28(fp)
    2714:	e0bffc17 	ldw	r2,-16(fp)
    2718:	1887883a 	add	r3,r3,r2
    271c:	00800074 	movhi	r2,1
    2720:	10808204 	addi	r2,r2,520
    2724:	10800017 	ldw	r2,0(r2)
    2728:	1885383a 	mul	r2,r3,r2
    272c:	10800344 	addi	r2,r2,13
    2730:	e0bffe15 	stw	r2,-8(fp)
		x_End = x_Start + Range;
    2734:	e0fffe17 	ldw	r3,-8(fp)
    2738:	e0bff917 	ldw	r2,-28(fp)
    273c:	1885883a 	add	r2,r3,r2
    2740:	e0bffd15 	stw	r2,-12(fp)
		Play_Flag = 0;
    2744:	00800074 	movhi	r2,1
    2748:	10808604 	addi	r2,r2,536
    274c:	10000015 	stw	zero,0(r2)
		Play_Index = Play_Index + 1;
    2750:	00800074 	movhi	r2,1
    2754:	10808204 	addi	r2,r2,520
    2758:	10800017 	ldw	r2,0(r2)
    275c:	10c00044 	addi	r3,r2,1
    2760:	00800074 	movhi	r2,1
    2764:	10808204 	addi	r2,r2,520
    2768:	10c00015 	stw	r3,0(r2)
		alt_up_pixel_buffer_dma_draw_box (pixel_buffer, x_Start, 205, x_End,
    276c:	e0bff917 	ldw	r2,-28(fp)
    2770:	10803344 	addi	r2,r2,205
    2774:	e0fff80f 	ldh	r3,-32(fp)
    2778:	d8800015 	stw	r2,0(sp)
    277c:	d8c00115 	stw	r3,4(sp)
    2780:	d8000215 	stw	zero,8(sp)
    2784:	e13fff17 	ldw	r4,-4(fp)
    2788:	e17ffe17 	ldw	r5,-8(fp)
    278c:	01803344 	movi	r6,205
    2790:	e1fffd17 	ldw	r7,-12(fp)
    2794:	0006f9c0 	call	6f9c <alt_up_pixel_buffer_dma_draw_box>
			205 + Range , color, 0);
	}
}
    2798:	e037883a 	mov	sp,fp
    279c:	dfc00117 	ldw	ra,4(sp)
    27a0:	df000017 	ldw	fp,0(sp)
    27a4:	dec00204 	addi	sp,sp,8
    27a8:	f800283a 	ret

000027ac <Do_Hardware_Calculate>:
/****************************************************************************************/
void Do_Hardware_Calculate(){
    27ac:	defffd04 	addi	sp,sp,-12
    27b0:	dfc00215 	stw	ra,8(sp)
    27b4:	df000115 	stw	fp,4(sp)
    27b8:	df000104 	addi	fp,sp,4
	amplitude_operation(Size,Number,Right_Ram,Left_Ram,Out_Ram);
    27bc:	01801ef4 	movhi	r6,123
    27c0:	31855a04 	addi	r6,r6,5480
    27c4:	01c01ef4 	movhi	r7,123
    27c8:	39c5f204 	addi	r7,r7,6088
    27cc:	00801ef4 	movhi	r2,123
    27d0:	10853a04 	addi	r2,r2,5352
    27d4:	d8800015 	stw	r2,0(sp)
    27d8:	01104684 	movi	r4,16666
    27dc:	01400784 	movi	r5,30
    27e0:	000033c0 	call	33c <amplitude_operation>
}
    27e4:	e037883a 	mov	sp,fp
    27e8:	dfc00117 	ldw	ra,4(sp)
    27ec:	df000017 	ldw	fp,0(sp)
    27f0:	dec00204 	addi	sp,sp,8
    27f4:	f800283a 	ret

000027f8 <Calculate_Avrage>:
/****************************************************************************************/
void Calculate_Avrage(){
    27f8:	defffc04 	addi	sp,sp,-16
    27fc:	df000315 	stw	fp,12(sp)
    2800:	df000304 	addi	fp,sp,12
	int i;
	for(i=0;i<=Number;i++){
    2804:	e03ffd15 	stw	zero,-12(fp)
    2808:	00004106 	br	2910 <Calculate_Avrage+0x118>
		Average[i] = 0;
    280c:	e0bffd17 	ldw	r2,-12(fp)
    2810:	00c01ef4 	movhi	r3,123
    2814:	18c5b604 	addi	r3,r3,5848
    2818:	100490fa 	slli	r2,r2,3
    281c:	10c5883a 	add	r2,r2,r3
    2820:	10000015 	stw	zero,0(r2)
    2824:	10000115 	stw	zero,4(r2)
		Average[i] = Out_Ram[i]/Size;
    2828:	e1bffd17 	ldw	r6,-12(fp)
    282c:	e0bffd17 	ldw	r2,-12(fp)
    2830:	00c01ef4 	movhi	r3,123
    2834:	18c53a04 	addi	r3,r3,5352
    2838:	1085883a 	add	r2,r2,r2
    283c:	1085883a 	add	r2,r2,r2
    2840:	10c5883a 	add	r2,r2,r3
    2844:	10c00017 	ldw	r3,0(r2)
    2848:	00803974 	movhi	r2,229
    284c:	10b87004 	addi	r2,r2,-7744
    2850:	1889283a 	div	r4,r3,r2
    2854:	200bd7fa 	srai	r5,r4,31
    2858:	2005883a 	mov	r2,r4
    285c:	2807883a 	mov	r3,r5
    2860:	01401ef4 	movhi	r5,123
    2864:	2945b604 	addi	r5,r5,5848
    2868:	300890fa 	slli	r4,r6,3
    286c:	2149883a 	add	r4,r4,r5
    2870:	20800015 	stw	r2,0(r4)
    2874:	20c00115 	stw	r3,4(r4)
        if((200-Average[i]) < 110 ){
    2878:	e0bffd17 	ldw	r2,-12(fp)
    287c:	00c01ef4 	movhi	r3,123
    2880:	18c5b604 	addi	r3,r3,5848
    2884:	100490fa 	slli	r2,r2,3
    2888:	10c5883a 	add	r2,r2,r3
    288c:	11800017 	ldw	r6,0(r2)
    2890:	11c00117 	ldw	r7,4(r2)
    2894:	01003204 	movi	r4,200
    2898:	000b883a 	mov	r5,zero
    289c:	2185c83a 	sub	r2,r4,r6
    28a0:	2091803a 	cmpltu	r8,r4,r2
    28a4:	29c7c83a 	sub	r3,r5,r7
    28a8:	1a09c83a 	sub	r4,r3,r8
    28ac:	2007883a 	mov	r3,r4
    28b0:	1009883a 	mov	r4,r2
    28b4:	e13ffe15 	stw	r4,-8(fp)
    28b8:	1805883a 	mov	r2,r3
    28bc:	e0bfff15 	stw	r2,-4(fp)
    28c0:	e0ffff17 	ldw	r3,-4(fp)
    28c4:	18800048 	cmpgei	r2,r3,1
    28c8:	10000e1e 	bne	r2,zero,2904 <Calculate_Avrage+0x10c>
    28cc:	e13fff17 	ldw	r4,-4(fp)
    28d0:	2004c03a 	cmpne	r2,r4,zero
    28d4:	1000031e 	bne	r2,zero,28e4 <Calculate_Avrage+0xec>
    28d8:	e0fffe17 	ldw	r3,-8(fp)
    28dc:	18801ba8 	cmpgeui	r2,r3,110
    28e0:	1000081e 	bne	r2,zero,2904 <Calculate_Avrage+0x10c>
        	Average[i] = 95;
    28e4:	e0bffd17 	ldw	r2,-12(fp)
    28e8:	00c01ef4 	movhi	r3,123
    28ec:	18c5b604 	addi	r3,r3,5848
    28f0:	100490fa 	slli	r2,r2,3
    28f4:	10c7883a 	add	r3,r2,r3
    28f8:	008017c4 	movi	r2,95
    28fc:	18800015 	stw	r2,0(r3)
    2900:	18000115 	stw	zero,4(r3)
	amplitude_operation(Size,Number,Right_Ram,Left_Ram,Out_Ram);
}
/****************************************************************************************/
void Calculate_Avrage(){
	int i;
	for(i=0;i<=Number;i++){
    2904:	e0bffd17 	ldw	r2,-12(fp)
    2908:	10800044 	addi	r2,r2,1
    290c:	e0bffd15 	stw	r2,-12(fp)
    2910:	e0bffd17 	ldw	r2,-12(fp)
    2914:	108007d0 	cmplti	r2,r2,31
    2918:	103fbc1e 	bne	r2,zero,280c <Calculate_Avrage+0x14>
		Average[i] = Out_Ram[i]/Size;
        if((200-Average[i]) < 110 ){
        	Average[i] = 95;
        }
	}
}
    291c:	e037883a 	mov	sp,fp
    2920:	df000017 	ldw	fp,0(sp)
    2924:	dec00104 	addi	sp,sp,4
    2928:	f800283a 	ret

0000292c <pushbutton_ISR>:
 *                                                                          
 * This ISR checks which KEY has been pressed. If KEY1, then it enables audio-in
 * interrupts (recording). If KEY2, it enables audio-out interrupts (playback).
****************************************************************************************/
void pushbutton_ISR(struct alt_up_dev *up_dev, unsigned int id)
{
    292c:	defffa04 	addi	sp,sp,-24
    2930:	dfc00515 	stw	ra,20(sp)
    2934:	df000415 	stw	fp,16(sp)
    2938:	df000404 	addi	fp,sp,16
    293c:	e13ffe15 	stw	r4,-8(fp)
    2940:	e17fff15 	stw	r5,-4(fp)
	alt_up_audio_dev *audio_dev;

	audio_dev = up_dev->audio_dev;
    2944:	e0bffe17 	ldw	r2,-8(fp)
    2948:	10800517 	ldw	r2,20(r2)
    294c:	e0bffd15 	stw	r2,-12(fp)
	
	int KEY_value;

	/* read the pushbutton interrupt register */
	KEY_value = alt_up_parallel_port_read_edge_capture (up_dev->KEY_dev);
    2950:	e0bffe17 	ldw	r2,-8(fp)
    2954:	10800017 	ldw	r2,0(r2)
    2958:	10800a17 	ldw	r2,40(r2)
    295c:	10800304 	addi	r2,r2,12
    2960:	10800037 	ldwio	r2,0(r2)
    2964:	e0bffc15 	stw	r2,-16(fp)
	alt_up_parallel_port_clear_edge_capture (up_dev->KEY_dev);	// Clear the interrupt
    2968:	e0bffe17 	ldw	r2,-8(fp)
    296c:	10800017 	ldw	r2,0(r2)
    2970:	10800a17 	ldw	r2,40(r2)
    2974:	10800304 	addi	r2,r2,12
    2978:	10000035 	stwio	zero,0(r2)

	if (KEY_value == 0x2)										// check KEY1
    297c:	e0bffc17 	ldw	r2,-16(fp)
    2980:	10800098 	cmpnei	r2,r2,2
    2984:	1000081e 	bne	r2,zero,29a8 <pushbutton_ISR+0x7c>
	{
		// reset the buffer index for recording
		buf_index_record = 0;
    2988:	00800074 	movhi	r2,1
    298c:	10808d04 	addi	r2,r2,564
    2990:	10000015 	stw	zero,0(r2)
		// clear audio FIFOs
		alt_up_audio_reset_audio_core (audio_dev);
    2994:	e13ffd17 	ldw	r4,-12(fp)
    2998:	0004b300 	call	4b30 <alt_up_audio_reset_audio_core>
		// enable audio-in interrupts
		alt_up_audio_enable_read_interrupt (audio_dev);
    299c:	e13ffd17 	ldw	r4,-12(fp)
    29a0:	00049800 	call	4980 <alt_up_audio_enable_read_interrupt>
    29a4:	00000a06 	br	29d0 <pushbutton_ISR+0xa4>
	}
	else if (KEY_value == 0x4)									// check KEY2
    29a8:	e0bffc17 	ldw	r2,-16(fp)
    29ac:	10800118 	cmpnei	r2,r2,4
    29b0:	1000071e 	bne	r2,zero,29d0 <pushbutton_ISR+0xa4>
	{
		// reset counter to start playback
		buf_index_play = 0;
    29b4:	00800074 	movhi	r2,1
    29b8:	10808b04 	addi	r2,r2,556
    29bc:	10000015 	stw	zero,0(r2)
		// clear audio FIFOs
		alt_up_audio_reset_audio_core (audio_dev);
    29c0:	e13ffd17 	ldw	r4,-12(fp)
    29c4:	0004b300 	call	4b30 <alt_up_audio_reset_audio_core>
		// enable audio-out interrupts
		alt_up_audio_enable_write_interrupt (audio_dev);
    29c8:	e13ffd17 	ldw	r4,-12(fp)
    29cc:	0004a1c0 	call	4a1c <alt_up_audio_enable_write_interrupt>
	}
	return;
}
    29d0:	e037883a 	mov	sp,fp
    29d4:	dfc00117 	ldw	ra,4(sp)
    29d8:	df000017 	ldw	fp,0(sp)
    29dc:	dec00204 	addi	sp,sp,8
    29e0:	f800283a 	ret

000029e4 <__muldi3>:
    29e4:	2011883a 	mov	r8,r4
    29e8:	427fffcc 	andi	r9,r8,65535
    29ec:	4018d43a 	srli	r12,r8,16
    29f0:	32bfffcc 	andi	r10,r6,65535
    29f4:	3016d43a 	srli	r11,r6,16
    29f8:	4a85383a 	mul	r2,r9,r10
    29fc:	6295383a 	mul	r10,r12,r10
    2a00:	4ad3383a 	mul	r9,r9,r11
    2a04:	113fffcc 	andi	r4,r2,65535
    2a08:	1004d43a 	srli	r2,r2,16
    2a0c:	4a93883a 	add	r9,r9,r10
    2a10:	3807883a 	mov	r3,r7
    2a14:	1245883a 	add	r2,r2,r9
    2a18:	280f883a 	mov	r7,r5
    2a1c:	180b883a 	mov	r5,r3
    2a20:	1006943a 	slli	r3,r2,16
    2a24:	defffd04 	addi	sp,sp,-12
    2a28:	dc800215 	stw	r18,8(sp)
    2a2c:	1907883a 	add	r3,r3,r4
    2a30:	dc400115 	stw	r17,4(sp)
    2a34:	dc000015 	stw	r16,0(sp)
    2a38:	4165383a 	mul	r18,r8,r5
    2a3c:	31e3383a 	mul	r17,r6,r7
    2a40:	1012d43a 	srli	r9,r2,16
    2a44:	62d9383a 	mul	r12,r12,r11
    2a48:	181f883a 	mov	r15,r3
    2a4c:	1280022e 	bgeu	r2,r10,2a58 <__muldi3+0x74>
    2a50:	00800074 	movhi	r2,1
    2a54:	6099883a 	add	r12,r12,r2
    2a58:	624d883a 	add	r6,r12,r9
    2a5c:	9187883a 	add	r3,r18,r6
    2a60:	88c7883a 	add	r3,r17,r3
    2a64:	7805883a 	mov	r2,r15
    2a68:	dc800217 	ldw	r18,8(sp)
    2a6c:	dc400117 	ldw	r17,4(sp)
    2a70:	dc000017 	ldw	r16,0(sp)
    2a74:	dec00304 	addi	sp,sp,12
    2a78:	f800283a 	ret

00002a7c <__divdi3>:
    2a7c:	deffef04 	addi	sp,sp,-68
    2a80:	2005883a 	mov	r2,r4
    2a84:	2807883a 	mov	r3,r5
    2a88:	dfc01015 	stw	ra,64(sp)
    2a8c:	df000f15 	stw	fp,60(sp)
    2a90:	ddc00e15 	stw	r23,56(sp)
    2a94:	dd800d15 	stw	r22,52(sp)
    2a98:	dd400c15 	stw	r21,48(sp)
    2a9c:	dd000b15 	stw	r20,44(sp)
    2aa0:	dcc00a15 	stw	r19,40(sp)
    2aa4:	dc800915 	stw	r18,36(sp)
    2aa8:	dc400815 	stw	r17,32(sp)
    2aac:	dc000715 	stw	r16,28(sp)
    2ab0:	1019883a 	mov	r12,r2
    2ab4:	181b883a 	mov	r13,r3
    2ab8:	3015883a 	mov	r10,r6
    2abc:	3817883a 	mov	r11,r7
    2ac0:	1800ba16 	blt	r3,zero,2dac <__divdi3+0x330>
    2ac4:	d8000615 	stw	zero,24(sp)
    2ac8:	5800ad16 	blt	r11,zero,2d80 <__divdi3+0x304>
    2acc:	5021883a 	mov	r16,r10
    2ad0:	602f883a 	mov	r23,r12
    2ad4:	6829883a 	mov	r20,r13
    2ad8:	58003b1e 	bne	r11,zero,2bc8 <__divdi3+0x14c>
    2adc:	6a805836 	bltu	r13,r10,2c40 <__divdi3+0x1c4>
    2ae0:	5000ce26 	beq	r10,zero,2e1c <__divdi3+0x3a0>
    2ae4:	00bfffd4 	movui	r2,65535
    2ae8:	1400ba36 	bltu	r2,r16,2dd4 <__divdi3+0x358>
    2aec:	00803fc4 	movi	r2,255
    2af0:	14015f36 	bltu	r2,r16,3070 <__divdi3+0x5f4>
    2af4:	000b883a 	mov	r5,zero
    2af8:	0005883a 	mov	r2,zero
    2afc:	8084d83a 	srl	r2,r16,r2
    2b00:	01000074 	movhi	r4,1
    2b04:	212f9104 	addi	r4,r4,-16828
    2b08:	01800804 	movi	r6,32
    2b0c:	1105883a 	add	r2,r2,r4
    2b10:	10c00003 	ldbu	r3,0(r2)
    2b14:	28c7883a 	add	r3,r5,r3
    2b18:	30edc83a 	sub	r22,r6,r3
    2b1c:	b001101e 	bne	r22,zero,2f60 <__divdi3+0x4e4>
    2b20:	802ad43a 	srli	r21,r16,16
    2b24:	01000044 	movi	r4,1
    2b28:	a423c83a 	sub	r17,r20,r16
    2b2c:	873fffcc 	andi	fp,r16,65535
    2b30:	d9000315 	stw	r4,12(sp)
    2b34:	8809883a 	mov	r4,r17
    2b38:	a80b883a 	mov	r5,r21
    2b3c:	00032380 	call	3238 <__udivsi3>
    2b40:	8809883a 	mov	r4,r17
    2b44:	a80b883a 	mov	r5,r21
    2b48:	102d883a 	mov	r22,r2
    2b4c:	00032400 	call	3240 <__umodsi3>
    2b50:	1004943a 	slli	r2,r2,16
    2b54:	b806d43a 	srli	r3,r23,16
    2b58:	e5a3383a 	mul	r17,fp,r22
    2b5c:	10c4b03a 	or	r2,r2,r3
    2b60:	1440042e 	bgeu	r2,r17,2b74 <__divdi3+0xf8>
    2b64:	1405883a 	add	r2,r2,r16
    2b68:	b5bfffc4 	addi	r22,r22,-1
    2b6c:	14000136 	bltu	r2,r16,2b74 <__divdi3+0xf8>
    2b70:	14415f36 	bltu	r2,r17,30f0 <__divdi3+0x674>
    2b74:	1463c83a 	sub	r17,r2,r17
    2b78:	8809883a 	mov	r4,r17
    2b7c:	a80b883a 	mov	r5,r21
    2b80:	00032380 	call	3238 <__udivsi3>
    2b84:	8809883a 	mov	r4,r17
    2b88:	a80b883a 	mov	r5,r21
    2b8c:	1029883a 	mov	r20,r2
    2b90:	00032400 	call	3240 <__umodsi3>
    2b94:	1004943a 	slli	r2,r2,16
    2b98:	e509383a 	mul	r4,fp,r20
    2b9c:	b8ffffcc 	andi	r3,r23,65535
    2ba0:	10c4b03a 	or	r2,r2,r3
    2ba4:	1100042e 	bgeu	r2,r4,2bb8 <__divdi3+0x13c>
    2ba8:	8085883a 	add	r2,r16,r2
    2bac:	a53fffc4 	addi	r20,r20,-1
    2bb0:	14000136 	bltu	r2,r16,2bb8 <__divdi3+0x13c>
    2bb4:	11014736 	bltu	r2,r4,30d4 <__divdi3+0x658>
    2bb8:	b004943a 	slli	r2,r22,16
    2bbc:	d8c00317 	ldw	r3,12(sp)
    2bc0:	a084b03a 	or	r2,r20,r2
    2bc4:	00000406 	br	2bd8 <__divdi3+0x15c>
    2bc8:	5811883a 	mov	r8,r11
    2bcc:	6ac0582e 	bgeu	r13,r11,2d30 <__divdi3+0x2b4>
    2bd0:	0005883a 	mov	r2,zero
    2bd4:	0007883a 	mov	r3,zero
    2bd8:	1025883a 	mov	r18,r2
    2bdc:	100d883a 	mov	r6,r2
    2be0:	d8800617 	ldw	r2,24(sp)
    2be4:	180f883a 	mov	r7,r3
    2be8:	10000726 	beq	r2,zero,2c08 <__divdi3+0x18c>
    2bec:	0009883a 	mov	r4,zero
    2bf0:	2485c83a 	sub	r2,r4,r18
    2bf4:	2089803a 	cmpltu	r4,r4,r2
    2bf8:	00c7c83a 	sub	r3,zero,r3
    2bfc:	1909c83a 	sub	r4,r3,r4
    2c00:	100d883a 	mov	r6,r2
    2c04:	200f883a 	mov	r7,r4
    2c08:	3005883a 	mov	r2,r6
    2c0c:	3807883a 	mov	r3,r7
    2c10:	dfc01017 	ldw	ra,64(sp)
    2c14:	df000f17 	ldw	fp,60(sp)
    2c18:	ddc00e17 	ldw	r23,56(sp)
    2c1c:	dd800d17 	ldw	r22,52(sp)
    2c20:	dd400c17 	ldw	r21,48(sp)
    2c24:	dd000b17 	ldw	r20,44(sp)
    2c28:	dcc00a17 	ldw	r19,40(sp)
    2c2c:	dc800917 	ldw	r18,36(sp)
    2c30:	dc400817 	ldw	r17,32(sp)
    2c34:	dc000717 	ldw	r16,28(sp)
    2c38:	dec01104 	addi	sp,sp,68
    2c3c:	f800283a 	ret
    2c40:	00bfffd4 	movui	r2,65535
    2c44:	12806f36 	bltu	r2,r10,2e04 <__divdi3+0x388>
    2c48:	00803fc4 	movi	r2,255
    2c4c:	12810236 	bltu	r2,r10,3058 <__divdi3+0x5dc>
    2c50:	000b883a 	mov	r5,zero
    2c54:	0005883a 	mov	r2,zero
    2c58:	8084d83a 	srl	r2,r16,r2
    2c5c:	01000074 	movhi	r4,1
    2c60:	212f9104 	addi	r4,r4,-16828
    2c64:	01800804 	movi	r6,32
    2c68:	1105883a 	add	r2,r2,r4
    2c6c:	10c00003 	ldbu	r3,0(r2)
    2c70:	28c7883a 	add	r3,r5,r3
    2c74:	30d1c83a 	sub	r8,r6,r3
    2c78:	40000626 	beq	r8,zero,2c94 <__divdi3+0x218>
    2c7c:	3205c83a 	sub	r2,r6,r8
    2c80:	b884d83a 	srl	r2,r23,r2
    2c84:	a206983a 	sll	r3,r20,r8
    2c88:	ba2e983a 	sll	r23,r23,r8
    2c8c:	8220983a 	sll	r16,r16,r8
    2c90:	18a8b03a 	or	r20,r3,r2
    2c94:	802ad43a 	srli	r21,r16,16
    2c98:	a009883a 	mov	r4,r20
    2c9c:	873fffcc 	andi	fp,r16,65535
    2ca0:	a80b883a 	mov	r5,r21
    2ca4:	00032380 	call	3238 <__udivsi3>
    2ca8:	a009883a 	mov	r4,r20
    2cac:	a80b883a 	mov	r5,r21
    2cb0:	102d883a 	mov	r22,r2
    2cb4:	00032400 	call	3240 <__umodsi3>
    2cb8:	1004943a 	slli	r2,r2,16
    2cbc:	b806d43a 	srli	r3,r23,16
    2cc0:	e5a3383a 	mul	r17,fp,r22
    2cc4:	10c4b03a 	or	r2,r2,r3
    2cc8:	1440042e 	bgeu	r2,r17,2cdc <__divdi3+0x260>
    2ccc:	1405883a 	add	r2,r2,r16
    2cd0:	b5bfffc4 	addi	r22,r22,-1
    2cd4:	14000136 	bltu	r2,r16,2cdc <__divdi3+0x260>
    2cd8:	14410236 	bltu	r2,r17,30e4 <__divdi3+0x668>
    2cdc:	1463c83a 	sub	r17,r2,r17
    2ce0:	8809883a 	mov	r4,r17
    2ce4:	a80b883a 	mov	r5,r21
    2ce8:	00032380 	call	3238 <__udivsi3>
    2cec:	8809883a 	mov	r4,r17
    2cf0:	a80b883a 	mov	r5,r21
    2cf4:	1029883a 	mov	r20,r2
    2cf8:	00032400 	call	3240 <__umodsi3>
    2cfc:	1004943a 	slli	r2,r2,16
    2d00:	e509383a 	mul	r4,fp,r20
    2d04:	b8ffffcc 	andi	r3,r23,65535
    2d08:	10c4b03a 	or	r2,r2,r3
    2d0c:	1100042e 	bgeu	r2,r4,2d20 <__divdi3+0x2a4>
    2d10:	8085883a 	add	r2,r16,r2
    2d14:	a53fffc4 	addi	r20,r20,-1
    2d18:	14000136 	bltu	r2,r16,2d20 <__divdi3+0x2a4>
    2d1c:	1100ef36 	bltu	r2,r4,30dc <__divdi3+0x660>
    2d20:	b004943a 	slli	r2,r22,16
    2d24:	0007883a 	mov	r3,zero
    2d28:	a084b03a 	or	r2,r20,r2
    2d2c:	003faa06 	br	2bd8 <__divdi3+0x15c>
    2d30:	00bfffd4 	movui	r2,65535
    2d34:	12c02d36 	bltu	r2,r11,2dec <__divdi3+0x370>
    2d38:	00803fc4 	movi	r2,255
    2d3c:	12c0cf36 	bltu	r2,r11,307c <__divdi3+0x600>
    2d40:	000b883a 	mov	r5,zero
    2d44:	0005883a 	mov	r2,zero
    2d48:	4084d83a 	srl	r2,r8,r2
    2d4c:	01000074 	movhi	r4,1
    2d50:	212f9104 	addi	r4,r4,-16828
    2d54:	01800804 	movi	r6,32
    2d58:	1105883a 	add	r2,r2,r4
    2d5c:	10c00003 	ldbu	r3,0(r2)
    2d60:	28c7883a 	add	r3,r5,r3
    2d64:	30f9c83a 	sub	fp,r6,r3
    2d68:	e000331e 	bne	fp,zero,2e38 <__divdi3+0x3bc>
    2d6c:	45000136 	bltu	r8,r20,2d74 <__divdi3+0x2f8>
    2d70:	bc3f9736 	bltu	r23,r16,2bd0 <__divdi3+0x154>
    2d74:	00800044 	movi	r2,1
    2d78:	0007883a 	mov	r3,zero
    2d7c:	003f9606 	br	2bd8 <__divdi3+0x15c>
    2d80:	0009883a 	mov	r4,zero
    2d84:	2285c83a 	sub	r2,r4,r10
    2d88:	02c7c83a 	sub	r3,zero,r11
    2d8c:	2089803a 	cmpltu	r4,r4,r2
    2d90:	1909c83a 	sub	r4,r3,r4
    2d94:	d8c00617 	ldw	r3,24(sp)
    2d98:	1015883a 	mov	r10,r2
    2d9c:	2017883a 	mov	r11,r4
    2da0:	00c6303a 	nor	r3,zero,r3
    2da4:	d8c00615 	stw	r3,24(sp)
    2da8:	003f4806 	br	2acc <__divdi3+0x50>
    2dac:	0009883a 	mov	r4,zero
    2db0:	2085c83a 	sub	r2,r4,r2
    2db4:	2089803a 	cmpltu	r4,r4,r2
    2db8:	00c7c83a 	sub	r3,zero,r3
    2dbc:	1909c83a 	sub	r4,r3,r4
    2dc0:	1019883a 	mov	r12,r2
    2dc4:	201b883a 	mov	r13,r4
    2dc8:	00bfffc4 	movi	r2,-1
    2dcc:	d8800615 	stw	r2,24(sp)
    2dd0:	003f3d06 	br	2ac8 <__divdi3+0x4c>
    2dd4:	00804034 	movhi	r2,256
    2dd8:	10bfffc4 	addi	r2,r2,-1
    2ddc:	1400aa36 	bltu	r2,r16,3088 <__divdi3+0x60c>
    2de0:	01400404 	movi	r5,16
    2de4:	2805883a 	mov	r2,r5
    2de8:	003f4406 	br	2afc <__divdi3+0x80>
    2dec:	00804034 	movhi	r2,256
    2df0:	10bfffc4 	addi	r2,r2,-1
    2df4:	12c09b36 	bltu	r2,r11,3064 <__divdi3+0x5e8>
    2df8:	01400404 	movi	r5,16
    2dfc:	2805883a 	mov	r2,r5
    2e00:	003fd106 	br	2d48 <__divdi3+0x2cc>
    2e04:	00804034 	movhi	r2,256
    2e08:	10bfffc4 	addi	r2,r2,-1
    2e0c:	1280a136 	bltu	r2,r10,3094 <__divdi3+0x618>
    2e10:	01400404 	movi	r5,16
    2e14:	2805883a 	mov	r2,r5
    2e18:	003f8f06 	br	2c58 <__divdi3+0x1dc>
    2e1c:	01000044 	movi	r4,1
    2e20:	000b883a 	mov	r5,zero
    2e24:	00032380 	call	3238 <__udivsi3>
    2e28:	1021883a 	mov	r16,r2
    2e2c:	00bfffd4 	movui	r2,65535
    2e30:	143fe836 	bltu	r2,r16,2dd4 <__divdi3+0x358>
    2e34:	003f2d06 	br	2aec <__divdi3+0x70>
    2e38:	3705c83a 	sub	r2,r6,fp
    2e3c:	4708983a 	sll	r4,r8,fp
    2e40:	8086d83a 	srl	r3,r16,r2
    2e44:	a0a2d83a 	srl	r17,r20,r2
    2e48:	b884d83a 	srl	r2,r23,r2
    2e4c:	20eab03a 	or	r21,r4,r3
    2e50:	a82cd43a 	srli	r22,r21,16
    2e54:	a706983a 	sll	r3,r20,fp
    2e58:	8809883a 	mov	r4,r17
    2e5c:	b00b883a 	mov	r5,r22
    2e60:	1886b03a 	or	r3,r3,r2
    2e64:	d8c00215 	stw	r3,8(sp)
    2e68:	00032380 	call	3238 <__udivsi3>
    2e6c:	8809883a 	mov	r4,r17
    2e70:	b00b883a 	mov	r5,r22
    2e74:	1029883a 	mov	r20,r2
    2e78:	00032400 	call	3240 <__umodsi3>
    2e7c:	a8ffffcc 	andi	r3,r21,65535
    2e80:	d8c00515 	stw	r3,20(sp)
    2e84:	d9000217 	ldw	r4,8(sp)
    2e88:	d9400517 	ldw	r5,20(sp)
    2e8c:	1004943a 	slli	r2,r2,16
    2e90:	2006d43a 	srli	r3,r4,16
    2e94:	8720983a 	sll	r16,r16,fp
    2e98:	2d23383a 	mul	r17,r5,r20
    2e9c:	10c4b03a 	or	r2,r2,r3
    2ea0:	dc000015 	stw	r16,0(sp)
    2ea4:	1440032e 	bgeu	r2,r17,2eb4 <__divdi3+0x438>
    2ea8:	1545883a 	add	r2,r2,r21
    2eac:	a53fffc4 	addi	r20,r20,-1
    2eb0:	1540842e 	bgeu	r2,r21,30c4 <__divdi3+0x648>
    2eb4:	1463c83a 	sub	r17,r2,r17
    2eb8:	8809883a 	mov	r4,r17
    2ebc:	b00b883a 	mov	r5,r22
    2ec0:	00032380 	call	3238 <__udivsi3>
    2ec4:	8809883a 	mov	r4,r17
    2ec8:	b00b883a 	mov	r5,r22
    2ecc:	1021883a 	mov	r16,r2
    2ed0:	00032400 	call	3240 <__umodsi3>
    2ed4:	d8c00517 	ldw	r3,20(sp)
    2ed8:	d9000217 	ldw	r4,8(sp)
    2edc:	1004943a 	slli	r2,r2,16
    2ee0:	1c0f383a 	mul	r7,r3,r16
    2ee4:	20ffffcc 	andi	r3,r4,65535
    2ee8:	10e2b03a 	or	r17,r2,r3
    2eec:	89c0032e 	bgeu	r17,r7,2efc <__divdi3+0x480>
    2ef0:	8d63883a 	add	r17,r17,r21
    2ef4:	843fffc4 	addi	r16,r16,-1
    2ef8:	8d406e2e 	bgeu	r17,r21,30b4 <__divdi3+0x638>
    2efc:	a008943a 	slli	r4,r20,16
    2f00:	d9400017 	ldw	r5,0(sp)
    2f04:	89e3c83a 	sub	r17,r17,r7
    2f08:	8110b03a 	or	r8,r16,r4
    2f0c:	280cd43a 	srli	r6,r5,16
    2f10:	28ffffcc 	andi	r3,r5,65535
    2f14:	40bfffcc 	andi	r2,r8,65535
    2f18:	400ad43a 	srli	r5,r8,16
    2f1c:	10d3383a 	mul	r9,r2,r3
    2f20:	1185383a 	mul	r2,r2,r6
    2f24:	28c7383a 	mul	r3,r5,r3
    2f28:	4808d43a 	srli	r4,r9,16
    2f2c:	298b383a 	mul	r5,r5,r6
    2f30:	10c5883a 	add	r2,r2,r3
    2f34:	2089883a 	add	r4,r4,r2
    2f38:	20c0022e 	bgeu	r4,r3,2f44 <__divdi3+0x4c8>
    2f3c:	00800074 	movhi	r2,1
    2f40:	288b883a 	add	r5,r5,r2
    2f44:	2004d43a 	srli	r2,r4,16
    2f48:	288b883a 	add	r5,r5,r2
    2f4c:	89403f36 	bltu	r17,r5,304c <__divdi3+0x5d0>
    2f50:	89403926 	beq	r17,r5,3038 <__divdi3+0x5bc>
    2f54:	4005883a 	mov	r2,r8
    2f58:	0007883a 	mov	r3,zero
    2f5c:	003f1e06 	br	2bd8 <__divdi3+0x15c>
    2f60:	85a0983a 	sll	r16,r16,r22
    2f64:	3585c83a 	sub	r2,r6,r22
    2f68:	a0a2d83a 	srl	r17,r20,r2
    2f6c:	802ad43a 	srli	r21,r16,16
    2f70:	b884d83a 	srl	r2,r23,r2
    2f74:	a586983a 	sll	r3,r20,r22
    2f78:	8809883a 	mov	r4,r17
    2f7c:	a80b883a 	mov	r5,r21
    2f80:	1886b03a 	or	r3,r3,r2
    2f84:	d8c00115 	stw	r3,4(sp)
    2f88:	00032380 	call	3238 <__udivsi3>
    2f8c:	8809883a 	mov	r4,r17
    2f90:	a80b883a 	mov	r5,r21
    2f94:	d8800415 	stw	r2,16(sp)
    2f98:	00032400 	call	3240 <__umodsi3>
    2f9c:	d9400117 	ldw	r5,4(sp)
    2fa0:	d9000417 	ldw	r4,16(sp)
    2fa4:	1004943a 	slli	r2,r2,16
    2fa8:	873fffcc 	andi	fp,r16,65535
    2fac:	2806d43a 	srli	r3,r5,16
    2fb0:	e123383a 	mul	r17,fp,r4
    2fb4:	10c4b03a 	or	r2,r2,r3
    2fb8:	1440042e 	bgeu	r2,r17,2fcc <__divdi3+0x550>
    2fbc:	213fffc4 	addi	r4,r4,-1
    2fc0:	1405883a 	add	r2,r2,r16
    2fc4:	d9000415 	stw	r4,16(sp)
    2fc8:	1400352e 	bgeu	r2,r16,30a0 <__divdi3+0x624>
    2fcc:	1463c83a 	sub	r17,r2,r17
    2fd0:	8809883a 	mov	r4,r17
    2fd4:	a80b883a 	mov	r5,r21
    2fd8:	00032380 	call	3238 <__udivsi3>
    2fdc:	8809883a 	mov	r4,r17
    2fe0:	a80b883a 	mov	r5,r21
    2fe4:	1029883a 	mov	r20,r2
    2fe8:	00032400 	call	3240 <__umodsi3>
    2fec:	d9400117 	ldw	r5,4(sp)
    2ff0:	1004943a 	slli	r2,r2,16
    2ff4:	e509383a 	mul	r4,fp,r20
    2ff8:	28ffffcc 	andi	r3,r5,65535
    2ffc:	10c6b03a 	or	r3,r2,r3
    3000:	1900062e 	bgeu	r3,r4,301c <__divdi3+0x5a0>
    3004:	1c07883a 	add	r3,r3,r16
    3008:	a53fffc4 	addi	r20,r20,-1
    300c:	1c000336 	bltu	r3,r16,301c <__divdi3+0x5a0>
    3010:	1900022e 	bgeu	r3,r4,301c <__divdi3+0x5a0>
    3014:	a53fffc4 	addi	r20,r20,-1
    3018:	1c07883a 	add	r3,r3,r16
    301c:	d9400417 	ldw	r5,16(sp)
    3020:	bdae983a 	sll	r23,r23,r22
    3024:	1923c83a 	sub	r17,r3,r4
    3028:	2804943a 	slli	r2,r5,16
    302c:	a0a8b03a 	or	r20,r20,r2
    3030:	dd000315 	stw	r20,12(sp)
    3034:	003ebf06 	br	2b34 <__divdi3+0xb8>
    3038:	2004943a 	slli	r2,r4,16
    303c:	bf08983a 	sll	r4,r23,fp
    3040:	48ffffcc 	andi	r3,r9,65535
    3044:	10c5883a 	add	r2,r2,r3
    3048:	20bfc22e 	bgeu	r4,r2,2f54 <__divdi3+0x4d8>
    304c:	40bfffc4 	addi	r2,r8,-1
    3050:	0007883a 	mov	r3,zero
    3054:	003ee006 	br	2bd8 <__divdi3+0x15c>
    3058:	01400204 	movi	r5,8
    305c:	2805883a 	mov	r2,r5
    3060:	003efd06 	br	2c58 <__divdi3+0x1dc>
    3064:	01400604 	movi	r5,24
    3068:	2805883a 	mov	r2,r5
    306c:	003f3606 	br	2d48 <__divdi3+0x2cc>
    3070:	01400204 	movi	r5,8
    3074:	2805883a 	mov	r2,r5
    3078:	003ea006 	br	2afc <__divdi3+0x80>
    307c:	01400204 	movi	r5,8
    3080:	2805883a 	mov	r2,r5
    3084:	003f3006 	br	2d48 <__divdi3+0x2cc>
    3088:	01400604 	movi	r5,24
    308c:	2805883a 	mov	r2,r5
    3090:	003e9a06 	br	2afc <__divdi3+0x80>
    3094:	01400604 	movi	r5,24
    3098:	2805883a 	mov	r2,r5
    309c:	003eee06 	br	2c58 <__divdi3+0x1dc>
    30a0:	147fca2e 	bgeu	r2,r17,2fcc <__divdi3+0x550>
    30a4:	213fffc4 	addi	r4,r4,-1
    30a8:	1405883a 	add	r2,r2,r16
    30ac:	d9000415 	stw	r4,16(sp)
    30b0:	003fc606 	br	2fcc <__divdi3+0x550>
    30b4:	89ff912e 	bgeu	r17,r7,2efc <__divdi3+0x480>
    30b8:	8d63883a 	add	r17,r17,r21
    30bc:	843fffc4 	addi	r16,r16,-1
    30c0:	003f8e06 	br	2efc <__divdi3+0x480>
    30c4:	147f7b2e 	bgeu	r2,r17,2eb4 <__divdi3+0x438>
    30c8:	a53fffc4 	addi	r20,r20,-1
    30cc:	1545883a 	add	r2,r2,r21
    30d0:	003f7806 	br	2eb4 <__divdi3+0x438>
    30d4:	a53fffc4 	addi	r20,r20,-1
    30d8:	003eb706 	br	2bb8 <__divdi3+0x13c>
    30dc:	a53fffc4 	addi	r20,r20,-1
    30e0:	003f0f06 	br	2d20 <__divdi3+0x2a4>
    30e4:	b5bfffc4 	addi	r22,r22,-1
    30e8:	1405883a 	add	r2,r2,r16
    30ec:	003efb06 	br	2cdc <__divdi3+0x260>
    30f0:	b5bfffc4 	addi	r22,r22,-1
    30f4:	1405883a 	add	r2,r2,r16
    30f8:	003e9e06 	br	2b74 <__divdi3+0xf8>

000030fc <udivmodsi4>:
    30fc:	29001b2e 	bgeu	r5,r4,316c <udivmodsi4+0x70>
    3100:	28001a16 	blt	r5,zero,316c <udivmodsi4+0x70>
    3104:	00800044 	movi	r2,1
    3108:	0007883a 	mov	r3,zero
    310c:	01c007c4 	movi	r7,31
    3110:	00000306 	br	3120 <udivmodsi4+0x24>
    3114:	19c01326 	beq	r3,r7,3164 <udivmodsi4+0x68>
    3118:	18c00044 	addi	r3,r3,1
    311c:	28000416 	blt	r5,zero,3130 <udivmodsi4+0x34>
    3120:	294b883a 	add	r5,r5,r5
    3124:	1085883a 	add	r2,r2,r2
    3128:	293ffa36 	bltu	r5,r4,3114 <udivmodsi4+0x18>
    312c:	10000d26 	beq	r2,zero,3164 <udivmodsi4+0x68>
    3130:	0007883a 	mov	r3,zero
    3134:	21400236 	bltu	r4,r5,3140 <udivmodsi4+0x44>
    3138:	2149c83a 	sub	r4,r4,r5
    313c:	1886b03a 	or	r3,r3,r2
    3140:	1004d07a 	srli	r2,r2,1
    3144:	280ad07a 	srli	r5,r5,1
    3148:	103ffa1e 	bne	r2,zero,3134 <udivmodsi4+0x38>
    314c:	30000226 	beq	r6,zero,3158 <udivmodsi4+0x5c>
    3150:	2005883a 	mov	r2,r4
    3154:	f800283a 	ret
    3158:	1809883a 	mov	r4,r3
    315c:	2005883a 	mov	r2,r4
    3160:	f800283a 	ret
    3164:	0007883a 	mov	r3,zero
    3168:	003ff806 	br	314c <udivmodsi4+0x50>
    316c:	00800044 	movi	r2,1
    3170:	0007883a 	mov	r3,zero
    3174:	003fef06 	br	3134 <udivmodsi4+0x38>

00003178 <__divsi3>:
    3178:	defffe04 	addi	sp,sp,-8
    317c:	dc000015 	stw	r16,0(sp)
    3180:	dfc00115 	stw	ra,4(sp)
    3184:	0021883a 	mov	r16,zero
    3188:	20000c16 	blt	r4,zero,31bc <__divsi3+0x44>
    318c:	000d883a 	mov	r6,zero
    3190:	28000e16 	blt	r5,zero,31cc <__divsi3+0x54>
    3194:	00030fc0 	call	30fc <udivmodsi4>
    3198:	1007883a 	mov	r3,r2
    319c:	8005003a 	cmpeq	r2,r16,zero
    31a0:	1000011e 	bne	r2,zero,31a8 <__divsi3+0x30>
    31a4:	00c7c83a 	sub	r3,zero,r3
    31a8:	1805883a 	mov	r2,r3
    31ac:	dfc00117 	ldw	ra,4(sp)
    31b0:	dc000017 	ldw	r16,0(sp)
    31b4:	dec00204 	addi	sp,sp,8
    31b8:	f800283a 	ret
    31bc:	0109c83a 	sub	r4,zero,r4
    31c0:	04000044 	movi	r16,1
    31c4:	000d883a 	mov	r6,zero
    31c8:	283ff20e 	bge	r5,zero,3194 <__divsi3+0x1c>
    31cc:	014bc83a 	sub	r5,zero,r5
    31d0:	8021003a 	cmpeq	r16,r16,zero
    31d4:	003fef06 	br	3194 <__divsi3+0x1c>

000031d8 <__modsi3>:
    31d8:	deffff04 	addi	sp,sp,-4
    31dc:	dfc00015 	stw	ra,0(sp)
    31e0:	01800044 	movi	r6,1
    31e4:	2807883a 	mov	r3,r5
    31e8:	20000416 	blt	r4,zero,31fc <__modsi3+0x24>
    31ec:	28000c16 	blt	r5,zero,3220 <__modsi3+0x48>
    31f0:	dfc00017 	ldw	ra,0(sp)
    31f4:	dec00104 	addi	sp,sp,4
    31f8:	00030fc1 	jmpi	30fc <udivmodsi4>
    31fc:	0109c83a 	sub	r4,zero,r4
    3200:	28000b16 	blt	r5,zero,3230 <__modsi3+0x58>
    3204:	180b883a 	mov	r5,r3
    3208:	01800044 	movi	r6,1
    320c:	00030fc0 	call	30fc <udivmodsi4>
    3210:	0085c83a 	sub	r2,zero,r2
    3214:	dfc00017 	ldw	ra,0(sp)
    3218:	dec00104 	addi	sp,sp,4
    321c:	f800283a 	ret
    3220:	014bc83a 	sub	r5,zero,r5
    3224:	dfc00017 	ldw	ra,0(sp)
    3228:	dec00104 	addi	sp,sp,4
    322c:	00030fc1 	jmpi	30fc <udivmodsi4>
    3230:	0147c83a 	sub	r3,zero,r5
    3234:	003ff306 	br	3204 <__modsi3+0x2c>

00003238 <__udivsi3>:
    3238:	000d883a 	mov	r6,zero
    323c:	00030fc1 	jmpi	30fc <udivmodsi4>

00003240 <__umodsi3>:
    3240:	01800044 	movi	r6,1
    3244:	00030fc1 	jmpi	30fc <udivmodsi4>

00003248 <memcpy>:
    3248:	01c003c4 	movi	r7,15
    324c:	2007883a 	mov	r3,r4
    3250:	3980032e 	bgeu	r7,r6,3260 <memcpy+0x18>
    3254:	2904b03a 	or	r2,r5,r4
    3258:	108000cc 	andi	r2,r2,3
    325c:	10000926 	beq	r2,zero,3284 <memcpy+0x3c>
    3260:	30000626 	beq	r6,zero,327c <memcpy+0x34>
    3264:	30cd883a 	add	r6,r6,r3
    3268:	28800003 	ldbu	r2,0(r5)
    326c:	29400044 	addi	r5,r5,1
    3270:	18800005 	stb	r2,0(r3)
    3274:	18c00044 	addi	r3,r3,1
    3278:	30fffb1e 	bne	r6,r3,3268 <memcpy+0x20>
    327c:	2005883a 	mov	r2,r4
    3280:	f800283a 	ret
    3284:	3811883a 	mov	r8,r7
    3288:	200f883a 	mov	r7,r4
    328c:	28c00017 	ldw	r3,0(r5)
    3290:	31bffc04 	addi	r6,r6,-16
    3294:	38c00015 	stw	r3,0(r7)
    3298:	28800117 	ldw	r2,4(r5)
    329c:	38800115 	stw	r2,4(r7)
    32a0:	28c00217 	ldw	r3,8(r5)
    32a4:	38c00215 	stw	r3,8(r7)
    32a8:	28800317 	ldw	r2,12(r5)
    32ac:	29400404 	addi	r5,r5,16
    32b0:	38800315 	stw	r2,12(r7)
    32b4:	39c00404 	addi	r7,r7,16
    32b8:	41bff436 	bltu	r8,r6,328c <memcpy+0x44>
    32bc:	008000c4 	movi	r2,3
    32c0:	1180072e 	bgeu	r2,r6,32e0 <memcpy+0x98>
    32c4:	1007883a 	mov	r3,r2
    32c8:	28800017 	ldw	r2,0(r5)
    32cc:	31bfff04 	addi	r6,r6,-4
    32d0:	29400104 	addi	r5,r5,4
    32d4:	38800015 	stw	r2,0(r7)
    32d8:	39c00104 	addi	r7,r7,4
    32dc:	19bffa36 	bltu	r3,r6,32c8 <memcpy+0x80>
    32e0:	3807883a 	mov	r3,r7
    32e4:	003fde06 	br	3260 <memcpy+0x18>

000032e8 <memset>:
    32e8:	008000c4 	movi	r2,3
    32ec:	29403fcc 	andi	r5,r5,255
    32f0:	2007883a 	mov	r3,r4
    32f4:	1180022e 	bgeu	r2,r6,3300 <memset+0x18>
    32f8:	2084703a 	and	r2,r4,r2
    32fc:	10000826 	beq	r2,zero,3320 <memset+0x38>
    3300:	30000526 	beq	r6,zero,3318 <memset+0x30>
    3304:	2805883a 	mov	r2,r5
    3308:	30cd883a 	add	r6,r6,r3
    330c:	18800005 	stb	r2,0(r3)
    3310:	18c00044 	addi	r3,r3,1
    3314:	19bffd1e 	bne	r3,r6,330c <memset+0x24>
    3318:	2005883a 	mov	r2,r4
    331c:	f800283a 	ret
    3320:	2804923a 	slli	r2,r5,8
    3324:	020003c4 	movi	r8,15
    3328:	200f883a 	mov	r7,r4
    332c:	2884b03a 	or	r2,r5,r2
    3330:	1006943a 	slli	r3,r2,16
    3334:	10c6b03a 	or	r3,r2,r3
    3338:	41800a2e 	bgeu	r8,r6,3364 <memset+0x7c>
    333c:	4005883a 	mov	r2,r8
    3340:	31bffc04 	addi	r6,r6,-16
    3344:	38c00015 	stw	r3,0(r7)
    3348:	38c00115 	stw	r3,4(r7)
    334c:	38c00215 	stw	r3,8(r7)
    3350:	38c00315 	stw	r3,12(r7)
    3354:	39c00404 	addi	r7,r7,16
    3358:	11bff936 	bltu	r2,r6,3340 <memset+0x58>
    335c:	008000c4 	movi	r2,3
    3360:	1180052e 	bgeu	r2,r6,3378 <memset+0x90>
    3364:	31bfff04 	addi	r6,r6,-4
    3368:	008000c4 	movi	r2,3
    336c:	38c00015 	stw	r3,0(r7)
    3370:	39c00104 	addi	r7,r7,4
    3374:	11bffb36 	bltu	r2,r6,3364 <memset+0x7c>
    3378:	3807883a 	mov	r3,r7
    337c:	003fe006 	br	3300 <memset+0x18>

00003380 <alt_irq_register>:
 */
 
int alt_irq_register (alt_u32 id, 
                      void* context, 
                      alt_isr_func handler)
{
    3380:	deffef04 	addi	sp,sp,-68
    3384:	df001015 	stw	fp,64(sp)
    3388:	df001004 	addi	fp,sp,64
    338c:	e13ffc15 	stw	r4,-16(fp)
    3390:	e17ffd15 	stw	r5,-12(fp)
    3394:	e1bffe15 	stw	r6,-8(fp)
  int rc = -EINVAL;  
    3398:	00bffa84 	movi	r2,-22
    339c:	e0bffb15 	stw	r2,-20(fp)
  alt_irq_context status;

  if (id < ALT_NIRQ)
    33a0:	e0bffc17 	ldw	r2,-16(fp)
    33a4:	10800828 	cmpgeui	r2,r2,32
    33a8:	1000601e 	bne	r2,zero,352c <alt_irq_register+0x1ac>
static ALT_INLINE alt_irq_context ALT_ALWAYS_INLINE 
       alt_irq_disable_all (void)
{
  alt_irq_context context;

  NIOS2_READ_STATUS (context);
    33ac:	0005303a 	rdctl	r2,status
    33b0:	e0bff915 	stw	r2,-28(fp)

  NIOS2_WRITE_STATUS (context & ~NIOS2_STATUS_PIE_MSK);
    33b4:	e0fff917 	ldw	r3,-28(fp)
    33b8:	00bfff84 	movi	r2,-2
    33bc:	1884703a 	and	r2,r3,r2
    33c0:	1001703a 	wrctl	status,r2
  
  return context;
    33c4:	e0bff917 	ldw	r2,-28(fp)
     * interrupts are disabled while the handler tables are updated to ensure
     * that an interrupt doesn't occur while the tables are in an inconsistant
     * state.
     */

    status = alt_irq_disable_all ();
    33c8:	e0bffa15 	stw	r2,-24(fp)

    alt_irq[id].handler = handler;
    33cc:	e0bffc17 	ldw	r2,-16(fp)
    33d0:	00c01ef4 	movhi	r3,123
    33d4:	18c61204 	addi	r3,r3,6216
    33d8:	100490fa 	slli	r2,r2,3
    33dc:	10c7883a 	add	r3,r2,r3
    33e0:	e0bffe17 	ldw	r2,-8(fp)
    33e4:	18800015 	stw	r2,0(r3)
    alt_irq[id].context = context;
    33e8:	e0bffc17 	ldw	r2,-16(fp)
    33ec:	00c01ef4 	movhi	r3,123
    33f0:	18c61204 	addi	r3,r3,6216
    33f4:	100490fa 	slli	r2,r2,3
    33f8:	10c5883a 	add	r2,r2,r3
    33fc:	10c00104 	addi	r3,r2,4
    3400:	e0bffd17 	ldw	r2,-12(fp)
    3404:	18800015 	stw	r2,0(r3)

    rc = (handler) ? alt_irq_enable (id): alt_irq_disable (id);
    3408:	e0bffe17 	ldw	r2,-8(fp)
    340c:	1005003a 	cmpeq	r2,r2,zero
    3410:	1000201e 	bne	r2,zero,3494 <alt_irq_register+0x114>
    3414:	e0bffc17 	ldw	r2,-16(fp)
    3418:	e0bff715 	stw	r2,-36(fp)
static ALT_INLINE alt_irq_context ALT_ALWAYS_INLINE 
       alt_irq_disable_all (void)
{
  alt_irq_context context;

  NIOS2_READ_STATUS (context);
    341c:	0005303a 	rdctl	r2,status
    3420:	e0bff615 	stw	r2,-40(fp)

  NIOS2_WRITE_STATUS (context & ~NIOS2_STATUS_PIE_MSK);
    3424:	e0fff617 	ldw	r3,-40(fp)
    3428:	00bfff84 	movi	r2,-2
    342c:	1884703a 	and	r2,r3,r2
    3430:	1001703a 	wrctl	status,r2
  
  return context;
    3434:	e0bff617 	ldw	r2,-40(fp)
static ALT_INLINE int ALT_ALWAYS_INLINE alt_irq_enable (alt_u32 id)
{
  alt_irq_context  status;
  extern volatile alt_u32 alt_irq_active;

  status = alt_irq_disable_all ();
    3438:	e0bff815 	stw	r2,-32(fp)

  alt_irq_active |= (1 << id);
    343c:	e0fff717 	ldw	r3,-36(fp)
    3440:	00800044 	movi	r2,1
    3444:	10c4983a 	sll	r2,r2,r3
    3448:	1007883a 	mov	r3,r2
    344c:	00800074 	movhi	r2,1
    3450:	10809e04 	addi	r2,r2,632
    3454:	10800017 	ldw	r2,0(r2)
    3458:	1886b03a 	or	r3,r3,r2
    345c:	00800074 	movhi	r2,1
    3460:	10809e04 	addi	r2,r2,632
    3464:	10c00015 	stw	r3,0(r2)
  NIOS2_WRITE_IENABLE (alt_irq_active);
    3468:	00800074 	movhi	r2,1
    346c:	10809e04 	addi	r2,r2,632
    3470:	10800017 	ldw	r2,0(r2)
    3474:	100170fa 	wrctl	ienable,r2
    3478:	e0bff817 	ldw	r2,-32(fp)
    347c:	e0bff515 	stw	r2,-44(fp)
  status &= ~NIOS2_STATUS_PIE_MSK;
  status |= (context & NIOS2_STATUS_PIE_MSK);
  
  NIOS2_WRITE_STATUS (status);
#else
  NIOS2_WRITE_STATUS (context);
    3480:	e0bff517 	ldw	r2,-44(fp)
    3484:	1001703a 	wrctl	status,r2

  alt_irq_enable_all(status);

  return 0;
    3488:	0005883a 	mov	r2,zero
    348c:	e0bfff15 	stw	r2,-4(fp)
    3490:	00002006 	br	3514 <alt_irq_register+0x194>
    3494:	e0bffc17 	ldw	r2,-16(fp)
    3498:	e0bff315 	stw	r2,-52(fp)
static ALT_INLINE alt_irq_context ALT_ALWAYS_INLINE 
       alt_irq_disable_all (void)
{
  alt_irq_context context;

  NIOS2_READ_STATUS (context);
    349c:	0005303a 	rdctl	r2,status
    34a0:	e0bff215 	stw	r2,-56(fp)

  NIOS2_WRITE_STATUS (context & ~NIOS2_STATUS_PIE_MSK);
    34a4:	e0fff217 	ldw	r3,-56(fp)
    34a8:	00bfff84 	movi	r2,-2
    34ac:	1884703a 	and	r2,r3,r2
    34b0:	1001703a 	wrctl	status,r2
  
  return context;
    34b4:	e0bff217 	ldw	r2,-56(fp)
static ALT_INLINE int ALT_ALWAYS_INLINE alt_irq_disable (alt_u32 id)
{
  alt_irq_context  status;
  extern volatile alt_u32 alt_irq_active;

  status = alt_irq_disable_all ();
    34b8:	e0bff415 	stw	r2,-48(fp)

  alt_irq_active &= ~(1 << id);
    34bc:	e0fff317 	ldw	r3,-52(fp)
    34c0:	00800044 	movi	r2,1
    34c4:	10c4983a 	sll	r2,r2,r3
    34c8:	0084303a 	nor	r2,zero,r2
    34cc:	1007883a 	mov	r3,r2
    34d0:	00800074 	movhi	r2,1
    34d4:	10809e04 	addi	r2,r2,632
    34d8:	10800017 	ldw	r2,0(r2)
    34dc:	1886703a 	and	r3,r3,r2
    34e0:	00800074 	movhi	r2,1
    34e4:	10809e04 	addi	r2,r2,632
    34e8:	10c00015 	stw	r3,0(r2)
  NIOS2_WRITE_IENABLE (alt_irq_active);
    34ec:	00800074 	movhi	r2,1
    34f0:	10809e04 	addi	r2,r2,632
    34f4:	10800017 	ldw	r2,0(r2)
    34f8:	100170fa 	wrctl	ienable,r2
    34fc:	e0bff417 	ldw	r2,-48(fp)
    3500:	e0bff115 	stw	r2,-60(fp)
  status &= ~NIOS2_STATUS_PIE_MSK;
  status |= (context & NIOS2_STATUS_PIE_MSK);
  
  NIOS2_WRITE_STATUS (status);
#else
  NIOS2_WRITE_STATUS (context);
    3504:	e0bff117 	ldw	r2,-60(fp)
    3508:	1001703a 	wrctl	status,r2

  alt_irq_enable_all(status);

  return 0;
    350c:	0005883a 	mov	r2,zero
    3510:	e0bfff15 	stw	r2,-4(fp)
    3514:	e0bfff17 	ldw	r2,-4(fp)
    3518:	e0bffb15 	stw	r2,-20(fp)
    351c:	e0bffa17 	ldw	r2,-24(fp)
    3520:	e0bff015 	stw	r2,-64(fp)
    3524:	e0bff017 	ldw	r2,-64(fp)
    3528:	1001703a 	wrctl	status,r2

    alt_irq_enable_all(status);
  }
  return rc; 
    352c:	e0bffb17 	ldw	r2,-20(fp)
}
    3530:	e037883a 	mov	sp,fp
    3534:	df000017 	ldw	fp,0(sp)
    3538:	dec00104 	addi	sp,sp,4
    353c:	f800283a 	ret

00003540 <alt_load>:
 * there is no bootloader, so this application is responsible for loading to
 * RAM any sections that are required.
 */  

void alt_load (void)
{
    3540:	defffe04 	addi	sp,sp,-8
    3544:	dfc00115 	stw	ra,4(sp)
    3548:	df000015 	stw	fp,0(sp)
    354c:	d839883a 	mov	fp,sp
  /* 
   * Copy the .rwdata section. 
   */

  alt_load_section (&__flash_rwdata_start, 
    3550:	01000074 	movhi	r4,1
    3554:	21385e04 	addi	r4,r4,-7816
    3558:	01400074 	movhi	r5,1
    355c:	29703f04 	addi	r5,r5,-16132
    3560:	01800074 	movhi	r6,1
    3564:	31b85e04 	addi	r6,r6,-7816
    3568:	00035c00 	call	35c0 <alt_load_section>

  /*
   * Copy the exception handler.
   */

  alt_load_section (&__flash_exceptions_start, 
    356c:	01000034 	movhi	r4,0
    3570:	21000804 	addi	r4,r4,32
    3574:	01400034 	movhi	r5,0
    3578:	29400804 	addi	r5,r5,32
    357c:	01800034 	movhi	r6,0
    3580:	31806e04 	addi	r6,r6,440
    3584:	00035c00 	call	35c0 <alt_load_section>

  /*
   * Copy the .rodata section.
   */

  alt_load_section (&__flash_rodata_start, 
    3588:	01000074 	movhi	r4,1
    358c:	212eb404 	addi	r4,r4,-17712
    3590:	01400074 	movhi	r5,1
    3594:	296eb404 	addi	r5,r5,-17712
    3598:	01800074 	movhi	r6,1
    359c:	31b03f04 	addi	r6,r6,-16132
    35a0:	00035c00 	call	35c0 <alt_load_section>
  
  /*
   * Now ensure that the caches are in synch.
   */
  
  alt_dcache_flush_all();
    35a4:	00083900 	call	8390 <alt_dcache_flush_all>
  alt_icache_flush_all();
    35a8:	00086480 	call	8648 <alt_icache_flush_all>
}
    35ac:	e037883a 	mov	sp,fp
    35b0:	dfc00117 	ldw	ra,4(sp)
    35b4:	df000017 	ldw	fp,0(sp)
    35b8:	dec00204 	addi	sp,sp,8
    35bc:	f800283a 	ret

000035c0 <alt_load_section>:
 */

static void ALT_INLINE alt_load_section (alt_u32* from, 
                                         alt_u32* to, 
                                         alt_u32* end)
{
    35c0:	defffc04 	addi	sp,sp,-16
    35c4:	df000315 	stw	fp,12(sp)
    35c8:	df000304 	addi	fp,sp,12
    35cc:	e13ffd15 	stw	r4,-12(fp)
    35d0:	e17ffe15 	stw	r5,-8(fp)
    35d4:	e1bfff15 	stw	r6,-4(fp)
  if (to != from)
    35d8:	e0fffe17 	ldw	r3,-8(fp)
    35dc:	e0bffd17 	ldw	r2,-12(fp)
    35e0:	18800e26 	beq	r3,r2,361c <alt_load_section+0x5c>
  {
    while( to != end )
    35e4:	00000a06 	br	3610 <alt_load_section+0x50>
    {
      *to++ = *from++;
    35e8:	e0bffd17 	ldw	r2,-12(fp)
    35ec:	10c00017 	ldw	r3,0(r2)
    35f0:	e0bffe17 	ldw	r2,-8(fp)
    35f4:	10c00015 	stw	r3,0(r2)
    35f8:	e0bffe17 	ldw	r2,-8(fp)
    35fc:	10800104 	addi	r2,r2,4
    3600:	e0bffe15 	stw	r2,-8(fp)
    3604:	e0bffd17 	ldw	r2,-12(fp)
    3608:	10800104 	addi	r2,r2,4
    360c:	e0bffd15 	stw	r2,-12(fp)
                                         alt_u32* to, 
                                         alt_u32* end)
{
  if (to != from)
  {
    while( to != end )
    3610:	e0fffe17 	ldw	r3,-8(fp)
    3614:	e0bfff17 	ldw	r2,-4(fp)
    3618:	18bff31e 	bne	r3,r2,35e8 <alt_load_section+0x28>
    {
      *to++ = *from++;
    }
  }
}
    361c:	e037883a 	mov	sp,fp
    3620:	df000017 	ldw	fp,0(sp)
    3624:	dec00104 	addi	sp,sp,4
    3628:	f800283a 	ret

0000362c <alt_main>:
 * devices/filesystems/components in the system; and call the entry point for
 * the users application, i.e. main().
 */

void alt_main (void)
{
    362c:	defffd04 	addi	sp,sp,-12
    3630:	dfc00215 	stw	ra,8(sp)
    3634:	df000115 	stw	fp,4(sp)
    3638:	df000104 	addi	fp,sp,4
#endif

  /* ALT LOG - please see HAL/sys/alt_log_printf.h for details */
  ALT_LOG_PRINT_BOOT("[alt_main.c] Entering alt_main, calling alt_irq_init.\r\n");
  /* Initialize the interrupt controller. */
  alt_irq_init (NULL);
    363c:	0009883a 	mov	r4,zero
    3640:	00039300 	call	3930 <alt_irq_init>
  ALT_LOG_PRINT_BOOT("[alt_main.c] Done OS Init, calling alt_sem_create.\r\n");
  ALT_SEM_CREATE (&alt_fd_list_lock, 1);

  /* Initialize the device drivers/software components. */
  ALT_LOG_PRINT_BOOT("[alt_main.c] Calling alt_sys_init.\r\n");
  alt_sys_init();
    3644:	00039640 	call	3964 <alt_sys_init>
   * devices be present (not equal to /dev/null) and if direct drivers
   * aren't being used.
   */

    ALT_LOG_PRINT_BOOT("[alt_main.c] Redirecting IO.\r\n");
    alt_io_redirect(ALT_STDOUT, ALT_STDIN, ALT_STDERR);
    3648:	01000074 	movhi	r4,1
    364c:	212fd104 	addi	r4,r4,-16572
    3650:	01400074 	movhi	r5,1
    3654:	296fd104 	addi	r5,r5,-16572
    3658:	01800074 	movhi	r6,1
    365c:	31afd104 	addi	r6,r6,-16572
    3660:	000873c0 	call	873c <alt_io_redirect>
  /* 
   * Call the C++ constructors 
   */

  ALT_LOG_PRINT_BOOT("[alt_main.c] Calling C++ constructors.\r\n");
  _do_ctors ();
    3664:	00084ec0 	call	84ec <_do_ctors>
   * redefined as _exit()). This is in the interest of reducing code footprint,
   * in that the atexit() overhead is removed when it's not needed.
   */

  ALT_LOG_PRINT_BOOT("[alt_main.c] Calling atexit.\r\n");
  atexit (_do_dtors);
    3668:	01000074 	movhi	r4,1
    366c:	21215404 	addi	r4,r4,-31408
    3670:	00090600 	call	9060 <atexit>
  ALT_LOG_PRINT_BOOT("[alt_main.c] Calling main.\r\n");

#ifdef ALT_NO_EXIT
  main (alt_argc, alt_argv, alt_envp);
#else
  result = main (alt_argc, alt_argv, alt_envp);
    3674:	d1284f17 	ldw	r4,-24260(gp)
    3678:	d1685017 	ldw	r5,-24256(gp)
    367c:	d1a85117 	ldw	r6,-24252(gp)
    3680:	0000ad40 	call	ad4 <main>
    3684:	e0bfff15 	stw	r2,-4(fp)
  close(STDOUT_FILENO);
    3688:	01000044 	movi	r4,1
    368c:	00082340 	call	8234 <close>
  exit (result);
    3690:	e13fff17 	ldw	r4,-4(fp)
    3694:	00090740 	call	9074 <exit>

00003698 <alt_printf>:
/* 
 * ALT printf function 
 */
void 
alt_printf(const char* fmt, ... )
{
    3698:	defff204 	addi	sp,sp,-56
    369c:	dfc00a15 	stw	ra,40(sp)
    36a0:	df000915 	stw	fp,36(sp)
    36a4:	df000904 	addi	fp,sp,36
    36a8:	e1400215 	stw	r5,8(fp)
    36ac:	e1800315 	stw	r6,12(fp)
    36b0:	e1c00415 	stw	r7,16(fp)
    36b4:	e13fff15 	stw	r4,-4(fp)
	va_list args;
	va_start(args, fmt);
    36b8:	e0800204 	addi	r2,fp,8
    36bc:	e0bffe15 	stw	r2,-8(fp)
    const char *w;
    char c;

    /* Process format string. */
    w = fmt;
    36c0:	e0bfff17 	ldw	r2,-4(fp)
    36c4:	e0bffd15 	stw	r2,-12(fp)
    while ((c = *w++) != 0)
    36c8:	00007806 	br	38ac <alt_printf+0x214>
    {
        /* If not a format escape character, just print  */
        /* character.  Otherwise, process format string. */
        if (c != '%')
    36cc:	e0bffc07 	ldb	r2,-16(fp)
    36d0:	10800960 	cmpeqi	r2,r2,37
    36d4:	1000031e 	bne	r2,zero,36e4 <alt_printf+0x4c>
        {
            alt_putchar(c);
    36d8:	e13ffc07 	ldb	r4,-16(fp)
    36dc:	00038f00 	call	38f0 <alt_putchar>
    36e0:	00007206 	br	38ac <alt_printf+0x214>
        }
        else
        {
            /* Get format character.  If none     */
            /* available, processing is complete. */
            if ((c = *w++) != 0)
    36e4:	e0bffd17 	ldw	r2,-12(fp)
    36e8:	10800003 	ldbu	r2,0(r2)
    36ec:	e0bffc05 	stb	r2,-16(fp)
    36f0:	e0bffc07 	ldb	r2,-16(fp)
    36f4:	1004c03a 	cmpne	r2,r2,zero
    36f8:	1007883a 	mov	r3,r2
    36fc:	e0bffd17 	ldw	r2,-12(fp)
    3700:	10800044 	addi	r2,r2,1
    3704:	e0bffd15 	stw	r2,-12(fp)
    3708:	18803fcc 	andi	r2,r3,255
    370c:	1005003a 	cmpeq	r2,r2,zero
    3710:	1000721e 	bne	r2,zero,38dc <alt_printf+0x244>
            {
                if (c == '%')
    3714:	e0bffc07 	ldb	r2,-16(fp)
    3718:	10800958 	cmpnei	r2,r2,37
    371c:	1000031e 	bne	r2,zero,372c <alt_printf+0x94>
                {
                    /* Process "%" escape sequence. */
                    alt_putchar(c);
    3720:	e13ffc07 	ldb	r4,-16(fp)
    3724:	00038f00 	call	38f0 <alt_putchar>
    3728:	00006006 	br	38ac <alt_printf+0x214>
                } 
                else if (c == 'c')
    372c:	e0bffc07 	ldb	r2,-16(fp)
    3730:	108018d8 	cmpnei	r2,r2,99
    3734:	1000091e 	bne	r2,zero,375c <alt_printf+0xc4>
                {
                    int v = va_arg(args, int);
    3738:	e0fffe17 	ldw	r3,-8(fp)
    373c:	18800104 	addi	r2,r3,4
    3740:	e0bffe15 	stw	r2,-8(fp)
    3744:	1805883a 	mov	r2,r3
    3748:	10800017 	ldw	r2,0(r2)
    374c:	e0bffb15 	stw	r2,-20(fp)
                    alt_putchar(v);
    3750:	e13ffb17 	ldw	r4,-20(fp)
    3754:	00038f00 	call	38f0 <alt_putchar>
    3758:	00005406 	br	38ac <alt_printf+0x214>
                }
                else if (c == 'x')
    375c:	e0bffc07 	ldb	r2,-16(fp)
    3760:	10801e18 	cmpnei	r2,r2,120
    3764:	1000371e 	bne	r2,zero,3844 <alt_printf+0x1ac>
                {
                    /* Process hexadecimal number format. */
                    unsigned long v = va_arg(args, unsigned long);
    3768:	e0fffe17 	ldw	r3,-8(fp)
    376c:	18800104 	addi	r2,r3,4
    3770:	e0bffe15 	stw	r2,-8(fp)
    3774:	1805883a 	mov	r2,r3
    3778:	10800017 	ldw	r2,0(r2)
    377c:	e0bffa15 	stw	r2,-24(fp)
                    unsigned long digit;
                    int digit_shift;

                    /* If the number value is zero, just print and continue. */
                    if (v == 0)
    3780:	e0bffa17 	ldw	r2,-24(fp)
    3784:	1004c03a 	cmpne	r2,r2,zero
    3788:	1000031e 	bne	r2,zero,3798 <alt_printf+0x100>
                    {
                        alt_putchar('0');
    378c:	01000c04 	movi	r4,48
    3790:	00038f00 	call	38f0 <alt_putchar>
                        continue;
    3794:	00004506 	br	38ac <alt_printf+0x214>
                    }

                    /* Find first non-zero digit. */
                    digit_shift = 28;
    3798:	00800704 	movi	r2,28
    379c:	e0bff815 	stw	r2,-32(fp)
                    while (!(v & (0xF << digit_shift)))
    37a0:	00000306 	br	37b0 <alt_printf+0x118>
                        digit_shift -= 4;
    37a4:	e0bff817 	ldw	r2,-32(fp)
    37a8:	10bfff04 	addi	r2,r2,-4
    37ac:	e0bff815 	stw	r2,-32(fp)
                        continue;
                    }

                    /* Find first non-zero digit. */
                    digit_shift = 28;
                    while (!(v & (0xF << digit_shift)))
    37b0:	00c003c4 	movi	r3,15
    37b4:	e0bff817 	ldw	r2,-32(fp)
    37b8:	1884983a 	sll	r2,r3,r2
    37bc:	1007883a 	mov	r3,r2
    37c0:	e0bffa17 	ldw	r2,-24(fp)
    37c4:	1884703a 	and	r2,r3,r2
    37c8:	1005003a 	cmpeq	r2,r2,zero
    37cc:	103ff51e 	bne	r2,zero,37a4 <alt_printf+0x10c>
                        digit_shift -= 4;

                    /* Print digits. */
                    for (; digit_shift >= 0; digit_shift -= 4)
    37d0:	00001806 	br	3834 <alt_printf+0x19c>
                    {
                        digit = (v & (0xF << digit_shift)) >> digit_shift;
    37d4:	00c003c4 	movi	r3,15
    37d8:	e0bff817 	ldw	r2,-32(fp)
    37dc:	1884983a 	sll	r2,r3,r2
    37e0:	1007883a 	mov	r3,r2
    37e4:	e0bffa17 	ldw	r2,-24(fp)
    37e8:	1886703a 	and	r3,r3,r2
    37ec:	e0bff817 	ldw	r2,-32(fp)
    37f0:	1884d83a 	srl	r2,r3,r2
    37f4:	e0bff915 	stw	r2,-28(fp)
                        if (digit <= 9)
    37f8:	e0bff917 	ldw	r2,-28(fp)
    37fc:	108002a8 	cmpgeui	r2,r2,10
    3800:	1000041e 	bne	r2,zero,3814 <alt_printf+0x17c>
                            c = '0' + digit;
    3804:	e0bff917 	ldw	r2,-28(fp)
    3808:	10800c04 	addi	r2,r2,48
    380c:	e0bffc05 	stb	r2,-16(fp)
    3810:	00000306 	br	3820 <alt_printf+0x188>
                        else
                            c = 'a' + digit - 10;
    3814:	e0bff917 	ldw	r2,-28(fp)
    3818:	108015c4 	addi	r2,r2,87
    381c:	e0bffc05 	stb	r2,-16(fp)
                        alt_putchar(c);
    3820:	e13ffc07 	ldb	r4,-16(fp)
    3824:	00038f00 	call	38f0 <alt_putchar>
                    digit_shift = 28;
                    while (!(v & (0xF << digit_shift)))
                        digit_shift -= 4;

                    /* Print digits. */
                    for (; digit_shift >= 0; digit_shift -= 4)
    3828:	e0bff817 	ldw	r2,-32(fp)
    382c:	10bfff04 	addi	r2,r2,-4
    3830:	e0bff815 	stw	r2,-32(fp)
    3834:	e0bff817 	ldw	r2,-32(fp)
    3838:	1004403a 	cmpge	r2,r2,zero
    383c:	103fe51e 	bne	r2,zero,37d4 <alt_printf+0x13c>
    3840:	00001a06 	br	38ac <alt_printf+0x214>
                        else
                            c = 'a' + digit - 10;
                        alt_putchar(c);
                    }
                }
                else if (c == 's')
    3844:	e0bffc07 	ldb	r2,-16(fp)
    3848:	10801cd8 	cmpnei	r2,r2,115
    384c:	1000171e 	bne	r2,zero,38ac <alt_printf+0x214>
                {
                    /* Process string format. */
                    char *s = va_arg(args, char *);
    3850:	e0fffe17 	ldw	r3,-8(fp)
    3854:	18800104 	addi	r2,r3,4
    3858:	e0bffe15 	stw	r2,-8(fp)
    385c:	1805883a 	mov	r2,r3
    3860:	10800017 	ldw	r2,0(r2)
    3864:	e0bff715 	stw	r2,-36(fp)

                    while(*s)
    3868:	00000906 	br	3890 <alt_printf+0x1f8>
                      alt_putchar(*s++);
    386c:	e0bff717 	ldw	r2,-36(fp)
    3870:	10800003 	ldbu	r2,0(r2)
    3874:	11003fcc 	andi	r4,r2,255
    3878:	2100201c 	xori	r4,r4,128
    387c:	213fe004 	addi	r4,r4,-128
    3880:	e0bff717 	ldw	r2,-36(fp)
    3884:	10800044 	addi	r2,r2,1
    3888:	e0bff715 	stw	r2,-36(fp)
    388c:	00038f00 	call	38f0 <alt_putchar>
                else if (c == 's')
                {
                    /* Process string format. */
                    char *s = va_arg(args, char *);

                    while(*s)
    3890:	e0bff717 	ldw	r2,-36(fp)
    3894:	10800003 	ldbu	r2,0(r2)
    3898:	10803fcc 	andi	r2,r2,255
    389c:	1080201c 	xori	r2,r2,128
    38a0:	10bfe004 	addi	r2,r2,-128
    38a4:	1004c03a 	cmpne	r2,r2,zero
    38a8:	103ff01e 	bne	r2,zero,386c <alt_printf+0x1d4>
    const char *w;
    char c;

    /* Process format string. */
    w = fmt;
    while ((c = *w++) != 0)
    38ac:	e0bffd17 	ldw	r2,-12(fp)
    38b0:	10800003 	ldbu	r2,0(r2)
    38b4:	e0bffc05 	stb	r2,-16(fp)
    38b8:	e0bffc07 	ldb	r2,-16(fp)
    38bc:	1004c03a 	cmpne	r2,r2,zero
    38c0:	1007883a 	mov	r3,r2
    38c4:	e0bffd17 	ldw	r2,-12(fp)
    38c8:	10800044 	addi	r2,r2,1
    38cc:	e0bffd15 	stw	r2,-12(fp)
    38d0:	18803fcc 	andi	r2,r3,255
    38d4:	1004c03a 	cmpne	r2,r2,zero
    38d8:	103f7c1e 	bne	r2,zero,36cc <alt_printf+0x34>
            {
                break;
            }
        }
    }
}
    38dc:	e037883a 	mov	sp,fp
    38e0:	dfc00117 	ldw	ra,4(sp)
    38e4:	df000017 	ldw	fp,0(sp)
    38e8:	dec00504 	addi	sp,sp,20
    38ec:	f800283a 	ret

000038f0 <alt_putchar>:
 * Uses the ALT_DRIVER_WRITE() macro to call directly to driver if available.
 * Otherwise, uses newlib provided putchar() routine.
 */
int 
alt_putchar(int c)
{
    38f0:	defffd04 	addi	sp,sp,-12
    38f4:	dfc00215 	stw	ra,8(sp)
    38f8:	df000115 	stw	fp,4(sp)
    38fc:	df000104 	addi	fp,sp,4
    3900:	e13fff15 	stw	r4,-4(fp)
    if (ALT_DRIVER_WRITE(ALT_STDOUT_DEV, &c1, 1, 0) == -1) {
        return -1;
    }
    return c;
#else
    return putchar(c);
    3904:	00800074 	movhi	r2,1
    3908:	10b85904 	addi	r2,r2,-7836
    390c:	10800017 	ldw	r2,0(r2)
    3910:	11400217 	ldw	r5,8(r2)
    3914:	e13fff17 	ldw	r4,-4(fp)
    3918:	00091200 	call	9120 <putc>
#endif
}
    391c:	e037883a 	mov	sp,fp
    3920:	dfc00117 	ldw	ra,4(sp)
    3924:	df000017 	ldw	fp,0(sp)
    3928:	dec00204 	addi	sp,sp,8
    392c:	f800283a 	ret

00003930 <alt_irq_init>:
 * The "base" parameter is ignored and only
 * present for backwards-compatibility.
 */

void alt_irq_init ( const void* base )
{
    3930:	defffd04 	addi	sp,sp,-12
    3934:	dfc00215 	stw	ra,8(sp)
    3938:	df000115 	stw	fp,4(sp)
    393c:	df000104 	addi	fp,sp,4
    3940:	e13fff15 	stw	r4,-4(fp)
    ALTERA_NIOS2_QSYS_IRQ_INIT ( CPU, CPU);
    3944:	0008cac0 	call	8cac <altera_nios2_qsys_irq_init>
 * alt_irq_cpu_enable_interrupts() enables the CPU to start taking interrupts.
 */
static ALT_INLINE void ALT_ALWAYS_INLINE 
       alt_irq_cpu_enable_interrupts ()
{
    NIOS2_WRITE_STATUS(NIOS2_STATUS_PIE_MSK
    3948:	00800044 	movi	r2,1
    394c:	1001703a 	wrctl	status,r2
    alt_irq_cpu_enable_interrupts();
}
    3950:	e037883a 	mov	sp,fp
    3954:	dfc00117 	ldw	ra,4(sp)
    3958:	df000017 	ldw	fp,0(sp)
    395c:	dec00204 	addi	sp,sp,8
    3960:	f800283a 	ret

00003964 <alt_sys_init>:
 * Initialize the non-interrupt controller devices.
 * Called after alt_irq_init().
 */

void alt_sys_init( void )
{
    3964:	defffd04 	addi	sp,sp,-12
    3968:	dfc00215 	stw	ra,8(sp)
    396c:	df000115 	stw	fp,4(sp)
    3970:	df000104 	addi	fp,sp,4
    ALTERA_AVALON_TIMER_INIT ( INTERVAL_TIMER, Interval_Timer);
    3974:	01040034 	movhi	r4,4096
    3978:	21080004 	addi	r4,r4,8192
    397c:	000b883a 	mov	r5,zero
    3980:	000d883a 	mov	r6,zero
    3984:	01c00204 	movi	r7,8
    3988:	00048b80 	call	48b8 <alt_avalon_timer_sc_init>
    ALTERA_AVALON_JTAG_UART_INIT ( JTAG_UART, JTAG_UART);
    398c:	01000074 	movhi	r4,1
    3990:	2130e904 	addi	r4,r4,-15452
    3994:	000b883a 	mov	r5,zero
    3998:	01800204 	movi	r6,8
    399c:	0003ee40 	call	3ee4 <altera_avalon_jtag_uart_init>
    39a0:	01000074 	movhi	r4,1
    39a4:	2130df04 	addi	r4,r4,-15492
    39a8:	0003d640 	call	3d64 <alt_dev_reg>
    ALTERA_AVALON_SYSID_QSYS_INIT ( SYSID, sysid);
    ALTERA_UP_AVALON_AUDIO_AND_VIDEO_CONFIG_INIT ( AV_CONFIG, AV_Config);
    39ac:	01000074 	movhi	r4,1
    39b0:	2134f704 	addi	r4,r4,-11300
    39b4:	0003d640 	call	3d64 <alt_dev_reg>
    ALTERA_UP_AVALON_AUDIO_INIT ( AUDIO, Audio);
    39b8:	01000074 	movhi	r4,1
    39bc:	21350304 	addi	r4,r4,-11252
    39c0:	0003d640 	call	3d64 <alt_dev_reg>
    ALTERA_UP_AVALON_CHARACTER_LCD_INIT ( CHAR_LCD_16X2, Char_LCD_16x2);
    39c4:	01000074 	movhi	r4,1
    39c8:	21350f04 	addi	r4,r4,-11204
    39cc:	00051fc0 	call	51fc <alt_up_character_lcd_init>
    39d0:	01000074 	movhi	r4,1
    39d4:	21350f04 	addi	r4,r4,-11204
    39d8:	0003d640 	call	3d64 <alt_dev_reg>
    ALTERA_UP_AVALON_ETHERNET_INIT ( ETHERNET, Ethernet);
    39dc:	01000074 	movhi	r4,1
    39e0:	21351a04 	addi	r4,r4,-11160
    39e4:	000567c0 	call	567c <alt_up_ethernet_init>
    39e8:	01000074 	movhi	r4,1
    39ec:	21351a04 	addi	r4,r4,-11160
    39f0:	0003d640 	call	3d64 <alt_dev_reg>
    ALTERA_UP_AVALON_IRDA_INIT ( IRDA_UART, IrDA_UART);
    39f4:	01000074 	movhi	r4,1
    39f8:	21352904 	addi	r4,r4,-11100
    39fc:	0003d640 	call	3d64 <alt_dev_reg>
    ALTERA_UP_AVALON_PARALLEL_PORT_INIT ( EXPANSION_JP1, Expansion_JP1);
    3a00:	01000074 	movhi	r4,1
    3a04:	21353404 	addi	r4,r4,-11056
    3a08:	0003d640 	call	3d64 <alt_dev_reg>
    ALTERA_UP_AVALON_PARALLEL_PORT_INIT ( EXPANSION_JP2, Expansion_JP2);
    3a0c:	01000074 	movhi	r4,1
    3a10:	21353f04 	addi	r4,r4,-11012
    3a14:	0003d640 	call	3d64 <alt_dev_reg>
    ALTERA_UP_AVALON_PARALLEL_PORT_INIT ( GREEN_LEDS, Green_LEDs);
    3a18:	01000074 	movhi	r4,1
    3a1c:	21354a04 	addi	r4,r4,-10968
    3a20:	0003d640 	call	3d64 <alt_dev_reg>
    ALTERA_UP_AVALON_PARALLEL_PORT_INIT ( HEX3_HEX0, HEX3_HEX0);
    3a24:	01000074 	movhi	r4,1
    3a28:	21355504 	addi	r4,r4,-10924
    3a2c:	0003d640 	call	3d64 <alt_dev_reg>
    ALTERA_UP_AVALON_PARALLEL_PORT_INIT ( HEX7_HEX4, HEX7_HEX4);
    3a30:	01000074 	movhi	r4,1
    3a34:	21356004 	addi	r4,r4,-10880
    3a38:	0003d640 	call	3d64 <alt_dev_reg>
    ALTERA_UP_AVALON_PARALLEL_PORT_INIT ( PUSHBUTTONS, Pushbuttons);
    3a3c:	01000074 	movhi	r4,1
    3a40:	21356b04 	addi	r4,r4,-10836
    3a44:	0003d640 	call	3d64 <alt_dev_reg>
    ALTERA_UP_AVALON_PARALLEL_PORT_INIT ( RED_LEDS, Red_LEDs);
    3a48:	01000074 	movhi	r4,1
    3a4c:	21357604 	addi	r4,r4,-10792
    3a50:	0003d640 	call	3d64 <alt_dev_reg>
    ALTERA_UP_AVALON_PARALLEL_PORT_INIT ( SLIDER_SWITCHES, Slider_Switches);
    3a54:	01000074 	movhi	r4,1
    3a58:	21358104 	addi	r4,r4,-10748
    3a5c:	0003d640 	call	3d64 <alt_dev_reg>
    ALTERA_UP_AVALON_PS2_INIT ( PS2_PORT, PS2_Port);
    3a60:	01000074 	movhi	r4,1
    3a64:	21358c04 	addi	r4,r4,-10704
    3a68:	0005f040 	call	5f04 <alt_up_ps2_init>
    3a6c:	01000074 	movhi	r4,1
    3a70:	21358c04 	addi	r4,r4,-10704
    3a74:	0003d640 	call	3d64 <alt_dev_reg>
    ALTERA_UP_AVALON_RS232_INIT ( SERIAL_PORT, Serial_Port);
    3a78:	01000074 	movhi	r4,1
    3a7c:	21359a04 	addi	r4,r4,-10648
    3a80:	0003d640 	call	3d64 <alt_dev_reg>
    ALTERA_UP_AVALON_USB_INIT ( USB, USB);
    3a84:	01000074 	movhi	r4,1
    3a88:	2135a504 	addi	r4,r4,-10604
    3a8c:	0003d640 	call	3d64 <alt_dev_reg>
    ALTERA_UP_AVALON_VIDEO_CHARACTER_BUFFER_WITH_DMA_INIT ( VGA_CHAR_BUFFER, VGA_Char_Buffer);
    3a90:	00800074 	movhi	r2,1
    3a94:	10b5b204 	addi	r2,r2,-10552
    3a98:	10800a17 	ldw	r2,40(r2)
    3a9c:	10800104 	addi	r2,r2,4
    3aa0:	10800017 	ldw	r2,0(r2)
    3aa4:	10ffffcc 	andi	r3,r2,65535
    3aa8:	00800074 	movhi	r2,1
    3aac:	10b5b204 	addi	r2,r2,-10552
    3ab0:	10c00c15 	stw	r3,48(r2)
    3ab4:	00800074 	movhi	r2,1
    3ab8:	10b5b204 	addi	r2,r2,-10552
    3abc:	10800a17 	ldw	r2,40(r2)
    3ac0:	10800104 	addi	r2,r2,4
    3ac4:	10800017 	ldw	r2,0(r2)
    3ac8:	1005d43a 	srai	r2,r2,16
    3acc:	10ffffcc 	andi	r3,r2,65535
    3ad0:	00800074 	movhi	r2,1
    3ad4:	10b5b204 	addi	r2,r2,-10552
    3ad8:	10c00d15 	stw	r3,52(r2)
    3adc:	00800074 	movhi	r2,1
    3ae0:	10b5b204 	addi	r2,r2,-10552
    3ae4:	10800c17 	ldw	r2,48(r2)
    3ae8:	10801068 	cmpgeui	r2,r2,65
    3aec:	1000081e 	bne	r2,zero,3b10 <alt_sys_init+0x1ac>
    3af0:	00c00074 	movhi	r3,1
    3af4:	18f5b204 	addi	r3,r3,-10552
    3af8:	00800fc4 	movi	r2,63
    3afc:	18800f15 	stw	r2,60(r3)
    3b00:	00c00074 	movhi	r3,1
    3b04:	18f5b204 	addi	r3,r3,-10552
    3b08:	00800184 	movi	r2,6
    3b0c:	18801015 	stw	r2,64(r3)
    3b10:	00800074 	movhi	r2,1
    3b14:	10b5b204 	addi	r2,r2,-10552
    3b18:	10800d17 	ldw	r2,52(r2)
    3b1c:	10800868 	cmpgeui	r2,r2,33
    3b20:	1000041e 	bne	r2,zero,3b34 <alt_sys_init+0x1d0>
    3b24:	00c00074 	movhi	r3,1
    3b28:	18f5b204 	addi	r3,r3,-10552
    3b2c:	008007c4 	movi	r2,31
    3b30:	18801115 	stw	r2,68(r3)
    3b34:	01000074 	movhi	r4,1
    3b38:	2135b204 	addi	r4,r4,-10552
    3b3c:	00068700 	call	6870 <alt_up_char_buffer_init>
    3b40:	01000074 	movhi	r4,1
    3b44:	2135b204 	addi	r4,r4,-10552
    3b48:	0003d640 	call	3d64 <alt_dev_reg>
    ALTERA_UP_AVALON_VIDEO_PIXEL_BUFFER_DMA_INIT ( VGA_PIXEL_BUFFER, VGA_Pixel_Buffer);
    3b4c:	00800074 	movhi	r2,1
    3b50:	10b5c404 	addi	r2,r2,-10480
    3b54:	10800a17 	ldw	r2,40(r2)
    3b58:	10800017 	ldw	r2,0(r2)
    3b5c:	1007883a 	mov	r3,r2
    3b60:	00800074 	movhi	r2,1
    3b64:	10b5c404 	addi	r2,r2,-10480
    3b68:	10c00b15 	stw	r3,44(r2)
    3b6c:	00800074 	movhi	r2,1
    3b70:	10b5c404 	addi	r2,r2,-10480
    3b74:	10800a17 	ldw	r2,40(r2)
    3b78:	10800104 	addi	r2,r2,4
    3b7c:	10800017 	ldw	r2,0(r2)
    3b80:	1007883a 	mov	r3,r2
    3b84:	00800074 	movhi	r2,1
    3b88:	10b5c404 	addi	r2,r2,-10480
    3b8c:	10c00c15 	stw	r3,48(r2)
    3b90:	00800074 	movhi	r2,1
    3b94:	10b5c404 	addi	r2,r2,-10480
    3b98:	10800a17 	ldw	r2,40(r2)
    3b9c:	10800204 	addi	r2,r2,8
    3ba0:	10800017 	ldw	r2,0(r2)
    3ba4:	10ffffcc 	andi	r3,r2,65535
    3ba8:	00800074 	movhi	r2,1
    3bac:	10b5c404 	addi	r2,r2,-10480
    3bb0:	10c00f15 	stw	r3,60(r2)
    3bb4:	00800074 	movhi	r2,1
    3bb8:	10b5c404 	addi	r2,r2,-10480
    3bbc:	10800a17 	ldw	r2,40(r2)
    3bc0:	10800204 	addi	r2,r2,8
    3bc4:	10800017 	ldw	r2,0(r2)
    3bc8:	1005d43a 	srai	r2,r2,16
    3bcc:	10ffffcc 	andi	r3,r2,65535
    3bd0:	00800074 	movhi	r2,1
    3bd4:	10b5c404 	addi	r2,r2,-10480
    3bd8:	10c01015 	stw	r3,64(r2)
    3bdc:	00800074 	movhi	r2,1
    3be0:	10b5c404 	addi	r2,r2,-10480
    3be4:	10800a17 	ldw	r2,40(r2)
    3be8:	10800304 	addi	r2,r2,12
    3bec:	10800017 	ldw	r2,0(r2)
    3bf0:	1005d07a 	srai	r2,r2,1
    3bf4:	10c0004c 	andi	r3,r2,1
    3bf8:	00800074 	movhi	r2,1
    3bfc:	10b5c404 	addi	r2,r2,-10480
    3c00:	10c00d15 	stw	r3,52(r2)
    3c04:	00800074 	movhi	r2,1
    3c08:	10b5c404 	addi	r2,r2,-10480
    3c0c:	10800a17 	ldw	r2,40(r2)
    3c10:	10800304 	addi	r2,r2,12
    3c14:	10800017 	ldw	r2,0(r2)
    3c18:	1005d13a 	srai	r2,r2,4
    3c1c:	10c003cc 	andi	r3,r2,15
    3c20:	00800074 	movhi	r2,1
    3c24:	10b5c404 	addi	r2,r2,-10480
    3c28:	10c00e15 	stw	r3,56(r2)
    3c2c:	00800074 	movhi	r2,1
    3c30:	10b5c404 	addi	r2,r2,-10480
    3c34:	10800a17 	ldw	r2,40(r2)
    3c38:	10800304 	addi	r2,r2,12
    3c3c:	10800017 	ldw	r2,0(r2)
    3c40:	1005d43a 	srai	r2,r2,16
    3c44:	1007883a 	mov	r3,r2
    3c48:	00bfffc4 	movi	r2,-1
    3c4c:	1884703a 	and	r2,r3,r2
    3c50:	e0bfff45 	stb	r2,-3(fp)
    3c54:	00800074 	movhi	r2,1
    3c58:	10b5c404 	addi	r2,r2,-10480
    3c5c:	10800a17 	ldw	r2,40(r2)
    3c60:	10800304 	addi	r2,r2,12
    3c64:	10800017 	ldw	r2,0(r2)
    3c68:	1005d63a 	srai	r2,r2,24
    3c6c:	1007883a 	mov	r3,r2
    3c70:	00bfffc4 	movi	r2,-1
    3c74:	1884703a 	and	r2,r3,r2
    3c78:	e0bfff05 	stb	r2,-4(fp)
    3c7c:	00800074 	movhi	r2,1
    3c80:	10b5c404 	addi	r2,r2,-10480
    3c84:	10800e17 	ldw	r2,56(r2)
    3c88:	10800058 	cmpnei	r2,r2,1
    3c8c:	1000041e 	bne	r2,zero,3ca0 <alt_sys_init+0x33c>
    3c90:	00800074 	movhi	r2,1
    3c94:	10b5c404 	addi	r2,r2,-10480
    3c98:	10001115 	stw	zero,68(r2)
    3c9c:	00000e06 	br	3cd8 <alt_sys_init+0x374>
    3ca0:	00800074 	movhi	r2,1
    3ca4:	10b5c404 	addi	r2,r2,-10480
    3ca8:	10800e17 	ldw	r2,56(r2)
    3cac:	10800098 	cmpnei	r2,r2,2
    3cb0:	1000051e 	bne	r2,zero,3cc8 <alt_sys_init+0x364>
    3cb4:	00c00074 	movhi	r3,1
    3cb8:	18f5c404 	addi	r3,r3,-10480
    3cbc:	00800044 	movi	r2,1
    3cc0:	18801115 	stw	r2,68(r3)
    3cc4:	00000406 	br	3cd8 <alt_sys_init+0x374>
    3cc8:	00c00074 	movhi	r3,1
    3ccc:	18f5c404 	addi	r3,r3,-10480
    3cd0:	00800084 	movi	r2,2
    3cd4:	18801115 	stw	r2,68(r3)
    3cd8:	e0ffff43 	ldbu	r3,-3(fp)
    3cdc:	00800804 	movi	r2,32
    3ce0:	10c7c83a 	sub	r3,r2,r3
    3ce4:	00bfffc4 	movi	r2,-1
    3ce8:	10c6d83a 	srl	r3,r2,r3
    3cec:	00800074 	movhi	r2,1
    3cf0:	10b5c404 	addi	r2,r2,-10480
    3cf4:	10c01215 	stw	r3,72(r2)
    3cf8:	e0ffff43 	ldbu	r3,-3(fp)
    3cfc:	00800074 	movhi	r2,1
    3d00:	10b5c404 	addi	r2,r2,-10480
    3d04:	10801117 	ldw	r2,68(r2)
    3d08:	1887883a 	add	r3,r3,r2
    3d0c:	00800074 	movhi	r2,1
    3d10:	10b5c404 	addi	r2,r2,-10480
    3d14:	10c01315 	stw	r3,76(r2)
    3d18:	e0ffff03 	ldbu	r3,-4(fp)
    3d1c:	00800804 	movi	r2,32
    3d20:	10c7c83a 	sub	r3,r2,r3
    3d24:	00bfffc4 	movi	r2,-1
    3d28:	10c6d83a 	srl	r3,r2,r3
    3d2c:	00800074 	movhi	r2,1
    3d30:	10b5c404 	addi	r2,r2,-10480
    3d34:	10c01415 	stw	r3,80(r2)
    3d38:	01000074 	movhi	r4,1
    3d3c:	2135c404 	addi	r4,r4,-10480
    3d40:	0003d640 	call	3d64 <alt_dev_reg>
    ALTERA_UP_SD_CARD_AVALON_INTERFACE_INIT ( SD_CARD, SD_Card);
    3d44:	01000074 	movhi	r4,1
    3d48:	2135d904 	addi	r4,r4,-10396
    3d4c:	0003d640 	call	3d64 <alt_dev_reg>
}
    3d50:	e037883a 	mov	sp,fp
    3d54:	dfc00117 	ldw	ra,4(sp)
    3d58:	df000017 	ldw	fp,0(sp)
    3d5c:	dec00204 	addi	sp,sp,8
    3d60:	f800283a 	ret

00003d64 <alt_dev_reg>:
 */

extern int alt_fs_reg  (alt_dev* dev); 

static ALT_INLINE int alt_dev_reg (alt_dev* dev)
{
    3d64:	defffd04 	addi	sp,sp,-12
    3d68:	dfc00215 	stw	ra,8(sp)
    3d6c:	df000115 	stw	fp,4(sp)
    3d70:	df000104 	addi	fp,sp,4
    3d74:	e13fff15 	stw	r4,-4(fp)
  extern alt_llist alt_dev_list;

  return alt_dev_llist_insert ((alt_dev_llist*) dev, &alt_dev_list);
    3d78:	e13fff17 	ldw	r4,-4(fp)
    3d7c:	01400074 	movhi	r5,1
    3d80:	29785304 	addi	r5,r5,-7860
    3d84:	00083d80 	call	83d8 <alt_dev_llist_insert>
}
    3d88:	e037883a 	mov	sp,fp
    3d8c:	dfc00117 	ldw	ra,4(sp)
    3d90:	df000017 	ldw	fp,0(sp)
    3d94:	dec00204 	addi	sp,sp,8
    3d98:	f800283a 	ret

00003d9c <altera_avalon_jtag_uart_read_fd>:
 *
 */

int 
altera_avalon_jtag_uart_read_fd(alt_fd* fd, char* buffer, int space)
{
    3d9c:	defffa04 	addi	sp,sp,-24
    3da0:	dfc00515 	stw	ra,20(sp)
    3da4:	df000415 	stw	fp,16(sp)
    3da8:	df000404 	addi	fp,sp,16
    3dac:	e13ffd15 	stw	r4,-12(fp)
    3db0:	e17ffe15 	stw	r5,-8(fp)
    3db4:	e1bfff15 	stw	r6,-4(fp)
    altera_avalon_jtag_uart_dev* dev = (altera_avalon_jtag_uart_dev*) fd->dev; 
    3db8:	e0bffd17 	ldw	r2,-12(fp)
    3dbc:	10800017 	ldw	r2,0(r2)
    3dc0:	e0bffc15 	stw	r2,-16(fp)

    return altera_avalon_jtag_uart_read(&dev->state, buffer, space,
    3dc4:	e0bffc17 	ldw	r2,-16(fp)
    3dc8:	11000a04 	addi	r4,r2,40
    3dcc:	e0bffd17 	ldw	r2,-12(fp)
    3dd0:	11c00217 	ldw	r7,8(r2)
    3dd4:	e17ffe17 	ldw	r5,-8(fp)
    3dd8:	e1bfff17 	ldw	r6,-4(fp)
    3ddc:	00043e00 	call	43e0 <altera_avalon_jtag_uart_read>
      fd->fd_flags);
}
    3de0:	e037883a 	mov	sp,fp
    3de4:	dfc00117 	ldw	ra,4(sp)
    3de8:	df000017 	ldw	fp,0(sp)
    3dec:	dec00204 	addi	sp,sp,8
    3df0:	f800283a 	ret

00003df4 <altera_avalon_jtag_uart_write_fd>:

int 
altera_avalon_jtag_uart_write_fd(alt_fd* fd, const char* buffer, int space)
{
    3df4:	defffa04 	addi	sp,sp,-24
    3df8:	dfc00515 	stw	ra,20(sp)
    3dfc:	df000415 	stw	fp,16(sp)
    3e00:	df000404 	addi	fp,sp,16
    3e04:	e13ffd15 	stw	r4,-12(fp)
    3e08:	e17ffe15 	stw	r5,-8(fp)
    3e0c:	e1bfff15 	stw	r6,-4(fp)
    altera_avalon_jtag_uart_dev* dev = (altera_avalon_jtag_uart_dev*) fd->dev; 
    3e10:	e0bffd17 	ldw	r2,-12(fp)
    3e14:	10800017 	ldw	r2,0(r2)
    3e18:	e0bffc15 	stw	r2,-16(fp)

    return altera_avalon_jtag_uart_write(&dev->state, buffer, space,
    3e1c:	e0bffc17 	ldw	r2,-16(fp)
    3e20:	11000a04 	addi	r4,r2,40
    3e24:	e0bffd17 	ldw	r2,-12(fp)
    3e28:	11c00217 	ldw	r7,8(r2)
    3e2c:	e17ffe17 	ldw	r5,-8(fp)
    3e30:	e1bfff17 	ldw	r6,-4(fp)
    3e34:	00046040 	call	4604 <altera_avalon_jtag_uart_write>
      fd->fd_flags);
}
    3e38:	e037883a 	mov	sp,fp
    3e3c:	dfc00117 	ldw	ra,4(sp)
    3e40:	df000017 	ldw	fp,0(sp)
    3e44:	dec00204 	addi	sp,sp,8
    3e48:	f800283a 	ret

00003e4c <altera_avalon_jtag_uart_close_fd>:

#ifndef ALTERA_AVALON_JTAG_UART_SMALL

int 
altera_avalon_jtag_uart_close_fd(alt_fd* fd)
{
    3e4c:	defffc04 	addi	sp,sp,-16
    3e50:	dfc00315 	stw	ra,12(sp)
    3e54:	df000215 	stw	fp,8(sp)
    3e58:	df000204 	addi	fp,sp,8
    3e5c:	e13fff15 	stw	r4,-4(fp)
    altera_avalon_jtag_uart_dev* dev = (altera_avalon_jtag_uart_dev*) fd->dev; 
    3e60:	e0bfff17 	ldw	r2,-4(fp)
    3e64:	10800017 	ldw	r2,0(r2)
    3e68:	e0bffe15 	stw	r2,-8(fp)

    return altera_avalon_jtag_uart_close(&dev->state, fd->fd_flags);
    3e6c:	e0bffe17 	ldw	r2,-8(fp)
    3e70:	11000a04 	addi	r4,r2,40
    3e74:	e0bfff17 	ldw	r2,-4(fp)
    3e78:	11400217 	ldw	r5,8(r2)
    3e7c:	00042780 	call	4278 <altera_avalon_jtag_uart_close>
}
    3e80:	e037883a 	mov	sp,fp
    3e84:	dfc00117 	ldw	ra,4(sp)
    3e88:	df000017 	ldw	fp,0(sp)
    3e8c:	dec00204 	addi	sp,sp,8
    3e90:	f800283a 	ret

00003e94 <altera_avalon_jtag_uart_ioctl_fd>:

int 
altera_avalon_jtag_uart_ioctl_fd(alt_fd* fd, int req, void* arg)
{
    3e94:	defffa04 	addi	sp,sp,-24
    3e98:	dfc00515 	stw	ra,20(sp)
    3e9c:	df000415 	stw	fp,16(sp)
    3ea0:	df000404 	addi	fp,sp,16
    3ea4:	e13ffd15 	stw	r4,-12(fp)
    3ea8:	e17ffe15 	stw	r5,-8(fp)
    3eac:	e1bfff15 	stw	r6,-4(fp)
    altera_avalon_jtag_uart_dev* dev = (altera_avalon_jtag_uart_dev*) fd->dev;
    3eb0:	e0bffd17 	ldw	r2,-12(fp)
    3eb4:	10800017 	ldw	r2,0(r2)
    3eb8:	e0bffc15 	stw	r2,-16(fp)

    return altera_avalon_jtag_uart_ioctl(&dev->state, req, arg);
    3ebc:	e0bffc17 	ldw	r2,-16(fp)
    3ec0:	11000a04 	addi	r4,r2,40
    3ec4:	e17ffe17 	ldw	r5,-8(fp)
    3ec8:	e1bfff17 	ldw	r6,-4(fp)
    3ecc:	00042ec0 	call	42ec <altera_avalon_jtag_uart_ioctl>
}
    3ed0:	e037883a 	mov	sp,fp
    3ed4:	dfc00117 	ldw	ra,4(sp)
    3ed8:	df000017 	ldw	fp,0(sp)
    3edc:	dec00204 	addi	sp,sp,8
    3ee0:	f800283a 	ret

00003ee4 <altera_avalon_jtag_uart_init>:
 * Return 1 on sucessful IRQ register and 0 on failure.
 */

void altera_avalon_jtag_uart_init(altera_avalon_jtag_uart_state* sp, 
                                  int irq_controller_id, int irq)
{
    3ee4:	defffb04 	addi	sp,sp,-20
    3ee8:	dfc00415 	stw	ra,16(sp)
    3eec:	df000315 	stw	fp,12(sp)
    3ef0:	df000304 	addi	fp,sp,12
    3ef4:	e13ffd15 	stw	r4,-12(fp)
    3ef8:	e17ffe15 	stw	r5,-8(fp)
    3efc:	e1bfff15 	stw	r6,-4(fp)
  ALT_FLAG_CREATE(&sp->events, 0);
  ALT_SEM_CREATE(&sp->read_lock, 1);
  ALT_SEM_CREATE(&sp->write_lock, 1);

  /* enable read interrupts at the device */
  sp->irq_enable = ALTERA_AVALON_JTAG_UART_CONTROL_RE_MSK;
    3f00:	e0fffd17 	ldw	r3,-12(fp)
    3f04:	00800044 	movi	r2,1
    3f08:	18800815 	stw	r2,32(r3)

  IOWR_ALTERA_AVALON_JTAG_UART_CONTROL(sp->base, sp->irq_enable); 
    3f0c:	e0bffd17 	ldw	r2,-12(fp)
    3f10:	10800017 	ldw	r2,0(r2)
    3f14:	11000104 	addi	r4,r2,4
    3f18:	e0bffd17 	ldw	r2,-12(fp)
    3f1c:	10800817 	ldw	r2,32(r2)
    3f20:	1007883a 	mov	r3,r2
    3f24:	2005883a 	mov	r2,r4
    3f28:	10c00035 	stwio	r3,0(r2)
  /* register the interrupt handler */
#ifdef ALT_ENHANCED_INTERRUPT_API_PRESENT
  alt_ic_isr_register(irq_controller_id, irq, altera_avalon_jtag_uart_irq, 
                      sp, NULL);
#else
  alt_irq_register(irq, sp, altera_avalon_jtag_uart_irq);
    3f2c:	e13fff17 	ldw	r4,-4(fp)
    3f30:	e17ffd17 	ldw	r5,-12(fp)
    3f34:	01800034 	movhi	r6,0
    3f38:	318fe704 	addi	r6,r6,16284
    3f3c:	00033800 	call	3380 <alt_irq_register>
#endif  

  /* Register an alarm to go off every second to check for presence of host */
  sp->host_inactive = 0;
    3f40:	e0bffd17 	ldw	r2,-12(fp)
    3f44:	10000915 	stw	zero,36(r2)

  if (alt_alarm_start(&sp->alarm, alt_ticks_per_second(), 
    3f48:	e0bffd17 	ldw	r2,-12(fp)
    3f4c:	11000204 	addi	r4,r2,8
 * Obtain the system clock rate in ticks/s. 
 */

static ALT_INLINE alt_u32 ALT_ALWAYS_INLINE alt_ticks_per_second (void)
{
  return _alt_tick_rate;
    3f50:	00800074 	movhi	r2,1
    3f54:	1080a204 	addi	r2,r2,648
    3f58:	10800017 	ldw	r2,0(r2)
    3f5c:	100b883a 	mov	r5,r2
    3f60:	01800034 	movhi	r6,0
    3f64:	31907204 	addi	r6,r6,16840
    3f68:	e1fffd17 	ldw	r7,-12(fp)
    3f6c:	00080e00 	call	80e0 <alt_alarm_start>
    3f70:	1004403a 	cmpge	r2,r2,zero
    3f74:	1000041e 	bne	r2,zero,3f88 <altera_avalon_jtag_uart_init+0xa4>
    &altera_avalon_jtag_uart_timeout, sp) < 0)
  {
    /* If we can't set the alarm then record "don't know if host present" 
     * and behave as though the host is present.
     */
    sp->timeout = INT_MAX;
    3f78:	e0fffd17 	ldw	r3,-12(fp)
    3f7c:	00a00034 	movhi	r2,32768
    3f80:	10bfffc4 	addi	r2,r2,-1
    3f84:	18800115 	stw	r2,4(r3)
  }

  /* ALT_LOG - see altera_hal/HAL/inc/sys/alt_log_printf.h */ 
  ALT_LOG_JTAG_UART_ALARM_REGISTER(sp, sp->base);
}
    3f88:	e037883a 	mov	sp,fp
    3f8c:	dfc00117 	ldw	ra,4(sp)
    3f90:	df000017 	ldw	fp,0(sp)
    3f94:	dec00204 	addi	sp,sp,8
    3f98:	f800283a 	ret

00003f9c <altera_avalon_jtag_uart_irq>:
#ifdef ALT_ENHANCED_INTERRUPT_API_PRESENT
static void altera_avalon_jtag_uart_irq(void* context)
#else
static void altera_avalon_jtag_uart_irq(void* context, alt_u32 id)
#endif
{
    3f9c:	defff704 	addi	sp,sp,-36
    3fa0:	df000815 	stw	fp,32(sp)
    3fa4:	df000804 	addi	fp,sp,32
    3fa8:	e13ffe15 	stw	r4,-8(fp)
    3fac:	e17fff15 	stw	r5,-4(fp)
  altera_avalon_jtag_uart_state* sp = (altera_avalon_jtag_uart_state*) context;
    3fb0:	e0bffe17 	ldw	r2,-8(fp)
    3fb4:	e0bffd15 	stw	r2,-12(fp)
  unsigned int base = sp->base;
    3fb8:	e0bffd17 	ldw	r2,-12(fp)
    3fbc:	10800017 	ldw	r2,0(r2)
    3fc0:	e0bffc15 	stw	r2,-16(fp)
    3fc4:	00000006 	br	3fc8 <altera_avalon_jtag_uart_irq+0x2c>
  /* ALT_LOG - see altera_hal/HAL/inc/sys/alt_log_printf.h */ 
  ALT_LOG_JTAG_UART_ISR_FUNCTION(base, sp);

  for ( ; ; )
  {
    unsigned int control = IORD_ALTERA_AVALON_JTAG_UART_CONTROL(base);
    3fc8:	e0bffc17 	ldw	r2,-16(fp)
    3fcc:	10800104 	addi	r2,r2,4
    3fd0:	10800037 	ldwio	r2,0(r2)
    3fd4:	e0bffb15 	stw	r2,-20(fp)

    /* Return once nothing more to do */
    if ((control & (ALTERA_AVALON_JTAG_UART_CONTROL_RI_MSK | ALTERA_AVALON_JTAG_UART_CONTROL_WI_MSK)) == 0)
    3fd8:	e0bffb17 	ldw	r2,-20(fp)
    3fdc:	1080c00c 	andi	r2,r2,768
    3fe0:	1005003a 	cmpeq	r2,r2,zero
    3fe4:	1000741e 	bne	r2,zero,41b8 <altera_avalon_jtag_uart_irq+0x21c>
      break;

    if (control & ALTERA_AVALON_JTAG_UART_CONTROL_RI_MSK)
    3fe8:	e0bffb17 	ldw	r2,-20(fp)
    3fec:	1080400c 	andi	r2,r2,256
    3ff0:	1005003a 	cmpeq	r2,r2,zero
    3ff4:	1000351e 	bne	r2,zero,40cc <altera_avalon_jtag_uart_irq+0x130>
    {
      /* process a read irq.  Start by assuming that there is data in the
       * receive FIFO (otherwise why would we have been interrupted?)
       */
      unsigned int data = 1 << ALTERA_AVALON_JTAG_UART_DATA_RAVAIL_OFST;
    3ff8:	00800074 	movhi	r2,1
    3ffc:	e0bffa15 	stw	r2,-24(fp)
      for ( ; ; )
      {
        /* Check whether there is space in the buffer.  If not then we must not
         * read any characters from the buffer as they will be lost.
         */
        unsigned int next = (sp->rx_in + 1) % ALTERA_AVALON_JTAG_UART_BUF_LEN;
    4000:	e0bffd17 	ldw	r2,-12(fp)
    4004:	10800a17 	ldw	r2,40(r2)
    4008:	10800044 	addi	r2,r2,1
    400c:	1081ffcc 	andi	r2,r2,2047
    4010:	e0bff915 	stw	r2,-28(fp)
        if (next == sp->rx_out)
    4014:	e0bffd17 	ldw	r2,-12(fp)
    4018:	10c00b17 	ldw	r3,44(r2)
    401c:	e0bff917 	ldw	r2,-28(fp)
    4020:	18801626 	beq	r3,r2,407c <altera_avalon_jtag_uart_irq+0xe0>
          break;

        /* Try to remove a character from the FIFO and find out whether there
         * are any more characters remaining.
         */
        data = IORD_ALTERA_AVALON_JTAG_UART_DATA(base);
    4024:	e0bffc17 	ldw	r2,-16(fp)
    4028:	10800037 	ldwio	r2,0(r2)
    402c:	e0bffa15 	stw	r2,-24(fp)
        
        if ((data & ALTERA_AVALON_JTAG_UART_DATA_RVALID_MSK) == 0)
    4030:	e0bffa17 	ldw	r2,-24(fp)
    4034:	10a0000c 	andi	r2,r2,32768
    4038:	1005003a 	cmpeq	r2,r2,zero
    403c:	10000f1e 	bne	r2,zero,407c <altera_avalon_jtag_uart_irq+0xe0>
          break;

        sp->rx_buf[sp->rx_in] = (data & ALTERA_AVALON_JTAG_UART_DATA_DATA_MSK) >> ALTERA_AVALON_JTAG_UART_DATA_DATA_OFST;
    4040:	e0bffd17 	ldw	r2,-12(fp)
    4044:	10c00a17 	ldw	r3,40(r2)
    4048:	e0bffa17 	ldw	r2,-24(fp)
    404c:	1009883a 	mov	r4,r2
    4050:	e0bffd17 	ldw	r2,-12(fp)
    4054:	1885883a 	add	r2,r3,r2
    4058:	10800e04 	addi	r2,r2,56
    405c:	11000005 	stb	r4,0(r2)
        sp->rx_in = (sp->rx_in + 1) % ALTERA_AVALON_JTAG_UART_BUF_LEN;
    4060:	e0bffd17 	ldw	r2,-12(fp)
    4064:	10800a17 	ldw	r2,40(r2)
    4068:	10800044 	addi	r2,r2,1
    406c:	10c1ffcc 	andi	r3,r2,2047
    4070:	e0bffd17 	ldw	r2,-12(fp)
    4074:	10c00a15 	stw	r3,40(r2)

        /* Post an event to notify jtag_uart_read that a character has been read */
        ALT_FLAG_POST (sp->events, ALT_JTAG_UART_READ_RDY, OS_FLAG_SET);
      }
    4078:	003fe106 	br	4000 <altera_avalon_jtag_uart_irq+0x64>

      if (data & ALTERA_AVALON_JTAG_UART_DATA_RAVAIL_MSK)
    407c:	e0bffa17 	ldw	r2,-24(fp)
    4080:	10bfffec 	andhi	r2,r2,65535
    4084:	1005003a 	cmpeq	r2,r2,zero
    4088:	1000101e 	bne	r2,zero,40cc <altera_avalon_jtag_uart_irq+0x130>
      {
        /* If there is still data available here then the buffer is full 
         * so turn off receive interrupts until some space becomes available.
         */
        sp->irq_enable &= ~ALTERA_AVALON_JTAG_UART_CONTROL_RE_MSK;
    408c:	e0bffd17 	ldw	r2,-12(fp)
    4090:	10c00817 	ldw	r3,32(r2)
    4094:	00bfff84 	movi	r2,-2
    4098:	1886703a 	and	r3,r3,r2
    409c:	e0bffd17 	ldw	r2,-12(fp)
    40a0:	10c00815 	stw	r3,32(r2)
        IOWR_ALTERA_AVALON_JTAG_UART_CONTROL(base, sp->irq_enable);
    40a4:	e0bffc17 	ldw	r2,-16(fp)
    40a8:	11000104 	addi	r4,r2,4
    40ac:	e0bffd17 	ldw	r2,-12(fp)
    40b0:	10800817 	ldw	r2,32(r2)
    40b4:	1007883a 	mov	r3,r2
    40b8:	2005883a 	mov	r2,r4
    40bc:	10c00035 	stwio	r3,0(r2)
        
        /* Dummy read to ensure IRQ is cleared prior to ISR completion */
        IORD_ALTERA_AVALON_JTAG_UART_CONTROL(base);
    40c0:	e0bffc17 	ldw	r2,-16(fp)
    40c4:	10800104 	addi	r2,r2,4
    40c8:	10800037 	ldwio	r2,0(r2)
      }
    }

    if (control & ALTERA_AVALON_JTAG_UART_CONTROL_WI_MSK)
    40cc:	e0bffb17 	ldw	r2,-20(fp)
    40d0:	1080800c 	andi	r2,r2,512
    40d4:	1005003a 	cmpeq	r2,r2,zero
    40d8:	103fbb1e 	bne	r2,zero,3fc8 <altera_avalon_jtag_uart_irq+0x2c>
    {
      /* process a write irq */
      unsigned int space = (control & ALTERA_AVALON_JTAG_UART_CONTROL_WSPACE_MSK) >> ALTERA_AVALON_JTAG_UART_CONTROL_WSPACE_OFST;
    40dc:	e0bffb17 	ldw	r2,-20(fp)
    40e0:	10bfffec 	andhi	r2,r2,65535
    40e4:	1004d43a 	srli	r2,r2,16
    40e8:	e0bff815 	stw	r2,-32(fp)

      while (space > 0 && sp->tx_out != sp->tx_in)
    40ec:	00001506 	br	4144 <altera_avalon_jtag_uart_irq+0x1a8>
      {
        IOWR_ALTERA_AVALON_JTAG_UART_DATA(base, sp->tx_buf[sp->tx_out]);
    40f0:	e13ffc17 	ldw	r4,-16(fp)
    40f4:	e0bffd17 	ldw	r2,-12(fp)
    40f8:	10c00d17 	ldw	r3,52(r2)
    40fc:	e0bffd17 	ldw	r2,-12(fp)
    4100:	1885883a 	add	r2,r3,r2
    4104:	10820e04 	addi	r2,r2,2104
    4108:	10800003 	ldbu	r2,0(r2)
    410c:	10c03fcc 	andi	r3,r2,255
    4110:	18c0201c 	xori	r3,r3,128
    4114:	18ffe004 	addi	r3,r3,-128
    4118:	2005883a 	mov	r2,r4
    411c:	10c00035 	stwio	r3,0(r2)

        sp->tx_out = (sp->tx_out + 1) % ALTERA_AVALON_JTAG_UART_BUF_LEN;
    4120:	e0bffd17 	ldw	r2,-12(fp)
    4124:	10800d17 	ldw	r2,52(r2)
    4128:	10800044 	addi	r2,r2,1
    412c:	10c1ffcc 	andi	r3,r2,2047
    4130:	e0bffd17 	ldw	r2,-12(fp)
    4134:	10c00d15 	stw	r3,52(r2)

        /* Post an event to notify jtag_uart_write that a character has been written */
        ALT_FLAG_POST (sp->events, ALT_JTAG_UART_WRITE_RDY, OS_FLAG_SET);

        space--;
    4138:	e0bff817 	ldw	r2,-32(fp)
    413c:	10bfffc4 	addi	r2,r2,-1
    4140:	e0bff815 	stw	r2,-32(fp)
    if (control & ALTERA_AVALON_JTAG_UART_CONTROL_WI_MSK)
    {
      /* process a write irq */
      unsigned int space = (control & ALTERA_AVALON_JTAG_UART_CONTROL_WSPACE_MSK) >> ALTERA_AVALON_JTAG_UART_CONTROL_WSPACE_OFST;

      while (space > 0 && sp->tx_out != sp->tx_in)
    4144:	e0bff817 	ldw	r2,-32(fp)
    4148:	1005003a 	cmpeq	r2,r2,zero
    414c:	1000051e 	bne	r2,zero,4164 <altera_avalon_jtag_uart_irq+0x1c8>
    4150:	e0bffd17 	ldw	r2,-12(fp)
    4154:	10c00d17 	ldw	r3,52(r2)
    4158:	e0bffd17 	ldw	r2,-12(fp)
    415c:	10800c17 	ldw	r2,48(r2)
    4160:	18bfe31e 	bne	r3,r2,40f0 <altera_avalon_jtag_uart_irq+0x154>
        ALT_FLAG_POST (sp->events, ALT_JTAG_UART_WRITE_RDY, OS_FLAG_SET);

        space--;
      }

      if (space > 0)
    4164:	e0bff817 	ldw	r2,-32(fp)
    4168:	1005003a 	cmpeq	r2,r2,zero
    416c:	103f961e 	bne	r2,zero,3fc8 <altera_avalon_jtag_uart_irq+0x2c>
      {
        /* If we don't have any more data available then turn off the TX interrupt */
        sp->irq_enable &= ~ALTERA_AVALON_JTAG_UART_CONTROL_WE_MSK;
    4170:	e0bffd17 	ldw	r2,-12(fp)
    4174:	10c00817 	ldw	r3,32(r2)
    4178:	00bfff44 	movi	r2,-3
    417c:	1886703a 	and	r3,r3,r2
    4180:	e0bffd17 	ldw	r2,-12(fp)
    4184:	10c00815 	stw	r3,32(r2)
        IOWR_ALTERA_AVALON_JTAG_UART_CONTROL(sp->base, sp->irq_enable);
    4188:	e0bffd17 	ldw	r2,-12(fp)
    418c:	10800017 	ldw	r2,0(r2)
    4190:	11000104 	addi	r4,r2,4
    4194:	e0bffd17 	ldw	r2,-12(fp)
    4198:	10800817 	ldw	r2,32(r2)
    419c:	1007883a 	mov	r3,r2
    41a0:	2005883a 	mov	r2,r4
    41a4:	10c00035 	stwio	r3,0(r2)
        
        /* Dummy read to ensure IRQ is cleared prior to ISR completion */
        IORD_ALTERA_AVALON_JTAG_UART_CONTROL(base);
    41a8:	e0bffc17 	ldw	r2,-16(fp)
    41ac:	10800104 	addi	r2,r2,4
    41b0:	10800037 	ldwio	r2,0(r2)
      }
    }
  }
    41b4:	003f8406 	br	3fc8 <altera_avalon_jtag_uart_irq+0x2c>
}
    41b8:	e037883a 	mov	sp,fp
    41bc:	df000017 	ldw	fp,0(sp)
    41c0:	dec00104 	addi	sp,sp,4
    41c4:	f800283a 	ret

000041c8 <altera_avalon_jtag_uart_timeout>:
 * Timeout routine is called every second
 */

static alt_u32 
altera_avalon_jtag_uart_timeout(void* context) 
{
    41c8:	defffc04 	addi	sp,sp,-16
    41cc:	df000315 	stw	fp,12(sp)
    41d0:	df000304 	addi	fp,sp,12
    41d4:	e13fff15 	stw	r4,-4(fp)
  altera_avalon_jtag_uart_state* sp = (altera_avalon_jtag_uart_state *) context;
    41d8:	e0bfff17 	ldw	r2,-4(fp)
    41dc:	e0bffe15 	stw	r2,-8(fp)

  unsigned int control = IORD_ALTERA_AVALON_JTAG_UART_CONTROL(sp->base);
    41e0:	e0bffe17 	ldw	r2,-8(fp)
    41e4:	10800017 	ldw	r2,0(r2)
    41e8:	10800104 	addi	r2,r2,4
    41ec:	10800037 	ldwio	r2,0(r2)
    41f0:	e0bffd15 	stw	r2,-12(fp)

  if (control & ALTERA_AVALON_JTAG_UART_CONTROL_AC_MSK)
    41f4:	e0bffd17 	ldw	r2,-12(fp)
    41f8:	1081000c 	andi	r2,r2,1024
    41fc:	1005003a 	cmpeq	r2,r2,zero
    4200:	10000c1e 	bne	r2,zero,4234 <altera_avalon_jtag_uart_timeout+0x6c>
  {
    IOWR_ALTERA_AVALON_JTAG_UART_CONTROL(sp->base, sp->irq_enable | ALTERA_AVALON_JTAG_UART_CONTROL_AC_MSK);
    4204:	e0bffe17 	ldw	r2,-8(fp)
    4208:	10800017 	ldw	r2,0(r2)
    420c:	11000104 	addi	r4,r2,4
    4210:	e0bffe17 	ldw	r2,-8(fp)
    4214:	10800817 	ldw	r2,32(r2)
    4218:	10810014 	ori	r2,r2,1024
    421c:	1007883a 	mov	r3,r2
    4220:	2005883a 	mov	r2,r4
    4224:	10c00035 	stwio	r3,0(r2)
    sp->host_inactive = 0;
    4228:	e0bffe17 	ldw	r2,-8(fp)
    422c:	10000915 	stw	zero,36(r2)
    4230:	00000a06 	br	425c <altera_avalon_jtag_uart_timeout+0x94>
  }
  else if (sp->host_inactive < INT_MAX - 2) {
    4234:	e0bffe17 	ldw	r2,-8(fp)
    4238:	10c00917 	ldw	r3,36(r2)
    423c:	00a00034 	movhi	r2,32768
    4240:	10bfff04 	addi	r2,r2,-4
    4244:	10c00536 	bltu	r2,r3,425c <altera_avalon_jtag_uart_timeout+0x94>
    sp->host_inactive++;
    4248:	e0bffe17 	ldw	r2,-8(fp)
    424c:	10800917 	ldw	r2,36(r2)
    4250:	10c00044 	addi	r3,r2,1
    4254:	e0bffe17 	ldw	r2,-8(fp)
    4258:	10c00915 	stw	r3,36(r2)
    425c:	00800074 	movhi	r2,1
    4260:	1080a204 	addi	r2,r2,648
    4264:	10800017 	ldw	r2,0(r2)
      ALT_FLAG_POST (sp->events, ALT_JTAG_UART_TIMEOUT, OS_FLAG_SET);
    }
  }

  return alt_ticks_per_second();
}
    4268:	e037883a 	mov	sp,fp
    426c:	df000017 	ldw	fp,0(sp)
    4270:	dec00104 	addi	sp,sp,4
    4274:	f800283a 	ret

00004278 <altera_avalon_jtag_uart_close>:
 * The close routine is not implemented for the small driver; instead it will
 * map to null. This is because the small driver simply waits while characters
 * are transmitted; there is no interrupt-serviced buffer to empty 
 */
int altera_avalon_jtag_uart_close(altera_avalon_jtag_uart_state* sp, int flags)
{
    4278:	defffc04 	addi	sp,sp,-16
    427c:	df000315 	stw	fp,12(sp)
    4280:	df000304 	addi	fp,sp,12
    4284:	e13ffd15 	stw	r4,-12(fp)
    4288:	e17ffe15 	stw	r5,-8(fp)
  /* 
   * Wait for all transmit data to be emptied by the JTAG UART ISR, or
   * for a host-inactivity timeout, in which case transmit data will be lost
   */
  while ( (sp->tx_out != sp->tx_in) && (sp->host_inactive < sp->timeout) ) {
    428c:	00000706 	br	42ac <altera_avalon_jtag_uart_close+0x34>
    if (flags & O_NONBLOCK) {
    4290:	e0bffe17 	ldw	r2,-8(fp)
    4294:	1090000c 	andi	r2,r2,16384
    4298:	1005003a 	cmpeq	r2,r2,zero
    429c:	1000031e 	bne	r2,zero,42ac <altera_avalon_jtag_uart_close+0x34>
      return -EWOULDBLOCK; 
    42a0:	00bffd44 	movi	r2,-11
    42a4:	e0bfff15 	stw	r2,-4(fp)
    42a8:	00000b06 	br	42d8 <altera_avalon_jtag_uart_close+0x60>
{
  /* 
   * Wait for all transmit data to be emptied by the JTAG UART ISR, or
   * for a host-inactivity timeout, in which case transmit data will be lost
   */
  while ( (sp->tx_out != sp->tx_in) && (sp->host_inactive < sp->timeout) ) {
    42ac:	e0bffd17 	ldw	r2,-12(fp)
    42b0:	10c00d17 	ldw	r3,52(r2)
    42b4:	e0bffd17 	ldw	r2,-12(fp)
    42b8:	10800c17 	ldw	r2,48(r2)
    42bc:	18800526 	beq	r3,r2,42d4 <altera_avalon_jtag_uart_close+0x5c>
    42c0:	e0bffd17 	ldw	r2,-12(fp)
    42c4:	10c00917 	ldw	r3,36(r2)
    42c8:	e0bffd17 	ldw	r2,-12(fp)
    42cc:	10800117 	ldw	r2,4(r2)
    42d0:	18bfef36 	bltu	r3,r2,4290 <altera_avalon_jtag_uart_close+0x18>
    if (flags & O_NONBLOCK) {
      return -EWOULDBLOCK; 
    }
  }

  return 0;
    42d4:	e03fff15 	stw	zero,-4(fp)
    42d8:	e0bfff17 	ldw	r2,-4(fp)
}
    42dc:	e037883a 	mov	sp,fp
    42e0:	df000017 	ldw	fp,0(sp)
    42e4:	dec00104 	addi	sp,sp,4
    42e8:	f800283a 	ret

000042ec <altera_avalon_jtag_uart_ioctl>:
/* ----------------------------------------------------------- */

int 
altera_avalon_jtag_uart_ioctl(altera_avalon_jtag_uart_state* sp, int req,
  void* arg)
{
    42ec:	defff804 	addi	sp,sp,-32
    42f0:	df000715 	stw	fp,28(sp)
    42f4:	df000704 	addi	fp,sp,28
    42f8:	e13ffb15 	stw	r4,-20(fp)
    42fc:	e17ffc15 	stw	r5,-16(fp)
    4300:	e1bffd15 	stw	r6,-12(fp)
  int rc = -ENOTTY;
    4304:	00bff9c4 	movi	r2,-25
    4308:	e0bffa15 	stw	r2,-24(fp)

  switch (req)
    430c:	e0bffc17 	ldw	r2,-16(fp)
    4310:	e0bfff15 	stw	r2,-4(fp)
    4314:	e0ffff17 	ldw	r3,-4(fp)
    4318:	189a8060 	cmpeqi	r2,r3,27137
    431c:	1000041e 	bne	r2,zero,4330 <altera_avalon_jtag_uart_ioctl+0x44>
    4320:	e0ffff17 	ldw	r3,-4(fp)
    4324:	189a80a0 	cmpeqi	r2,r3,27138
    4328:	10001b1e 	bne	r2,zero,4398 <altera_avalon_jtag_uart_ioctl+0xac>
    432c:	00002706 	br	43cc <altera_avalon_jtag_uart_ioctl+0xe0>
  {
  case TIOCSTIMEOUT:
    /* Set the time to wait until assuming host is not connected */
    if (sp->timeout != INT_MAX)
    4330:	e0bffb17 	ldw	r2,-20(fp)
    4334:	10c00117 	ldw	r3,4(r2)
    4338:	00a00034 	movhi	r2,32768
    433c:	10bfffc4 	addi	r2,r2,-1
    4340:	18802226 	beq	r3,r2,43cc <altera_avalon_jtag_uart_ioctl+0xe0>
    {
      int timeout = *((int *)arg);
    4344:	e0bffd17 	ldw	r2,-12(fp)
    4348:	10800017 	ldw	r2,0(r2)
    434c:	e0bff915 	stw	r2,-28(fp)
      sp->timeout = (timeout >= 2 && timeout < INT_MAX) ? timeout : INT_MAX - 1;
    4350:	e0bff917 	ldw	r2,-28(fp)
    4354:	10800090 	cmplti	r2,r2,2
    4358:	1000071e 	bne	r2,zero,4378 <altera_avalon_jtag_uart_ioctl+0x8c>
    435c:	e0fff917 	ldw	r3,-28(fp)
    4360:	00a00034 	movhi	r2,32768
    4364:	10bfffc4 	addi	r2,r2,-1
    4368:	18800326 	beq	r3,r2,4378 <altera_avalon_jtag_uart_ioctl+0x8c>
    436c:	e0bff917 	ldw	r2,-28(fp)
    4370:	e0bffe15 	stw	r2,-8(fp)
    4374:	00000306 	br	4384 <altera_avalon_jtag_uart_ioctl+0x98>
    4378:	00e00034 	movhi	r3,32768
    437c:	18ffff84 	addi	r3,r3,-2
    4380:	e0fffe15 	stw	r3,-8(fp)
    4384:	e0bffb17 	ldw	r2,-20(fp)
    4388:	e0fffe17 	ldw	r3,-8(fp)
    438c:	10c00115 	stw	r3,4(r2)
      rc = 0;
    4390:	e03ffa15 	stw	zero,-24(fp)
    }
    break;
    4394:	00000d06 	br	43cc <altera_avalon_jtag_uart_ioctl+0xe0>

  case TIOCGCONNECTED:
    /* Find out whether host is connected */
    if (sp->timeout != INT_MAX)
    4398:	e0bffb17 	ldw	r2,-20(fp)
    439c:	10c00117 	ldw	r3,4(r2)
    43a0:	00a00034 	movhi	r2,32768
    43a4:	10bfffc4 	addi	r2,r2,-1
    43a8:	18800826 	beq	r3,r2,43cc <altera_avalon_jtag_uart_ioctl+0xe0>
    {
      *((int *)arg) = (sp->host_inactive < sp->timeout) ? 1 : 0;
    43ac:	e13ffd17 	ldw	r4,-12(fp)
    43b0:	e0bffb17 	ldw	r2,-20(fp)
    43b4:	10c00917 	ldw	r3,36(r2)
    43b8:	e0bffb17 	ldw	r2,-20(fp)
    43bc:	10800117 	ldw	r2,4(r2)
    43c0:	1885803a 	cmpltu	r2,r3,r2
    43c4:	20800015 	stw	r2,0(r4)
      rc = 0;
    43c8:	e03ffa15 	stw	zero,-24(fp)

  default:
    break;
  }

  return rc;
    43cc:	e0bffa17 	ldw	r2,-24(fp)
}
    43d0:	e037883a 	mov	sp,fp
    43d4:	df000017 	ldw	fp,0(sp)
    43d8:	dec00104 	addi	sp,sp,4
    43dc:	f800283a 	ret

000043e0 <altera_avalon_jtag_uart_read>:
/* ----------------------------------------------------------- */

int 
altera_avalon_jtag_uart_read(altera_avalon_jtag_uart_state* sp, 
  char * buffer, int space, int flags)
{
    43e0:	defff204 	addi	sp,sp,-56
    43e4:	dfc00d15 	stw	ra,52(sp)
    43e8:	df000c15 	stw	fp,48(sp)
    43ec:	df000c04 	addi	fp,sp,48
    43f0:	e13ffb15 	stw	r4,-20(fp)
    43f4:	e17ffc15 	stw	r5,-16(fp)
    43f8:	e1bffd15 	stw	r6,-12(fp)
    43fc:	e1fffe15 	stw	r7,-8(fp)
  char * ptr = buffer;
    4400:	e0bffc17 	ldw	r2,-16(fp)
    4404:	e0bffa15 	stw	r2,-24(fp)
   * When running in a multi threaded environment, obtain the "read_lock"
   * semaphore. This ensures that reading from the device is thread-safe.
   */
  ALT_SEM_PEND (sp->read_lock, 0);

  while (space > 0)
    4408:	00004806 	br	452c <altera_avalon_jtag_uart_read+0x14c>
    unsigned int in, out;

    /* Read as much data as possible */
    do
    {
      in  = sp->rx_in;
    440c:	e0bffb17 	ldw	r2,-20(fp)
    4410:	10800a17 	ldw	r2,40(r2)
    4414:	e0bff715 	stw	r2,-36(fp)
      out = sp->rx_out;
    4418:	e0bffb17 	ldw	r2,-20(fp)
    441c:	10800b17 	ldw	r2,44(r2)
    4420:	e0bff615 	stw	r2,-40(fp)

      if (in >= out)
    4424:	e0fff717 	ldw	r3,-36(fp)
    4428:	e0bff617 	ldw	r2,-40(fp)
    442c:	18800536 	bltu	r3,r2,4444 <altera_avalon_jtag_uart_read+0x64>
        n = in - out;
    4430:	e0bff717 	ldw	r2,-36(fp)
    4434:	e0fff617 	ldw	r3,-40(fp)
    4438:	10c5c83a 	sub	r2,r2,r3
    443c:	e0bff815 	stw	r2,-32(fp)
    4440:	00000406 	br	4454 <altera_avalon_jtag_uart_read+0x74>
      else
        n = ALTERA_AVALON_JTAG_UART_BUF_LEN - out;
    4444:	00820004 	movi	r2,2048
    4448:	e0fff617 	ldw	r3,-40(fp)
    444c:	10c5c83a 	sub	r2,r2,r3
    4450:	e0bff815 	stw	r2,-32(fp)

      if (n == 0)
    4454:	e0bff817 	ldw	r2,-32(fp)
    4458:	1005003a 	cmpeq	r2,r2,zero
    445c:	10001f1e 	bne	r2,zero,44dc <altera_avalon_jtag_uart_read+0xfc>
        break; /* No more data available */

      if (n > space)
    4460:	e0fffd17 	ldw	r3,-12(fp)
    4464:	e0bff817 	ldw	r2,-32(fp)
    4468:	1880022e 	bgeu	r3,r2,4474 <altera_avalon_jtag_uart_read+0x94>
        n = space;
    446c:	e0bffd17 	ldw	r2,-12(fp)
    4470:	e0bff815 	stw	r2,-32(fp)

      memcpy(ptr, sp->rx_buf + out, n);
    4474:	e0bffb17 	ldw	r2,-20(fp)
    4478:	10c00e04 	addi	r3,r2,56
    447c:	e0bff617 	ldw	r2,-40(fp)
    4480:	1887883a 	add	r3,r3,r2
    4484:	e0bffa17 	ldw	r2,-24(fp)
    4488:	1009883a 	mov	r4,r2
    448c:	180b883a 	mov	r5,r3
    4490:	e1bff817 	ldw	r6,-32(fp)
    4494:	00032480 	call	3248 <memcpy>
      ptr   += n;
    4498:	e0fff817 	ldw	r3,-32(fp)
    449c:	e0bffa17 	ldw	r2,-24(fp)
    44a0:	10c5883a 	add	r2,r2,r3
    44a4:	e0bffa15 	stw	r2,-24(fp)
      space -= n;
    44a8:	e0fffd17 	ldw	r3,-12(fp)
    44ac:	e0bff817 	ldw	r2,-32(fp)
    44b0:	1885c83a 	sub	r2,r3,r2
    44b4:	e0bffd15 	stw	r2,-12(fp)

      sp->rx_out = (out + n) % ALTERA_AVALON_JTAG_UART_BUF_LEN;
    44b8:	e0fff617 	ldw	r3,-40(fp)
    44bc:	e0bff817 	ldw	r2,-32(fp)
    44c0:	1885883a 	add	r2,r3,r2
    44c4:	10c1ffcc 	andi	r3,r2,2047
    44c8:	e0bffb17 	ldw	r2,-20(fp)
    44cc:	10c00b15 	stw	r3,44(r2)
    }
    while (space > 0);
    44d0:	e0bffd17 	ldw	r2,-12(fp)
    44d4:	10800048 	cmpgei	r2,r2,1
    44d8:	103fcc1e 	bne	r2,zero,440c <altera_avalon_jtag_uart_read+0x2c>

    /* If we read any data then return it */
    if (ptr != buffer)
    44dc:	e0fffa17 	ldw	r3,-24(fp)
    44e0:	e0bffc17 	ldw	r2,-16(fp)
    44e4:	1880141e 	bne	r3,r2,4538 <altera_avalon_jtag_uart_read+0x158>
      break;

    /* If in non-blocking mode then return error */
    if (flags & O_NONBLOCK)
    44e8:	e0bffe17 	ldw	r2,-8(fp)
    44ec:	1090000c 	andi	r2,r2,16384
    44f0:	1004c03a 	cmpne	r2,r2,zero
    44f4:	1000101e 	bne	r2,zero,4538 <altera_avalon_jtag_uart_read+0x158>
      while (in == sp->rx_in && sp->host_inactive < sp->timeout)
        ;
    }
#else
    /* No OS: Always spin */
    while (in == sp->rx_in && sp->host_inactive < sp->timeout)
    44f8:	e0bffb17 	ldw	r2,-20(fp)
    44fc:	10c00a17 	ldw	r3,40(r2)
    4500:	e0bff717 	ldw	r2,-36(fp)
    4504:	1880051e 	bne	r3,r2,451c <altera_avalon_jtag_uart_read+0x13c>
    4508:	e0bffb17 	ldw	r2,-20(fp)
    450c:	10c00917 	ldw	r3,36(r2)
    4510:	e0bffb17 	ldw	r2,-20(fp)
    4514:	10800117 	ldw	r2,4(r2)
    4518:	18bff736 	bltu	r3,r2,44f8 <altera_avalon_jtag_uart_read+0x118>
      ;
#endif /* __ucosii__ */

    if (in == sp->rx_in)
    451c:	e0bffb17 	ldw	r2,-20(fp)
    4520:	10c00a17 	ldw	r3,40(r2)
    4524:	e0bff717 	ldw	r2,-36(fp)
    4528:	18800326 	beq	r3,r2,4538 <altera_avalon_jtag_uart_read+0x158>
   * When running in a multi threaded environment, obtain the "read_lock"
   * semaphore. This ensures that reading from the device is thread-safe.
   */
  ALT_SEM_PEND (sp->read_lock, 0);

  while (space > 0)
    452c:	e0bffd17 	ldw	r2,-12(fp)
    4530:	10800048 	cmpgei	r2,r2,1
    4534:	103fb51e 	bne	r2,zero,440c <altera_avalon_jtag_uart_read+0x2c>
