Archive member included because of file (symbol)

c:/altera/13.0sp1/nios2eds/bin/gnu/h-i686-mingw32/bin/../lib/gcc/nios2-elf/4.1.2\libgcc.a(_muldi3.o)
                              obj/default/media_interrupt_HAL.o (__muldi3)
c:/altera/13.0sp1/nios2eds/bin/gnu/h-i686-mingw32/bin/../lib/gcc/nios2-elf/4.1.2\libgcc.a(_divdi3.o)
                              obj/default/media_interrupt_HAL.o (__divdi3)
c:/altera/13.0sp1/nios2eds/bin/gnu/h-i686-mingw32/bin/../lib/gcc/nios2-elf/4.1.2\libgcc.a(lib2-divmod.o)
                              c:/altera/13.0sp1/nios2eds/bin/gnu/h-i686-mingw32/bin/../lib/gcc/nios2-elf/4.1.2\libgcc.a(_divdi3.o) (__udivsi3)
c:/altera/13.0sp1/nios2eds/bin/gnu/h-i686-mingw32/bin/../lib/gcc/nios2-elf/4.1.2\libgcc.a(_clz.o)
                              c:/altera/13.0sp1/nios2eds/bin/gnu/h-i686-mingw32/bin/../lib/gcc/nios2-elf/4.1.2\libgcc.a(_divdi3.o) (__clz_tab)
c:/altera/13.0sp1/nios2eds/bin/gnu/h-i686-mingw32/bin/../lib/gcc/nios2-elf/4.1.2/../../../../nios2-elf/lib\libc.a(lib_a-memcpy.o)
                              obj/default/media_interrupt_HAL.o (memcpy)
c:/altera/13.0sp1/nios2eds/bin/gnu/h-i686-mingw32/bin/../lib/gcc/nios2-elf/4.1.2/../../../../nios2-elf/lib\libc.a(lib_a-memset.o)
                              obj/default/media_interrupt_HAL.o (memset)
../p5_Temp_bsp/\libhal_bsp.a(alt_irq_register.o)
                              obj/default/media_interrupt_HAL.o (alt_irq_register)
../p5_Temp_bsp/\libhal_bsp.a(alt_irq_vars.o)
                              ../p5_Temp_bsp/\libhal_bsp.a(alt_irq_register.o) (alt_irq_active)
../p5_Temp_bsp/\libhal_bsp.a(alt_load.o)
                              ../p5_Temp_bsp//obj/HAL/src/crt0.o (alt_load)
../p5_Temp_bsp/\libhal_bsp.a(alt_main.o)
                              ../p5_Temp_bsp//obj/HAL/src/crt0.o (alt_main)
../p5_Temp_bsp/\libhal_bsp.a(alt_printf.o)
                              obj/default/media_interrupt_HAL.o (alt_printf)
../p5_Temp_bsp/\libhal_bsp.a(alt_putchar.o)
                              ../p5_Temp_bsp/\libhal_bsp.a(alt_printf.o) (alt_putchar)
../p5_Temp_bsp/\libhal_bsp.a(alt_sys_init.o)
                              ../p5_Temp_bsp/\libhal_bsp.a(alt_main.o) (alt_irq_init)
../p5_Temp_bsp/\libhal_bsp.a(altera_avalon_jtag_uart_fd.o)
                              ../p5_Temp_bsp/\libhal_bsp.a(alt_sys_init.o) (altera_avalon_jtag_uart_read_fd)
../p5_Temp_bsp/\libhal_bsp.a(altera_avalon_jtag_uart_init.o)
                              ../p5_Temp_bsp/\libhal_bsp.a(alt_sys_init.o) (altera_avalon_jtag_uart_init)
../p5_Temp_bsp/\libhal_bsp.a(altera_avalon_jtag_uart_ioctl.o)
                              ../p5_Temp_bsp/\libhal_bsp.a(altera_avalon_jtag_uart_fd.o) (altera_avalon_jtag_uart_ioctl)
../p5_Temp_bsp/\libhal_bsp.a(altera_avalon_jtag_uart_read.o)
                              ../p5_Temp_bsp/\libhal_bsp.a(altera_avalon_jtag_uart_fd.o) (altera_avalon_jtag_uart_read)
../p5_Temp_bsp/\libhal_bsp.a(altera_avalon_jtag_uart_write.o)
                              ../p5_Temp_bsp/\libhal_bsp.a(altera_avalon_jtag_uart_fd.o) (altera_avalon_jtag_uart_write)
../p5_Temp_bsp/\libhal_bsp.a(altera_avalon_timer_sc.o)
                              ../p5_Temp_bsp/\libhal_bsp.a(alt_sys_init.o) (alt_avalon_timer_sc_init)
../p5_Temp_bsp/\libhal_bsp.a(altera_up_avalon_audio.o)
                              obj/default/media_interrupt_HAL.o (alt_up_audio_open_dev)
../p5_Temp_bsp/\libhal_bsp.a(altera_up_avalon_character_lcd.o)
                              ../p5_Temp_bsp/\libhal_bsp.a(alt_sys_init.o) (alt_up_character_lcd_init)
../p5_Temp_bsp/\libhal_bsp.a(altera_up_avalon_ethernet.o)
                              ../p5_Temp_bsp/\libhal_bsp.a(alt_sys_init.o) (alt_up_ethernet_init)
../p5_Temp_bsp/\libhal_bsp.a(altera_up_avalon_ethernet_low_level_driver.o)
                              ../p5_Temp_bsp/\libhal_bsp.a(altera_up_avalon_ethernet.o) (alt_up_ethernet_reg_write)
../p5_Temp_bsp/\libhal_bsp.a(altera_up_avalon_irda.o)
                              ../p5_Temp_bsp/\libhal_bsp.a(alt_sys_init.o) (alt_up_irda_read_fd)
../p5_Temp_bsp/\libhal_bsp.a(altera_up_avalon_parallel_port.o)
                              obj/default/media_interrupt_HAL.o (alt_up_parallel_port_open_dev)
../p5_Temp_bsp/\libhal_bsp.a(altera_up_avalon_ps2.o)
                              ../p5_Temp_bsp/\libhal_bsp.a(alt_sys_init.o) (alt_up_ps2_init)
../p5_Temp_bsp/\libhal_bsp.a(altera_up_avalon_rs232.o)
                              ../p5_Temp_bsp/\libhal_bsp.a(alt_sys_init.o) (alt_up_rs232_read_fd)
../p5_Temp_bsp/\libhal_bsp.a(altera_up_avalon_video_character_buffer_with_dma.o)
                              ../p5_Temp_bsp/\libhal_bsp.a(alt_sys_init.o) (alt_up_char_buffer_init)
../p5_Temp_bsp/\libhal_bsp.a(altera_up_avalon_video_pixel_buffer_dma.o)
                              obj/default/media_interrupt_HAL.o (alt_up_pixel_buffer_dma_open_dev)
../p5_Temp_bsp/\libhal_bsp.a(alt_alarm_start.o)
                              ../p5_Temp_bsp/\libhal_bsp.a(altera_avalon_jtag_uart_init.o) (alt_alarm_start)
../p5_Temp_bsp/\libhal_bsp.a(alt_close.o)
                              ../p5_Temp_bsp/\libhal_bsp.a(alt_main.o) (close)
../p5_Temp_bsp/\libhal_bsp.a(alt_dcache_flush_all.o)
                              ../p5_Temp_bsp/\libhal_bsp.a(alt_load.o) (alt_dcache_flush_all)
../p5_Temp_bsp/\libhal_bsp.a(alt_dev.o)
                              ../p5_Temp_bsp/\libhal_bsp.a(alt_sys_init.o) (alt_dev_list)
../p5_Temp_bsp/\libhal_bsp.a(alt_dev_llist_insert.o)
                              ../p5_Temp_bsp/\libhal_bsp.a(alt_sys_init.o) (alt_dev_llist_insert)
../p5_Temp_bsp/\libhal_bsp.a(alt_do_ctors.o)
                              ../p5_Temp_bsp/\libhal_bsp.a(alt_main.o) (_do_ctors)
../p5_Temp_bsp/\libhal_bsp.a(alt_do_dtors.o)
                              ../p5_Temp_bsp/\libhal_bsp.a(alt_main.o) (_do_dtors)
../p5_Temp_bsp/\libhal_bsp.a(alt_errno.o)
                              ../p5_Temp_bsp/\libhal_bsp.a(alt_close.o) (alt_errno)
../p5_Temp_bsp/\libhal_bsp.a(alt_find_dev.o)
                              ../p5_Temp_bsp/\libhal_bsp.a(altera_up_avalon_audio.o) (alt_find_dev)
../p5_Temp_bsp/\libhal_bsp.a(alt_icache_flush_all.o)
                              ../p5_Temp_bsp/\libhal_bsp.a(alt_load.o) (alt_icache_flush_all)
../p5_Temp_bsp/\libhal_bsp.a(alt_io_redirect.o)
                              ../p5_Temp_bsp/\libhal_bsp.a(alt_main.o) (alt_io_redirect)
../p5_Temp_bsp/\libhal_bsp.a(alt_irq_entry.o)
                              ../p5_Temp_bsp/\libhal_bsp.a(alt_irq_register.o) (alt_irq_entry)
../p5_Temp_bsp/\libhal_bsp.a(alt_irq_handler.o)
                              ../p5_Temp_bsp/\libhal_bsp.a(alt_irq_register.o) (alt_irq_handler)
../p5_Temp_bsp/\libhal_bsp.a(alt_open.o)
                              ../p5_Temp_bsp/\libhal_bsp.a(alt_io_redirect.o) (open)
../p5_Temp_bsp/\libhal_bsp.a(alt_release_fd.o)
                              ../p5_Temp_bsp/\libhal_bsp.a(alt_close.o) (alt_release_fd)
../p5_Temp_bsp/\libhal_bsp.a(alt_tick.o)
                              ../p5_Temp_bsp/\libhal_bsp.a(altera_avalon_jtag_uart_init.o) (_alt_tick_rate)
../p5_Temp_bsp/\libhal_bsp.a(alt_usleep.o)
                              ../p5_Temp_bsp/\libhal_bsp.a(altera_up_avalon_ethernet.o) (usleep)
../p5_Temp_bsp/\libhal_bsp.a(altera_nios2_qsys_irq.o)
                              ../p5_Temp_bsp/\libhal_bsp.a(alt_sys_init.o) (altera_nios2_qsys_irq_init)
../p5_Temp_bsp/\libhal_bsp.a(alt_busy_sleep.o)
                              ../p5_Temp_bsp/\libhal_bsp.a(alt_usleep.o) (alt_busy_sleep)
../p5_Temp_bsp/\libhal_bsp.a(alt_exception_entry.o)
                              ../p5_Temp_bsp/\libhal_bsp.a(alt_irq_entry.o) (alt_exception)
../p5_Temp_bsp/\libhal_bsp.a(alt_find_file.o)
                              ../p5_Temp_bsp/\libhal_bsp.a(alt_open.o) (alt_find_file)
../p5_Temp_bsp/\libhal_bsp.a(alt_get_fd.o)
                              ../p5_Temp_bsp/\libhal_bsp.a(alt_open.o) (alt_get_fd)
../p5_Temp_bsp/\libhal_bsp.a(alt_icache_flush.o)
                              ../p5_Temp_bsp/\libhal_bsp.a(alt_icache_flush_all.o) (alt_icache_flush)
c:/altera/13.0sp1/nios2eds/bin/gnu/h-i686-mingw32/bin/../lib/gcc/nios2-elf/4.1.2/../../../../nios2-elf/lib\libc.a(lib_a-atexit.o)
                              ../p5_Temp_bsp/\libhal_bsp.a(alt_main.o) (atexit)
c:/altera/13.0sp1/nios2eds/bin/gnu/h-i686-mingw32/bin/../lib/gcc/nios2-elf/4.1.2/../../../../nios2-elf/lib\libc.a(lib_a-exit.o)
                              ../p5_Temp_bsp/\libhal_bsp.a(alt_main.o) (exit)
c:/altera/13.0sp1/nios2eds/bin/gnu/h-i686-mingw32/bin/../lib/gcc/nios2-elf/4.1.2/../../../../nios2-elf/lib\libc.a(lib_a-impure.o)
                              ../p5_Temp_bsp/\libhal_bsp.a(alt_putchar.o) (_impure_ptr)
c:/altera/13.0sp1/nios2eds/bin/gnu/h-i686-mingw32/bin/../lib/gcc/nios2-elf/4.1.2/../../../../nios2-elf/lib\libc.a(lib_a-int_errno.o)
                              ../p5_Temp_bsp/\libhal_bsp.a(alt_close.o) (errno)
c:/altera/13.0sp1/nios2eds/bin/gnu/h-i686-mingw32/bin/../lib/gcc/nios2-elf/4.1.2/../../../../nios2-elf/lib\libc.a(lib_a-memcmp.o)
                              ../p5_Temp_bsp/\libhal_bsp.a(alt_find_dev.o) (memcmp)
c:/altera/13.0sp1/nios2eds/bin/gnu/h-i686-mingw32/bin/../lib/gcc/nios2-elf/4.1.2/../../../../nios2-elf/lib\libc.a(lib_a-putc.o)
                              ../p5_Temp_bsp/\libhal_bsp.a(alt_putchar.o) (putc)
c:/altera/13.0sp1/nios2eds/bin/gnu/h-i686-mingw32/bin/../lib/gcc/nios2-elf/4.1.2/../../../../nios2-elf/lib\libc.a(lib_a-strcmp.o)
                              ../p5_Temp_bsp/\libhal_bsp.a(altera_up_avalon_video_character_buffer_with_dma.o) (strcmp)
c:/altera/13.0sp1/nios2eds/bin/gnu/h-i686-mingw32/bin/../lib/gcc/nios2-elf/4.1.2/../../../../nios2-elf/lib\libc.a(lib_a-strlen.o)
                              ../p5_Temp_bsp/\libhal_bsp.a(alt_find_dev.o) (strlen)
c:/altera/13.0sp1/nios2eds/bin/gnu/h-i686-mingw32/bin/../lib/gcc/nios2-elf/4.1.2/../../../../nios2-elf/lib\libc.a(lib_a-wbuf.o)
                              c:/altera/13.0sp1/nios2eds/bin/gnu/h-i686-mingw32/bin/../lib/gcc/nios2-elf/4.1.2/../../../../nios2-elf/lib\libc.a(lib_a-putc.o) (__swbuf_r)
c:/altera/13.0sp1/nios2eds/bin/gnu/h-i686-mingw32/bin/../lib/gcc/nios2-elf/4.1.2/../../../../nios2-elf/lib\libc.a(lib_a-wsetup.o)
                              c:/altera/13.0sp1/nios2eds/bin/gnu/h-i686-mingw32/bin/../lib/gcc/nios2-elf/4.1.2/../../../../nios2-elf/lib\libc.a(lib_a-wbuf.o) (__swsetup_r)
c:/altera/13.0sp1/nios2eds/bin/gnu/h-i686-mingw32/bin/../lib/gcc/nios2-elf/4.1.2/../../../../nios2-elf/lib\libc.a(lib_a-__atexit.o)
                              c:/altera/13.0sp1/nios2eds/bin/gnu/h-i686-mingw32/bin/../lib/gcc/nios2-elf/4.1.2/../../../../nios2-elf/lib\libc.a(lib_a-atexit.o) (__register_exitproc)
c:/altera/13.0sp1/nios2eds/bin/gnu/h-i686-mingw32/bin/../lib/gcc/nios2-elf/4.1.2/../../../../nios2-elf/lib\libc.a(lib_a-__call_atexit.o)
                              c:/altera/13.0sp1/nios2eds/bin/gnu/h-i686-mingw32/bin/../lib/gcc/nios2-elf/4.1.2/../../../../nios2-elf/lib\libc.a(lib_a-exit.o) (__call_exitprocs)
c:/altera/13.0sp1/nios2eds/bin/gnu/h-i686-mingw32/bin/../lib/gcc/nios2-elf/4.1.2/../../../../nios2-elf/lib\libc.a(lib_a-fflush.o)
                              c:/altera/13.0sp1/nios2eds/bin/gnu/h-i686-mingw32/bin/../lib/gcc/nios2-elf/4.1.2/../../../../nios2-elf/lib\libc.a(lib_a-wbuf.o) (_fflush_r)
c:/altera/13.0sp1/nios2eds/bin/gnu/h-i686-mingw32/bin/../lib/gcc/nios2-elf/4.1.2/../../../../nios2-elf/lib\libc.a(lib_a-findfp.o)
                              c:/altera/13.0sp1/nios2eds/bin/gnu/h-i686-mingw32/bin/../lib/gcc/nios2-elf/4.1.2/../../../../nios2-elf/lib\libc.a(lib_a-putc.o) (__sinit)
c:/altera/13.0sp1/nios2eds/bin/gnu/h-i686-mingw32/bin/../lib/gcc/nios2-elf/4.1.2/../../../../nios2-elf/lib\libc.a(lib_a-freer.o)
                              c:/altera/13.0sp1/nios2eds/bin/gnu/h-i686-mingw32/bin/../lib/gcc/nios2-elf/4.1.2/../../../../nios2-elf/lib\libc.a(lib_a-wsetup.o) (_free_r)
c:/altera/13.0sp1/nios2eds/bin/gnu/h-i686-mingw32/bin/../lib/gcc/nios2-elf/4.1.2/../../../../nios2-elf/lib\libc.a(lib_a-fwalk.o)
                              c:/altera/13.0sp1/nios2eds/bin/gnu/h-i686-mingw32/bin/../lib/gcc/nios2-elf/4.1.2/../../../../nios2-elf/lib\libc.a(lib_a-fflush.o) (_fwalk_reent)
c:/altera/13.0sp1/nios2eds/bin/gnu/h-i686-mingw32/bin/../lib/gcc/nios2-elf/4.1.2/../../../../nios2-elf/lib\libc.a(lib_a-makebuf.o)
                              c:/altera/13.0sp1/nios2eds/bin/gnu/h-i686-mingw32/bin/../lib/gcc/nios2-elf/4.1.2/../../../../nios2-elf/lib\libc.a(lib_a-wsetup.o) (__smakebuf_r)
c:/altera/13.0sp1/nios2eds/bin/gnu/h-i686-mingw32/bin/../lib/gcc/nios2-elf/4.1.2/../../../../nios2-elf/lib\libc.a(lib_a-mallocr.o)
                              c:/altera/13.0sp1/nios2eds/bin/gnu/h-i686-mingw32/bin/../lib/gcc/nios2-elf/4.1.2/../../../../nios2-elf/lib\libc.a(lib_a-findfp.o) (_malloc_r)
c:/altera/13.0sp1/nios2eds/bin/gnu/h-i686-mingw32/bin/../lib/gcc/nios2-elf/4.1.2/../../../../nios2-elf/lib\libc.a(lib_a-sbrkr.o)
                              c:/altera/13.0sp1/nios2eds/bin/gnu/h-i686-mingw32/bin/../lib/gcc/nios2-elf/4.1.2/../../../../nios2-elf/lib\libc.a(lib_a-freer.o) (_sbrk_r)
c:/altera/13.0sp1/nios2eds/bin/gnu/h-i686-mingw32/bin/../lib/gcc/nios2-elf/4.1.2/../../../../nios2-elf/lib\libc.a(lib_a-stdio.o)
                              c:/altera/13.0sp1/nios2eds/bin/gnu/h-i686-mingw32/bin/../lib/gcc/nios2-elf/4.1.2/../../../../nios2-elf/lib\libc.a(lib_a-findfp.o) (__sclose)
c:/altera/13.0sp1/nios2eds/bin/gnu/h-i686-mingw32/bin/../lib/gcc/nios2-elf/4.1.2/../../../../nios2-elf/lib\libc.a(lib_a-writer.o)
                              c:/altera/13.0sp1/nios2eds/bin/gnu/h-i686-mingw32/bin/../lib/gcc/nios2-elf/4.1.2/../../../../nios2-elf/lib\libc.a(lib_a-stdio.o) (_write_r)
c:/altera/13.0sp1/nios2eds/bin/gnu/h-i686-mingw32/bin/../lib/gcc/nios2-elf/4.1.2/../../../../nios2-elf/lib\libc.a(lib_a-closer.o)
                              c:/altera/13.0sp1/nios2eds/bin/gnu/h-i686-mingw32/bin/../lib/gcc/nios2-elf/4.1.2/../../../../nios2-elf/lib\libc.a(lib_a-stdio.o) (_close_r)
c:/altera/13.0sp1/nios2eds/bin/gnu/h-i686-mingw32/bin/../lib/gcc/nios2-elf/4.1.2/../../../../nios2-elf/lib\libc.a(lib_a-fclose.o)
                              c:/altera/13.0sp1/nios2eds/bin/gnu/h-i686-mingw32/bin/../lib/gcc/nios2-elf/4.1.2/../../../../nios2-elf/lib\libc.a(lib_a-findfp.o) (fclose)
c:/altera/13.0sp1/nios2eds/bin/gnu/h-i686-mingw32/bin/../lib/gcc/nios2-elf/4.1.2/../../../../nios2-elf/lib\libc.a(lib_a-fstatr.o)
                              c:/altera/13.0sp1/nios2eds/bin/gnu/h-i686-mingw32/bin/../lib/gcc/nios2-elf/4.1.2/../../../../nios2-elf/lib\libc.a(lib_a-makebuf.o) (_fstat_r)
c:/altera/13.0sp1/nios2eds/bin/gnu/h-i686-mingw32/bin/../lib/gcc/nios2-elf/4.1.2/../../../../nios2-elf/lib\libc.a(lib_a-isattyr.o)
                              c:/altera/13.0sp1/nios2eds/bin/gnu/h-i686-mingw32/bin/../lib/gcc/nios2-elf/4.1.2/../../../../nios2-elf/lib\libc.a(lib_a-makebuf.o) (_isatty_r)
c:/altera/13.0sp1/nios2eds/bin/gnu/h-i686-mingw32/bin/../lib/gcc/nios2-elf/4.1.2/../../../../nios2-elf/lib\libc.a(lib_a-lseekr.o)
                              c:/altera/13.0sp1/nios2eds/bin/gnu/h-i686-mingw32/bin/../lib/gcc/nios2-elf/4.1.2/../../../../nios2-elf/lib\libc.a(lib_a-stdio.o) (_lseek_r)
c:/altera/13.0sp1/nios2eds/bin/gnu/h-i686-mingw32/bin/../lib/gcc/nios2-elf/4.1.2/../../../../nios2-elf/lib\libc.a(lib_a-readr.o)
                              c:/altera/13.0sp1/nios2eds/bin/gnu/h-i686-mingw32/bin/../lib/gcc/nios2-elf/4.1.2/../../../../nios2-elf/lib\libc.a(lib_a-stdio.o) (_read_r)
../p5_Temp_bsp/\libhal_bsp.a(alt_exit.o)
                              c:/altera/13.0sp1/nios2eds/bin/gnu/h-i686-mingw32/bin/../lib/gcc/nios2-elf/4.1.2/../../../../nios2-elf/lib\libc.a(lib_a-exit.o) (_exit)
../p5_Temp_bsp/\libhal_bsp.a(alt_fstat.o)
                              c:/altera/13.0sp1/nios2eds/bin/gnu/h-i686-mingw32/bin/../lib/gcc/nios2-elf/4.1.2/../../../../nios2-elf/lib\libc.a(lib_a-fstatr.o) (fstat)
../p5_Temp_bsp/\libhal_bsp.a(alt_isatty.o)
                              c:/altera/13.0sp1/nios2eds/bin/gnu/h-i686-mingw32/bin/../lib/gcc/nios2-elf/4.1.2/../../../../nios2-elf/lib\libc.a(lib_a-isattyr.o) (isatty)
../p5_Temp_bsp/\libhal_bsp.a(alt_lseek.o)
                              c:/altera/13.0sp1/nios2eds/bin/gnu/h-i686-mingw32/bin/../lib/gcc/nios2-elf/4.1.2/../../../../nios2-elf/lib\libc.a(lib_a-lseekr.o) (lseek)
../p5_Temp_bsp/\libhal_bsp.a(alt_malloc_lock.o)
                              c:/altera/13.0sp1/nios2eds/bin/gnu/h-i686-mingw32/bin/../lib/gcc/nios2-elf/4.1.2/../../../../nios2-elf/lib\libc.a(lib_a-freer.o) (__malloc_lock)
../p5_Temp_bsp/\libhal_bsp.a(alt_read.o)
                              c:/altera/13.0sp1/nios2eds/bin/gnu/h-i686-mingw32/bin/../lib/gcc/nios2-elf/4.1.2/../../../../nios2-elf/lib\libc.a(lib_a-readr.o) (read)
../p5_Temp_bsp/\libhal_bsp.a(alt_sbrk.o)
                              c:/altera/13.0sp1/nios2eds/bin/gnu/h-i686-mingw32/bin/../lib/gcc/nios2-elf/4.1.2/../../../../nios2-elf/lib\libc.a(lib_a-sbrkr.o) (sbrk)
../p5_Temp_bsp/\libhal_bsp.a(alt_write.o)
                              c:/altera/13.0sp1/nios2eds/bin/gnu/h-i686-mingw32/bin/../lib/gcc/nios2-elf/4.1.2/../../../../nios2-elf/lib\libc.a(lib_a-writer.o) (write)

Allocating common symbols
Common symbol       size              file

alt_irq             0x100             ../p5_Temp_bsp/\libhal_bsp.a(alt_irq_handler.o)
byte2               0x1               obj/default/globals.o
byte3               0x1               obj/default/globals.o
Play_Index          0x4               obj/default/globals.o
byte1               0x1               obj/default/globals.o
errno               0x4               c:/altera/13.0sp1/nios2eds/bin/gnu/h-i686-mingw32/bin/../lib/gcc/nios2-elf/4.1.2/../../../../nios2-elf/lib\libc.a(lib_a-int_errno.o)
XoverFlow           0x4               obj/default/media_interrupt_HAL.o
MiddleBtn           0x4               obj/default/media_interrupt_HAL.o
local_b2            0x1               obj/default/globals.o
index_Echo          0x4               obj/default/media_interrupt_HAL.o
local_b1            0x1               obj/default/globals.o
up_dev              0x20              obj/default/globals.o
Echo_End            0x4               obj/default/globals.o
Echo_buf_l          0x1e8480          obj/default/globals.o
Echo_complete       0x4               obj/default/globals.o
nibble_TempY        0x4               obj/default/media_interrupt_HAL.o
nibble_TempX        0x4               obj/default/media_interrupt_HAL.o
Average             0xf0              obj/default/media_interrupt_HAL.o
Play_Flag           0x4               obj/default/globals.o
RightBtn            0x4               obj/default/media_interrupt_HAL.o
r_buf               0x1e8480          obj/default/globals.o
Xsign               0x4               obj/default/media_interrupt_HAL.o
Echo_buf_r          0x1e8480          obj/default/globals.o
Clear_Play_Plot     0x4               obj/default/globals.o
End_Record          0x4               obj/default/globals.o
timeout             0x4               obj/default/globals.o
_atexit0            0x190             c:/altera/13.0sp1/nios2eds/bin/gnu/h-i686-mingw32/bin/../lib/gcc/nios2-elf/4.1.2/../../../../nios2-elf/lib\libc.a(lib_a-atexit.o)
count               0x4               obj/default/globals.o
Temp_Sign           0x4               obj/default/media_interrupt_HAL.o
buf_index_play      0x4               obj/default/globals.o
l_buf               0x1e8480          obj/default/globals.o
local_b3            0x1               obj/default/globals.o
LeftBtn             0x4               obj/default/media_interrupt_HAL.o
buf_index_record    0x4               obj/default/globals.o
YoverFlow           0x4               obj/default/media_interrupt_HAL.o
Click_Echo          0x4               obj/default/globals.o
Ysign               0x4               obj/default/media_interrupt_HAL.o

Memory Configuration

Name             Origin             Length             Attributes
reset            0x00000000         0x00000020
SDRAM            0x00000020         0x007fffe0
Flash_flash_data 0x0c000000         0x00400000
*default*        0x00000000         0xffffffff

Linker script and memory map

LOAD ../p5_Temp_bsp//obj/HAL/src/crt0.o
LOAD obj/default/PS2_ISR.o
LOAD obj/default/audio_ISR.o
LOAD obj/default/globals.o
LOAD obj/default/interval_timer_ISR.o
LOAD obj/default/media_interrupt_HAL.o
LOAD obj/default/pushbutton_ISR.o
LOAD c:/altera/13.0sp1/nios2eds/bin/gnu/h-i686-mingw32/bin/../lib/gcc/nios2-elf/4.1.2/../../../../nios2-elf/lib\libstdc++.a
LOAD c:/altera/13.0sp1/nios2eds/bin/gnu/h-i686-mingw32/bin/../lib/gcc/nios2-elf/4.1.2/../../../../nios2-elf/lib\libm.a
LOAD c:/altera/13.0sp1/nios2eds/bin/gnu/h-i686-mingw32/bin/../lib/gcc/nios2-elf/4.1.2\libgcc.a
START GROUP
LOAD c:/altera/13.0sp1/nios2eds/bin/gnu/h-i686-mingw32/bin/../lib/gcc/nios2-elf/4.1.2/../../../../nios2-elf/lib\libc.a
LOAD c:/altera/13.0sp1/nios2eds/bin/gnu/h-i686-mingw32/bin/../lib/gcc/nios2-elf/4.1.2\libgcc.a
LOAD ../p5_Temp_bsp/\libhal_bsp.a
END GROUP
LOAD c:/altera/13.0sp1/nios2eds/bin/gnu/h-i686-mingw32/bin/../lib/gcc/nios2-elf/4.1.2\libgcc.a
                0x00000000                __alt_mem_SDRAM = 0x0
                0x0c000000                __alt_mem_Flash_flash_data = 0xc000000

.entry          0x00000000       0x20
 *(.entry)
 .entry         0x00000000       0x20 ../p5_Temp_bsp//obj/HAL/src/crt0.o
                0x00000000                __reset

.exceptions     0x00000020      0x198
                0x00000020                PROVIDE (__ram_exceptions_start, ABSOLUTE (.))
                0x00000020                . = ALIGN (0x20)
 *(.irq)
 *(.exceptions.entry.label)
 .exceptions.entry.label
                0x00000020        0x0 ../p5_Temp_bsp/\libhal_bsp.a(alt_irq_entry.o)
                0x00000020                alt_irq_entry
 .exceptions.entry.label
                0x00000020        0x0 ../p5_Temp_bsp/\libhal_bsp.a(alt_exception_entry.o)
                0x00000020                alt_exception
 *(.exceptions.entry.user)
 *(.exceptions.entry)
 .exceptions.entry
                0x00000020       0x54 ../p5_Temp_bsp/\libhal_bsp.a(alt_exception_entry.o)
 *(.exceptions.irqtest.user)
 *(.exceptions.irqtest)
 .exceptions.irqtest
                0x00000074       0x10 ../p5_Temp_bsp/\libhal_bsp.a(alt_irq_entry.o)
 *(.exceptions.irqhandler.user)
 *(.exceptions.irqhandler)
 .exceptions.irqhandler
                0x00000084        0x4 ../p5_Temp_bsp/\libhal_bsp.a(alt_irq_entry.o)
 *(.exceptions.irqreturn.user)
 *(.exceptions.irqreturn)
 .exceptions.irqreturn
                0x00000088        0x4 ../p5_Temp_bsp/\libhal_bsp.a(alt_irq_entry.o)
 *(.exceptions.notirq.label)
 .exceptions.notirq.label
                0x0000008c        0x0 ../p5_Temp_bsp/\libhal_bsp.a(alt_irq_entry.o)
 *(.exceptions.notirq.user)
 *(.exceptions.notirq)
 .exceptions.notirq
                0x0000008c        0x8 ../p5_Temp_bsp/\libhal_bsp.a(alt_exception_entry.o)
 *(.exceptions.soft.user)
 *(.exceptions.soft)
 *(.exceptions.unknown.user)
 *(.exceptions.unknown)
 .exceptions.unknown
                0x00000094        0x4 ../p5_Temp_bsp/\libhal_bsp.a(alt_exception_entry.o)
 *(.exceptions.exit.label)
 .exceptions.exit.label
                0x00000098        0x0 ../p5_Temp_bsp/\libhal_bsp.a(alt_irq_entry.o)
 .exceptions.exit.label
                0x00000098        0x0 ../p5_Temp_bsp/\libhal_bsp.a(alt_exception_entry.o)
 *(.exceptions.exit.user)
 *(.exceptions.exit)
 .exceptions.exit
                0x00000098       0x54 ../p5_Temp_bsp/\libhal_bsp.a(alt_exception_entry.o)
 *(.exceptions)
 .exceptions    0x000000ec       0xcc ../p5_Temp_bsp/\libhal_bsp.a(alt_irq_handler.o)
                0x000000ec                alt_irq_handler
                0x000001b8                PROVIDE (__ram_exceptions_end, ABSOLUTE (.))
                0x00000020                PROVIDE (__flash_exceptions_start, LOADADDR (.exceptions))

.text           0x000001b8     0xb494
                0x000001b8                PROVIDE (stext, ABSOLUTE (.))
 *(.interp)
 *(.hash)
 *(.dynsym)
 *(.dynstr)
 *(.gnu.version)
 *(.gnu.version_d)
 *(.gnu.version_r)
 *(.rel.init)
 *(.rela.init)
 *(.rel.text .rel.text.* .rel.gnu.linkonce.t.*)
 *(.rela.text .rela.text.* .rela.gnu.linkonce.t.*)
 *(.rel.fini)
 *(.rela.fini)
 *(.rel.rodata .rel.rodata.* .rel.gnu.linkonce.r.*)
 *(.rela.rodata .rela.rodata.* .rela.gnu.linkonce.r.*)
 *(.rel.data .rel.data.* .rel.gnu.linkonce.d.*)
 *(.rela.data .rela.data.* .rela.gnu.linkonce.d.*)
 *(.rel.tdata .rel.tdata.* .rel.gnu.linkonce.td.*)
 *(.rela.tdata .rela.tdata.* .rela.gnu.linkonce.td.*)
 *(.rel.tbss .rel.tbss.* .rel.gnu.linkonce.tb.*)
 *(.rela.tbss .rela.tbss.* .rela.gnu.linkonce.tb.*)
 *(.rel.ctors)
 *(.rela.ctors)
 *(.rel.dtors)
 *(.rela.dtors)
 *(.rel.got)
 *(.rela.got)
 *(.rel.sdata .rel.sdata.* .rel.gnu.linkonce.s.*)
 *(.rela.sdata .rela.sdata.* .rela.gnu.linkonce.s.*)
 *(.rel.sbss .rel.sbss.* .rel.gnu.linkonce.sb.*)
 *(.rela.sbss .rela.sbss.* .rela.gnu.linkonce.sb.*)
 *(.rel.sdata2 .rel.sdata2.* .rel.gnu.linkonce.s2.*)
 *(.rela.sdata2 .rela.sdata2.* .rela.gnu.linkonce.s2.*)
 *(.rel.sbss2 .rel.sbss2.* .rel.gnu.linkonce.sb2.*)
 *(.rela.sbss2 .rela.sbss2.* .rela.gnu.linkonce.sb2.*)
 *(.rel.bss .rel.bss.* .rel.gnu.linkonce.b.*)
 *(.rela.bss .rela.bss.* .rela.gnu.linkonce.b.*)
 *(.rel.plt)
 *(.rela.plt)
 *(.rel.dyn)
 *(.init)
 *(.plt)
 *(.text .stub .text.* .gnu.linkonce.t.*)
 .text          0x000001b8       0x3c ../p5_Temp_bsp//obj/HAL/src/crt0.o
                0x000001b8                _start
 .text          0x000001f4      0x148 obj/default/PS2_ISR.o
                0x000001f4                PS2_ISR
 .text          0x0000033c      0x438 obj/default/audio_ISR.o
                0x0000033c                audio_ISR
 .text          0x00000774        0x0 obj/default/globals.o
 .text          0x00000774       0x60 obj/default/interval_timer_ISR.o
                0x00000774                interval_timer_ISR
 .text          0x000007d4     0x1cd4 obj/default/media_interrupt_HAL.o
                0x000007d4                main
                0x00001a88                HEXxy_PS2
                0x00001d94                Do_Soft_Echo
                0x00001f38                Plot_AudioRecord
                0x000020c4                Audio_Average
                0x0000239c                Plot_Play_Audio
 .text          0x000024a8       0xb8 obj/default/pushbutton_ISR.o
                0x000024a8                pushbutton_ISR
 .text          0x00002560       0x98 c:/altera/13.0sp1/nios2eds/bin/gnu/h-i686-mingw32/bin/../lib/gcc/nios2-elf/4.1.2\libgcc.a(_muldi3.o)
                0x00002560                __muldi3
 .text          0x000025f8      0x680 c:/altera/13.0sp1/nios2eds/bin/gnu/h-i686-mingw32/bin/../lib/gcc/nios2-elf/4.1.2\libgcc.a(_divdi3.o)
                0x000025f8                __divdi3
 .text          0x00002c78      0x14c c:/altera/13.0sp1/nios2eds/bin/gnu/h-i686-mingw32/bin/../lib/gcc/nios2-elf/4.1.2\libgcc.a(lib2-divmod.o)
                0x00002cf4                __divsi3
                0x00002d54                __modsi3
                0x00002db4                __udivsi3
                0x00002dbc                __umodsi3
 .text          0x00002dc4        0x0 c:/altera/13.0sp1/nios2eds/bin/gnu/h-i686-mingw32/bin/../lib/gcc/nios2-elf/4.1.2\libgcc.a(_clz.o)
 .text          0x00002dc4       0xa0 c:/altera/13.0sp1/nios2eds/bin/gnu/h-i686-mingw32/bin/../lib/gcc/nios2-elf/4.1.2/../../../../nios2-elf/lib\libc.a(lib_a-memcpy.o)
                0x00002dc4                memcpy
 .text          0x00002e64       0x98 c:/altera/13.0sp1/nios2eds/bin/gnu/h-i686-mingw32/bin/../lib/gcc/nios2-elf/4.1.2/../../../../nios2-elf/lib\libc.a(lib_a-memset.o)
                0x00002e64                memset
 .text          0x00002efc      0x1c0 ../p5_Temp_bsp/\libhal_bsp.a(alt_irq_register.o)
                0x00002efc                alt_irq_register
 .text          0x000030bc        0x0 ../p5_Temp_bsp/\libhal_bsp.a(alt_irq_vars.o)
 .text          0x000030bc       0xec ../p5_Temp_bsp/\libhal_bsp.a(alt_load.o)
                0x000030bc                alt_load
 .text          0x000031a8       0x6c ../p5_Temp_bsp/\libhal_bsp.a(alt_main.o)
                0x000031a8                alt_main
 .text          0x00003214      0x258 ../p5_Temp_bsp/\libhal_bsp.a(alt_printf.o)
                0x00003214                alt_printf
 .text          0x0000346c       0x40 ../p5_Temp_bsp/\libhal_bsp.a(alt_putchar.o)
                0x0000346c                alt_putchar
 .text          0x000034ac      0x46c ../p5_Temp_bsp/\libhal_bsp.a(alt_sys_init.o)
                0x000034ac                alt_irq_init
                0x000034e0                alt_sys_init
 .text          0x00003918      0x148 ../p5_Temp_bsp/\libhal_bsp.a(altera_avalon_jtag_uart_fd.o)
                0x00003918                altera_avalon_jtag_uart_read_fd
                0x00003970                altera_avalon_jtag_uart_write_fd
                0x000039c8                altera_avalon_jtag_uart_close_fd
                0x00003a10                altera_avalon_jtag_uart_ioctl_fd
 .text          0x00003a60      0x408 ../p5_Temp_bsp/\libhal_bsp.a(altera_avalon_jtag_uart_init.o)
                0x00003a60                altera_avalon_jtag_uart_init
                0x00003df4                altera_avalon_jtag_uart_close
 .text          0x00003e68       0xf4 ../p5_Temp_bsp/\libhal_bsp.a(altera_avalon_jtag_uart_ioctl.o)
                0x00003e68                altera_avalon_jtag_uart_ioctl
 .text          0x00003f5c      0x224 ../p5_Temp_bsp/\libhal_bsp.a(altera_avalon_jtag_uart_read.o)
                0x00003f5c                altera_avalon_jtag_uart_read
 .text          0x00004180      0x240 ../p5_Temp_bsp/\libhal_bsp.a(altera_avalon_jtag_uart_write.o)
                0x00004180                altera_avalon_jtag_uart_write
 .text          0x000043c0       0xfc ../p5_Temp_bsp/\libhal_bsp.a(altera_avalon_timer_sc.o)
                0x00004434                alt_avalon_timer_sc_init
 .text          0x000044bc      0x80c ../p5_Temp_bsp/\libhal_bsp.a(altera_up_avalon_audio.o)
                0x000044bc                alt_up_audio_open_dev
                0x000044fc                alt_up_audio_enable_read_interrupt
                0x00004548                alt_up_audio_disable_read_interrupt
                0x00004598                alt_up_audio_enable_write_interrupt
                0x000045e4                alt_up_audio_disable_write_interrupt
                0x00004634                alt_up_audio_read_interrupt_pending
                0x00004670                alt_up_audio_write_interrupt_pending
                0x000046ac                alt_up_audio_reset_audio_core
                0x00004734                alt_up_audio_read_fifo_avail
                0x000047a4                alt_up_audio_record_r
                0x00004814                alt_up_audio_record_l
                0x00004884                alt_up_audio_write_fifo_space
                0x000048f8                alt_up_audio_play_r
                0x00004968                alt_up_audio_play_l
                0x000049d8                alt_up_audio_read_fifo
                0x00004adc                alt_up_audio_write_fifo
                0x00004c08                alt_up_audio_read_fifo_head
                0x00004c68                alt_up_audio_write_fifo_head
 .text          0x00004cc8      0x530 ../p5_Temp_bsp/\libhal_bsp.a(altera_up_avalon_character_lcd.o)
                0x00004cc8                get_DDRAM_addr
                0x00004d44                alt_up_character_lcd_send_cmd
                0x00004d78                alt_up_character_lcd_init
                0x00004dac                alt_up_character_lcd_open_dev
                0x00004dec                alt_up_character_lcd_write
                0x00004e64                alt_up_character_lcd_string
                0x00004edc                alt_up_character_lcd_write_fd
                0x00004f28                alt_up_character_lcd_set_cursor_pos
                0x00004fa0                alt_up_character_lcd_shift_cursor
                0x00005050                alt_up_character_lcd_shift_display
                0x00005100                alt_up_character_lcd_erase_pos
                0x00005190                alt_up_character_lcd_cursor_off
                0x000051c4                alt_up_character_lcd_cursor_blink_on
 .text          0x000051f8      0x150 ../p5_Temp_bsp/\libhal_bsp.a(altera_up_avalon_ethernet.o)
                0x000051f8                alt_up_ethernet_init
                0x00005308                alt_up_ethernet_open_dev
 .text          0x00005348      0x238 ../p5_Temp_bsp/\libhal_bsp.a(altera_up_avalon_ethernet_low_level_driver.o)
                0x00005348                alt_up_ethernet_reg_read
                0x00005384                alt_up_ethernet_reg_write
                0x000053c8                alt_up_ethernet_phy_reg_read
                0x000054a8                alt_up_ethernet_phy_reg_write
 .text          0x00005580      0x394 ../p5_Temp_bsp/\libhal_bsp.a(altera_up_avalon_irda.o)
                0x00005580                alt_up_irda_enable_read_interrupt
                0x000055d4                alt_up_irda_disable_read_interrupt
                0x0000562c                alt_up_irda_get_used_space_in_read_FIFO
                0x00005668                alt_up_irda_get_available_space_in_write_FIFO
                0x000056a8                alt_up_irda_check_parity
                0x000056f8                alt_up_irda_write_data
                0x00005740                alt_up_irda_read_data
                0x000057b4                alt_up_irda_read_fd
                0x00005844                alt_up_irda_write_fd
                0x000058d4                alt_up_irda_open_dev
 .text          0x00005914       0x40 ../p5_Temp_bsp/\libhal_bsp.a(altera_up_avalon_parallel_port.o)
                0x00005914                alt_up_parallel_port_open_dev
 .text          0x00005954      0x700 ../p5_Temp_bsp/\libhal_bsp.a(altera_up_avalon_ps2.o)
                0x00005954                read_RI_bit
                0x00005988                read_RE_bit
                0x000059b8                read_CE_bit
                0x000059ec                read_num_bytes_available
                0x00005a20                read_data_valid
                0x00005a54                read_data_byte
                0x00005a80                alt_up_ps2_init
                0x00005b4c                alt_up_ps2_enable_read_interrupt
                0x00005ba0                alt_up_ps2_disable_read_interrupt
                0x00005bf8                alt_up_ps2_write_data_byte
                0x00005c70                alt_up_ps2_wait_for_ack
                0x00005ce0                alt_up_ps2_write_data_byte_with_ack
                0x00005d4c                alt_up_ps2_read_data_byte_timeout
                0x00005dfc                alt_up_ps2_read_data_byte
                0x00005e78                alt_up_ps2_clear_fifo
                0x00005ed0                alt_up_ps2_read_fd
                0x00005f6c                alt_up_ps2_write_fd
                0x00006014                alt_up_ps2_open_dev
 .text          0x00006054      0x398 ../p5_Temp_bsp/\libhal_bsp.a(altera_up_avalon_rs232.o)
                0x00006054                alt_up_rs232_enable_read_interrupt
                0x000060a8                alt_up_rs232_disable_read_interrupt
                0x00006100                alt_up_rs232_get_used_space_in_read_FIFO
                0x0000613c                alt_up_rs232_get_available_space_in_write_FIFO
                0x0000617c                alt_up_rs232_check_parity
                0x000061cc                alt_up_rs232_write_data
                0x00006214                alt_up_rs232_read_data
                0x00006288                alt_up_rs232_read_fd
                0x00006318                alt_up_rs232_write_fd
                0x000063ac                alt_up_rs232_open_dev
 .text          0x000063ec      0x304 ../p5_Temp_bsp/\libhal_bsp.a(altera_up_avalon_video_character_buffer_with_dma.o)
                0x000063ec                alt_up_char_buffer_init
                0x00006470                alt_up_char_buffer_open_dev
                0x000064b0                alt_up_char_buffer_draw
                0x00006580                alt_up_char_buffer_string
                0x00006694                alt_up_char_buffer_clear
 .text          0x000066f0     0x156c ../p5_Temp_bsp/\libhal_bsp.a(altera_up_avalon_video_pixel_buffer_dma.o)
                0x000066f0                alt_up_pixel_buffer_dma_open_dev
                0x00006730                alt_up_pixel_buffer_dma_draw
                0x000068d0                alt_up_pixel_buffer_dma_change_back_buffer_address
                0x00006928                alt_up_pixel_buffer_dma_swap_buffers
                0x00006980                alt_up_pixel_buffer_dma_check_swap_buffers_status
                0x000069b4                alt_up_pixel_buffer_dma_clear_screen
                0x00006b18                alt_up_pixel_buffer_dma_draw_box
                0x0000700c                alt_up_pixel_buffer_dma_draw_hline
                0x0000735c                alt_up_pixel_buffer_dma_draw_vline
                0x0000772c                alt_up_pixel_buffer_dma_draw_rectangle
                0x000077f0                helper_plot_pixel
                0x000078c0                alt_up_pixel_buffer_dma_draw_line
 .text          0x00007c5c      0x154 ../p5_Temp_bsp/\libhal_bsp.a(alt_alarm_start.o)
                0x00007c5c                alt_alarm_start
 .text          0x00007db0      0x15c ../p5_Temp_bsp/\libhal_bsp.a(alt_close.o)
                0x00007db0                close
 .text          0x00007f0c       0x1c ../p5_Temp_bsp/\libhal_bsp.a(alt_dcache_flush_all.o)
                0x00007f0c                alt_dcache_flush_all
 .text          0x00007f28       0x2c ../p5_Temp_bsp/\libhal_bsp.a(alt_dev.o)
 .text          0x00007f54      0x114 ../p5_Temp_bsp/\libhal_bsp.a(alt_dev_llist_insert.o)
                0x00007f54                alt_dev_llist_insert
 .text          0x00008068       0x64 ../p5_Temp_bsp/\libhal_bsp.a(alt_do_ctors.o)
                0x00008068                _do_ctors
 .text          0x000080cc       0x64 ../p5_Temp_bsp/\libhal_bsp.a(alt_do_dtors.o)
                0x000080cc                _do_dtors
 .text          0x00008130        0x0 ../p5_Temp_bsp/\libhal_bsp.a(alt_errno.o)
 .text          0x00008130       0x94 ../p5_Temp_bsp/\libhal_bsp.a(alt_find_dev.o)
                0x00008130                alt_find_dev
 .text          0x000081c4       0x30 ../p5_Temp_bsp/\libhal_bsp.a(alt_icache_flush_all.o)
                0x000081c4                alt_icache_flush_all
 .text          0x000081f4      0x13c ../p5_Temp_bsp/\libhal_bsp.a(alt_io_redirect.o)
                0x000082b8                alt_io_redirect
 .text          0x00008330        0x0 ../p5_Temp_bsp/\libhal_bsp.a(alt_irq_entry.o)
 .text          0x00008330        0x0 ../p5_Temp_bsp/\libhal_bsp.a(alt_irq_handler.o)
 .text          0x00008330      0x2c4 ../p5_Temp_bsp/\libhal_bsp.a(alt_open.o)
                0x0000840c                open
 .text          0x000085f4       0x60 ../p5_Temp_bsp/\libhal_bsp.a(alt_release_fd.o)
                0x000085f4                alt_release_fd
 .text          0x00008654      0x1a4 ../p5_Temp_bsp/\libhal_bsp.a(alt_tick.o)
                0x00008654                alt_alarm_stop
                0x000086ec                alt_tick
 .text          0x000087f8       0x30 ../p5_Temp_bsp/\libhal_bsp.a(alt_usleep.o)
                0x000087f8                usleep
 .text          0x00008828       0x20 ../p5_Temp_bsp/\libhal_bsp.a(altera_nios2_qsys_irq.o)
                0x00008828                altera_nios2_qsys_irq_init
 .text          0x00008848      0x12c ../p5_Temp_bsp/\libhal_bsp.a(alt_busy_sleep.o)
                0x00008848                alt_busy_sleep
 .text          0x00008974        0x0 ../p5_Temp_bsp/\libhal_bsp.a(alt_exception_entry.o)
 .text          0x00008974      0x120 ../p5_Temp_bsp/\libhal_bsp.a(alt_find_file.o)
                0x00008974                alt_find_file
 .text          0x00008a94       0xb8 ../p5_Temp_bsp/\libhal_bsp.a(alt_get_fd.o)
                0x00008a94                alt_get_fd
 .text          0x00008b4c       0x90 ../p5_Temp_bsp/\libhal_bsp.a(alt_icache_flush.o)
                0x00008b4c                alt_icache_flush
 .text          0x00008bdc       0x14 c:/altera/13.0sp1/nios2eds/bin/gnu/h-i686-mingw32/bin/../lib/gcc/nios2-elf/4.1.2/../../../../nios2-elf/lib\libc.a(lib_a-atexit.o)
                0x00008bdc                atexit
 .text          0x00008bf0       0x38 c:/altera/13.0sp1/nios2eds/bin/gnu/h-i686-mingw32/bin/../lib/gcc/nios2-elf/4.1.2/../../../../nios2-elf/lib\libc.a(lib_a-exit.o)
                0x00008bf0                exit
 .text          0x00008c28        0x0 c:/altera/13.0sp1/nios2eds/bin/gnu/h-i686-mingw32/bin/../lib/gcc/nios2-elf/4.1.2/../../../../nios2-elf/lib\libc.a(lib_a-impure.o)
 .text          0x00008c28        0x0 c:/altera/13.0sp1/nios2eds/bin/gnu/h-i686-mingw32/bin/../lib/gcc/nios2-elf/4.1.2/../../../../nios2-elf/lib\libc.a(lib_a-int_errno.o)
 .text          0x00008c28       0x74 c:/altera/13.0sp1/nios2eds/bin/gnu/h-i686-mingw32/bin/../lib/gcc/nios2-elf/4.1.2/../../../../nios2-elf/lib\libc.a(lib_a-memcmp.o)
                0x00008c28                memcmp
 .text          0x00008c9c      0x1ec c:/altera/13.0sp1/nios2eds/bin/gnu/h-i686-mingw32/bin/../lib/gcc/nios2-elf/4.1.2/../../../../nios2-elf/lib\libc.a(lib_a-putc.o)
                0x00008c9c                putc
                0x00008da0                _putc_r
 .text          0x00008e88       0xbc c:/altera/13.0sp1/nios2eds/bin/gnu/h-i686-mingw32/bin/../lib/gcc/nios2-elf/4.1.2/../../../../nios2-elf/lib\libc.a(lib_a-strcmp.o)
                0x00008e88                strcmp
 .text          0x00008f44       0x74 c:/altera/13.0sp1/nios2eds/bin/gnu/h-i686-mingw32/bin/../lib/gcc/nios2-elf/4.1.2/../../../../nios2-elf/lib\libc.a(lib_a-strlen.o)
                0x00008f44                strlen
 .text          0x00008fb8      0x14c c:/altera/13.0sp1/nios2eds/bin/gnu/h-i686-mingw32/bin/../lib/gcc/nios2-elf/4.1.2/../../../../nios2-elf/lib\libc.a(lib_a-wbuf.o)
                0x00008fb8                __swbuf_r
                0x000090e8                __swbuf
 .text          0x00009104      0x13c c:/altera/13.0sp1/nios2eds/bin/gnu/h-i686-mingw32/bin/../lib/gcc/nios2-elf/4.1.2/../../../../nios2-elf/lib\libc.a(lib_a-wsetup.o)
                0x00009104                __swsetup_r
 .text          0x00009240      0x134 c:/altera/13.0sp1/nios2eds/bin/gnu/h-i686-mingw32/bin/../lib/gcc/nios2-elf/4.1.2/../../../../nios2-elf/lib\libc.a(lib_a-__atexit.o)
                0x00009240                __register_exitproc
 .text          0x00009374      0x1b4 c:/altera/13.0sp1/nios2eds/bin/gnu/h-i686-mingw32/bin/../lib/gcc/nios2-elf/4.1.2/../../../../nios2-elf/lib\libc.a(lib_a-__call_atexit.o)
                0x00009378                __call_exitprocs
 .text          0x00009528      0x230 c:/altera/13.0sp1/nios2eds/bin/gnu/h-i686-mingw32/bin/../lib/gcc/nios2-elf/4.1.2/../../../../nios2-elf/lib\libc.a(lib_a-fflush.o)
                0x00009528                _fflush_r
                0x00009724                fflush
 .text          0x00009758      0x2c0 c:/altera/13.0sp1/nios2eds/bin/gnu/h-i686-mingw32/bin/../lib/gcc/nios2-elf/4.1.2/../../../../nios2-elf/lib\libc.a(lib_a-findfp.o)
                0x000097b0                __sfp_lock_acquire
                0x000097b4                __sfp_lock_release
                0x000097b8                __sinit_lock_acquire
                0x000097bc                __sinit_lock_release
                0x000097c0                __sinit
                0x00009874                __fp_unlock_all
                0x0000988c                __fp_lock_all
                0x000098a4                _cleanup_r
                0x000098b0                _cleanup
                0x000098c0                __sfmoreglue
                0x00009928                __sfp
 .text          0x00009a18      0x440 c:/altera/13.0sp1/nios2eds/bin/gnu/h-i686-mingw32/bin/../lib/gcc/nios2-elf/4.1.2/../../../../nios2-elf/lib\libc.a(lib_a-freer.o)
                0x00009a18                _malloc_trim_r
                0x00009b44                _free_r
 .text          0x00009e58      0x180 c:/altera/13.0sp1/nios2eds/bin/gnu/h-i686-mingw32/bin/../lib/gcc/nios2-elf/4.1.2/../../../../nios2-elf/lib\libc.a(lib_a-fwalk.o)
                0x00009e58                _fwalk_reent
                0x00009f20                _fwalk
 .text          0x00009fd8      0x194 c:/altera/13.0sp1/nios2eds/bin/gnu/h-i686-mingw32/bin/../lib/gcc/nios2-elf/4.1.2/../../../../nios2-elf/lib\libc.a(lib_a-makebuf.o)
                0x00009fd8                __smakebuf_r
 .text          0x0000a16c      0x740 c:/altera/13.0sp1/nios2eds/bin/gnu/h-i686-mingw32/bin/../lib/gcc/nios2-elf/4.1.2/../../../../nios2-elf/lib\libc.a(lib_a-mallocr.o)
                0x0000a16c                _malloc_r
 .text          0x0000a8ac       0x70 c:/altera/13.0sp1/nios2eds/bin/gnu/h-i686-mingw32/bin/../lib/gcc/nios2-elf/4.1.2/../../../../nios2-elf/lib\libc.a(lib_a-sbrkr.o)
                0x0000a8ac                _sbrk_r
 .text          0x0000a91c      0x14c c:/altera/13.0sp1/nios2eds/bin/gnu/h-i686-mingw32/bin/../lib/gcc/nios2-elf/4.1.2/../../../../nios2-elf/lib\libc.a(lib_a-stdio.o)
                0x0000a91c                __sclose
                0x0000a924                __sseek
                0x0000a98c                __swrite
                0x0000aa08                __sread
 .text          0x0000aa68       0x78 c:/altera/13.0sp1/nios2eds/bin/gnu/h-i686-mingw32/bin/../lib/gcc/nios2-elf/4.1.2/../../../../nios2-elf/lib\libc.a(lib_a-writer.o)
                0x0000aa68                _write_r
 .text          0x0000aae0       0x70 c:/altera/13.0sp1/nios2eds/bin/gnu/h-i686-mingw32/bin/../lib/gcc/nios2-elf/4.1.2/../../../../nios2-elf/lib\libc.a(lib_a-closer.o)
                0x0000aae0                _close_r
 .text          0x0000ab50      0x124 c:/altera/13.0sp1/nios2eds/bin/gnu/h-i686-mingw32/bin/../lib/gcc/nios2-elf/4.1.2/../../../../nios2-elf/lib\libc.a(lib_a-fclose.o)
                0x0000ab50                _fclose_r
                0x0000ac60                fclose
 .text          0x0000ac74       0x74 c:/altera/13.0sp1/nios2eds/bin/gnu/h-i686-mingw32/bin/../lib/gcc/nios2-elf/4.1.2/../../../../nios2-elf/lib\libc.a(lib_a-fstatr.o)
                0x0000ac74                _fstat_r
 .text          0x0000ace8       0x70 c:/altera/13.0sp1/nios2eds/bin/gnu/h-i686-mingw32/bin/../lib/gcc/nios2-elf/4.1.2/../../../../nios2-elf/lib\libc.a(lib_a-isattyr.o)
                0x0000ace8                _isatty_r
 .text          0x0000ad58       0x78 c:/altera/13.0sp1/nios2eds/bin/gnu/h-i686-mingw32/bin/../lib/gcc/nios2-elf/4.1.2/../../../../nios2-elf/lib\libc.a(lib_a-lseekr.o)
                0x0000ad58                _lseek_r
 .text          0x0000add0       0x78 c:/altera/13.0sp1/nios2eds/bin/gnu/h-i686-mingw32/bin/../lib/gcc/nios2-elf/4.1.2/../../../../nios2-elf/lib\libc.a(lib_a-readr.o)
                0x0000add0                _read_r
 .text          0x0000ae48       0x60 ../p5_Temp_bsp/\libhal_bsp.a(alt_exit.o)
                0x0000ae88                _exit
 .text          0x0000aea8      0x134 ../p5_Temp_bsp/\libhal_bsp.a(alt_fstat.o)
                0x0000aea8                fstat
 .text          0x0000afdc      0x120 ../p5_Temp_bsp/\libhal_bsp.a(alt_isatty.o)
                0x0000afdc                isatty
 .text          0x0000b0fc      0x150 ../p5_Temp_bsp/\libhal_bsp.a(alt_lseek.o)
                0x0000b0fc                lseek
 .text          0x0000b24c       0x40 ../p5_Temp_bsp/\libhal_bsp.a(alt_malloc_lock.o)
                0x0000b24c                __malloc_lock
                0x0000b26c                __malloc_unlock
 .text          0x0000b28c      0x180 ../p5_Temp_bsp/\libhal_bsp.a(alt_read.o)
                0x0000b28c                read
 .text          0x0000b40c       0xbc ../p5_Temp_bsp/\libhal_bsp.a(alt_sbrk.o)
                0x0000b40c                sbrk
 .text          0x0000b4c8      0x180 ../p5_Temp_bsp/\libhal_bsp.a(alt_write.o)
                0x0000b4c8                write
 *(.gnu.warning.*)
 *(.fini)
                0x0000b648                PROVIDE (__etext, ABSOLUTE (.))
                0x0000b648                PROVIDE (_etext, ABSOLUTE (.))
                0x0000b648                PROVIDE (etext, ABSOLUTE (.))
 *(.eh_frame_hdr)
                0x0000b648                . = ALIGN (0x4)
                0x0000b648                PROVIDE (__preinit_array_start, ABSOLUTE (.))
 *(.preinit_array)
                0x0000b648                PROVIDE (__preinit_array_end, ABSOLUTE (.))
                0x0000b648                PROVIDE (__init_array_start, ABSOLUTE (.))
 *(.init_array)
                0x0000b648                PROVIDE (__init_array_end, ABSOLUTE (.))
                0x0000b648                PROVIDE (__fini_array_start, ABSOLUTE (.))
 *(.fini_array)
                0x0000b648                PROVIDE (__fini_array_end, ABSOLUTE (.))
 *(.eh_frame)
 *(.gcc_except_table)
 *(.dynamic)
                0x0000b648                PROVIDE (__CTOR_LIST__, ABSOLUTE (.))
 *(.ctors)
 *(SORT(.ctors.*))
 .ctors.65535   0x0000b648        0x4 c:/altera/13.0sp1/nios2eds/bin/gnu/h-i686-mingw32/bin/../lib/gcc/nios2-elf/4.1.2/../../../../nios2-elf/lib\libc.a(lib_a-__call_atexit.o)
                0x0000b64c                PROVIDE (__CTOR_END__, ABSOLUTE (.))
                0x0000b64c                PROVIDE (__DTOR_LIST__, ABSOLUTE (.))
 *(.dtors)
 *(SORT(.dtors.*))
                0x0000b64c                PROVIDE (__DTOR_END__, ABSOLUTE (.))
 *(.jcr)
                0x0000b64c                . = ALIGN (0x4)

.rodata         0x0000b64c      0x62c
                0x0000b64c                PROVIDE (__ram_rodata_start, ABSOLUTE (.))
                0x0000b64c                . = ALIGN (0x4)
 *(.rodata .rodata.* .gnu.linkonce.r.*)
 .rodata        0x0000b64c      0x374 obj/default/media_interrupt_HAL.o
 .rodata        0x0000b9c0      0x100 c:/altera/13.0sp1/nios2eds/bin/gnu/h-i686-mingw32/bin/../lib/gcc/nios2-elf/4.1.2\libgcc.a(_clz.o)
                0x0000b9c0                __clz_tab
 .rodata        0x0000bac0       0x10 ../p5_Temp_bsp/\libhal_bsp.a(alt_main.o)
 .rodata        0x0000bad0      0x17c ../p5_Temp_bsp/\libhal_bsp.a(alt_sys_init.o)
 .rodata        0x0000bc4c       0x1c ../p5_Temp_bsp/\libhal_bsp.a(altera_up_avalon_video_character_buffer_with_dma.o)
 .rodata        0x0000bc68        0xc ../p5_Temp_bsp/\libhal_bsp.a(alt_dev.o)
 .rodata.str1.4
                0x0000bc74        0x4 c:/altera/13.0sp1/nios2eds/bin/gnu/h-i686-mingw32/bin/../lib/gcc/nios2-elf/4.1.2/../../../../nios2-elf/lib\libc.a(lib_a-impure.o)
 *(.rodata1)
                0x0000bc78                . = ALIGN (0x4)
                0x0000bc78                PROVIDE (__ram_rodata_end, ABSOLUTE (.))
                0x0000b64c                PROVIDE (__flash_rodata_start, LOADADDR (.rodata))

.rwdata         0x0000bc78     0x207c load address 0x0000dcf4
                0x0000bc78                PROVIDE (__ram_rwdata_start, ABSOLUTE (.))
                0x0000bc78                . = ALIGN (0x4)
 *(.got.plt)
 *(.got)
 *(.data1)
 *(.data .data.* .gnu.linkonce.d.*)
 .data          0x0000bc78        0x0 ../p5_Temp_bsp//obj/HAL/src/crt0.o
 .data          0x0000bc78        0x0 obj/default/PS2_ISR.o
 .data          0x0000bc78        0x0 obj/default/audio_ISR.o
 .data          0x0000bc78        0x0 obj/default/globals.o
 .data          0x0000bc78        0x0 obj/default/interval_timer_ISR.o
 .data          0x0000bc78      0x280 obj/default/media_interrupt_HAL.o
                0x0000bc78                coeff
                0x0000bcf8                Mouse_Icon
 .data          0x0000bef8        0x0 obj/default/pushbutton_ISR.o
 .data          0x0000bef8        0x0 c:/altera/13.0sp1/nios2eds/bin/gnu/h-i686-mingw32/bin/../lib/gcc/nios2-elf/4.1.2\libgcc.a(_muldi3.o)
 .data          0x0000bef8        0x0 c:/altera/13.0sp1/nios2eds/bin/gnu/h-i686-mingw32/bin/../lib/gcc/nios2-elf/4.1.2\libgcc.a(_divdi3.o)
 .data          0x0000bef8        0x0 c:/altera/13.0sp1/nios2eds/bin/gnu/h-i686-mingw32/bin/../lib/gcc/nios2-elf/4.1.2\libgcc.a(lib2-divmod.o)
 .data          0x0000bef8        0x0 c:/altera/13.0sp1/nios2eds/bin/gnu/h-i686-mingw32/bin/../lib/gcc/nios2-elf/4.1.2\libgcc.a(_clz.o)
 .data          0x0000bef8        0x0 c:/altera/13.0sp1/nios2eds/bin/gnu/h-i686-mingw32/bin/../lib/gcc/nios2-elf/4.1.2/../../../../nios2-elf/lib\libc.a(lib_a-memcpy.o)
 .data          0x0000bef8        0x0 c:/altera/13.0sp1/nios2eds/bin/gnu/h-i686-mingw32/bin/../lib/gcc/nios2-elf/4.1.2/../../../../nios2-elf/lib\libc.a(lib_a-memset.o)
 .data          0x0000bef8        0x0 ../p5_Temp_bsp/\libhal_bsp.a(alt_irq_register.o)
 .data          0x0000bef8        0x0 ../p5_Temp_bsp/\libhal_bsp.a(alt_irq_vars.o)
 .data          0x0000bef8        0x0 ../p5_Temp_bsp/\libhal_bsp.a(alt_load.o)
 .data          0x0000bef8        0x0 ../p5_Temp_bsp/\libhal_bsp.a(alt_main.o)
 .data          0x0000bef8        0x0 ../p5_Temp_bsp/\libhal_bsp.a(alt_printf.o)
 .data          0x0000bef8        0x0 ../p5_Temp_bsp/\libhal_bsp.a(alt_putchar.o)
 .data          0x0000bef8     0x1414 ../p5_Temp_bsp/\libhal_bsp.a(alt_sys_init.o)
 .data          0x0000d30c        0x0 ../p5_Temp_bsp/\libhal_bsp.a(altera_avalon_jtag_uart_fd.o)
 .data          0x0000d30c        0x0 ../p5_Temp_bsp/\libhal_bsp.a(altera_avalon_jtag_uart_init.o)
 .data          0x0000d30c        0x0 ../p5_Temp_bsp/\libhal_bsp.a(altera_avalon_jtag_uart_ioctl.o)
 .data          0x0000d30c        0x0 ../p5_Temp_bsp/\libhal_bsp.a(altera_avalon_jtag_uart_read.o)
 .data          0x0000d30c        0x0 ../p5_Temp_bsp/\libhal_bsp.a(altera_avalon_jtag_uart_write.o)
 .data          0x0000d30c        0x0 ../p5_Temp_bsp/\libhal_bsp.a(altera_avalon_timer_sc.o)
 .data          0x0000d30c        0x0 ../p5_Temp_bsp/\libhal_bsp.a(altera_up_avalon_audio.o)
 .data          0x0000d30c        0x0 ../p5_Temp_bsp/\libhal_bsp.a(altera_up_avalon_character_lcd.o)
 .data          0x0000d30c        0x0 ../p5_Temp_bsp/\libhal_bsp.a(altera_up_avalon_ethernet.o)
 .data          0x0000d30c        0x0 ../p5_Temp_bsp/\libhal_bsp.a(altera_up_avalon_ethernet_low_level_driver.o)
 .data          0x0000d30c        0x0 ../p5_Temp_bsp/\libhal_bsp.a(altera_up_avalon_irda.o)
 .data          0x0000d30c        0x0 ../p5_Temp_bsp/\libhal_bsp.a(altera_up_avalon_parallel_port.o)
 .data          0x0000d30c        0x0 ../p5_Temp_bsp/\libhal_bsp.a(altera_up_avalon_ps2.o)
 .data          0x0000d30c        0x0 ../p5_Temp_bsp/\libhal_bsp.a(altera_up_avalon_rs232.o)
 .data          0x0000d30c        0x0 ../p5_Temp_bsp/\libhal_bsp.a(altera_up_avalon_video_character_buffer_with_dma.o)
 .data          0x0000d30c        0x0 ../p5_Temp_bsp/\libhal_bsp.a(altera_up_avalon_video_pixel_buffer_dma.o)
 .data          0x0000d30c        0x0 ../p5_Temp_bsp/\libhal_bsp.a(alt_alarm_start.o)
 .data          0x0000d30c        0x0 ../p5_Temp_bsp/\libhal_bsp.a(alt_close.o)
 .data          0x0000d30c        0x0 ../p5_Temp_bsp/\libhal_bsp.a(alt_dcache_flush_all.o)
 .data          0x0000d30c      0x1a8 ../p5_Temp_bsp/\libhal_bsp.a(alt_dev.o)
                0x0000d30c                alt_dev_null
                0x0000d334                alt_fd_list
 .data          0x0000d4b4        0x0 ../p5_Temp_bsp/\libhal_bsp.a(alt_dev_llist_insert.o)
 .data          0x0000d4b4        0x0 ../p5_Temp_bsp/\libhal_bsp.a(alt_do_ctors.o)
 .data          0x0000d4b4        0x0 ../p5_Temp_bsp/\libhal_bsp.a(alt_do_dtors.o)
 .data          0x0000d4b4        0x0 ../p5_Temp_bsp/\libhal_bsp.a(alt_errno.o)
 .data          0x0000d4b4        0x0 ../p5_Temp_bsp/\libhal_bsp.a(alt_find_dev.o)
 .data          0x0000d4b4        0x0 ../p5_Temp_bsp/\libhal_bsp.a(alt_icache_flush_all.o)
 .data          0x0000d4b4        0x0 ../p5_Temp_bsp/\libhal_bsp.a(alt_io_redirect.o)
 .data          0x0000d4b4        0x0 ../p5_Temp_bsp/\libhal_bsp.a(alt_irq_entry.o)
 .data          0x0000d4b4        0x0 ../p5_Temp_bsp/\libhal_bsp.a(alt_irq_handler.o)
 .data          0x0000d4b4        0x0 ../p5_Temp_bsp/\libhal_bsp.a(alt_open.o)
 .data          0x0000d4b4        0x0 ../p5_Temp_bsp/\libhal_bsp.a(alt_release_fd.o)
 .data          0x0000d4b4        0x0 ../p5_Temp_bsp/\libhal_bsp.a(alt_tick.o)
 .data          0x0000d4b4        0x0 ../p5_Temp_bsp/\libhal_bsp.a(alt_usleep.o)
 .data          0x0000d4b4        0x0 ../p5_Temp_bsp/\libhal_bsp.a(altera_nios2_qsys_irq.o)
 .data          0x0000d4b4        0x0 ../p5_Temp_bsp/\libhal_bsp.a(alt_busy_sleep.o)
 .data          0x0000d4b4        0x0 ../p5_Temp_bsp/\libhal_bsp.a(alt_exception_entry.o)
 .data          0x0000d4b4        0x0 ../p5_Temp_bsp/\libhal_bsp.a(alt_find_file.o)
 .data          0x0000d4b4        0x0 ../p5_Temp_bsp/\libhal_bsp.a(alt_get_fd.o)
 .data          0x0000d4b4        0x0 ../p5_Temp_bsp/\libhal_bsp.a(alt_icache_flush.o)
 .data          0x0000d4b4        0x0 c:/altera/13.0sp1/nios2eds/bin/gnu/h-i686-mingw32/bin/../lib/gcc/nios2-elf/4.1.2/../../../../nios2-elf/lib\libc.a(lib_a-atexit.o)
 .data          0x0000d4b4        0x0 c:/altera/13.0sp1/nios2eds/bin/gnu/h-i686-mingw32/bin/../lib/gcc/nios2-elf/4.1.2/../../../../nios2-elf/lib\libc.a(lib_a-exit.o)
 .data          0x0000d4b4      0x400 c:/altera/13.0sp1/nios2eds/bin/gnu/h-i686-mingw32/bin/../lib/gcc/nios2-elf/4.1.2/../../../../nios2-elf/lib\libc.a(lib_a-impure.o)
 .data          0x0000d8b4        0x0 c:/altera/13.0sp1/nios2eds/bin/gnu/h-i686-mingw32/bin/../lib/gcc/nios2-elf/4.1.2/../../../../nios2-elf/lib\libc.a(lib_a-int_errno.o)
 .data          0x0000d8b4        0x0 c:/altera/13.0sp1/nios2eds/bin/gnu/h-i686-mingw32/bin/../lib/gcc/nios2-elf/4.1.2/../../../../nios2-elf/lib\libc.a(lib_a-memcmp.o)
 .data          0x0000d8b4        0x0 c:/altera/13.0sp1/nios2eds/bin/gnu/h-i686-mingw32/bin/../lib/gcc/nios2-elf/4.1.2/../../../../nios2-elf/lib\libc.a(lib_a-putc.o)
 .data          0x0000d8b4        0x0 c:/altera/13.0sp1/nios2eds/bin/gnu/h-i686-mingw32/bin/../lib/gcc/nios2-elf/4.1.2/../../../../nios2-elf/lib\libc.a(lib_a-strcmp.o)
 .data          0x0000d8b4        0x0 c:/altera/13.0sp1/nios2eds/bin/gnu/h-i686-mingw32/bin/../lib/gcc/nios2-elf/4.1.2/../../../../nios2-elf/lib\libc.a(lib_a-strlen.o)
 .data          0x0000d8b4        0x0 c:/altera/13.0sp1/nios2eds/bin/gnu/h-i686-mingw32/bin/../lib/gcc/nios2-elf/4.1.2/../../../../nios2-elf/lib\libc.a(lib_a-wbuf.o)
 .data          0x0000d8b4        0x0 c:/altera/13.0sp1/nios2eds/bin/gnu/h-i686-mingw32/bin/../lib/gcc/nios2-elf/4.1.2/../../../../nios2-elf/lib\libc.a(lib_a-wsetup.o)
 .data          0x0000d8b4        0x0 c:/altera/13.0sp1/nios2eds/bin/gnu/h-i686-mingw32/bin/../lib/gcc/nios2-elf/4.1.2/../../../../nios2-elf/lib\libc.a(lib_a-__atexit.o)
 .data          0x0000d8b4        0x0 c:/altera/13.0sp1/nios2eds/bin/gnu/h-i686-mingw32/bin/../lib/gcc/nios2-elf/4.1.2/../../../../nios2-elf/lib\libc.a(lib_a-__call_atexit.o)
 .data          0x0000d8b4        0x0 c:/altera/13.0sp1/nios2eds/bin/gnu/h-i686-mingw32/bin/../lib/gcc/nios2-elf/4.1.2/../../../../nios2-elf/lib\libc.a(lib_a-fflush.o)
 .data          0x0000d8b4        0x0 c:/altera/13.0sp1/nios2eds/bin/gnu/h-i686-mingw32/bin/../lib/gcc/nios2-elf/4.1.2/../../../../nios2-elf/lib\libc.a(lib_a-findfp.o)
 .data          0x0000d8b4        0x0 c:/altera/13.0sp1/nios2eds/bin/gnu/h-i686-mingw32/bin/../lib/gcc/nios2-elf/4.1.2/../../../../nios2-elf/lib\libc.a(lib_a-freer.o)
 .data          0x0000d8b4        0x0 c:/altera/13.0sp1/nios2eds/bin/gnu/h-i686-mingw32/bin/../lib/gcc/nios2-elf/4.1.2/../../../../nios2-elf/lib\libc.a(lib_a-fwalk.o)
 .data          0x0000d8b4        0x0 c:/altera/13.0sp1/nios2eds/bin/gnu/h-i686-mingw32/bin/../lib/gcc/nios2-elf/4.1.2/../../../../nios2-elf/lib\libc.a(lib_a-makebuf.o)
 .data          0x0000d8b4      0x408 c:/altera/13.0sp1/nios2eds/bin/gnu/h-i686-mingw32/bin/../lib/gcc/nios2-elf/4.1.2/../../../../nios2-elf/lib\libc.a(lib_a-mallocr.o)
                0x0000d8b4                __malloc_av_
 .data          0x0000dcbc        0x0 c:/altera/13.0sp1/nios2eds/bin/gnu/h-i686-mingw32/bin/../lib/gcc/nios2-elf/4.1.2/../../../../nios2-elf/lib\libc.a(lib_a-sbrkr.o)
 .data          0x0000dcbc        0x0 c:/altera/13.0sp1/nios2eds/bin/gnu/h-i686-mingw32/bin/../lib/gcc/nios2-elf/4.1.2/../../../../nios2-elf/lib\libc.a(lib_a-stdio.o)
 .data          0x0000dcbc        0x0 c:/altera/13.0sp1/nios2eds/bin/gnu/h-i686-mingw32/bin/../lib/gcc/nios2-elf/4.1.2/../../../../nios2-elf/lib\libc.a(lib_a-writer.o)
 .data          0x0000dcbc        0x0 c:/altera/13.0sp1/nios2eds/bin/gnu/h-i686-mingw32/bin/../lib/gcc/nios2-elf/4.1.2/../../../../nios2-elf/lib\libc.a(lib_a-closer.o)
 .data          0x0000dcbc        0x0 c:/altera/13.0sp1/nios2eds/bin/gnu/h-i686-mingw32/bin/../lib/gcc/nios2-elf/4.1.2/../../../../nios2-elf/lib\libc.a(lib_a-fclose.o)
 .data          0x0000dcbc        0x0 c:/altera/13.0sp1/nios2eds/bin/gnu/h-i686-mingw32/bin/../lib/gcc/nios2-elf/4.1.2/../../../../nios2-elf/lib\libc.a(lib_a-fstatr.o)
 .data          0x0000dcbc        0x0 c:/altera/13.0sp1/nios2eds/bin/gnu/h-i686-mingw32/bin/../lib/gcc/nios2-elf/4.1.2/../../../../nios2-elf/lib\libc.a(lib_a-isattyr.o)
 .data          0x0000dcbc        0x0 c:/altera/13.0sp1/nios2eds/bin/gnu/h-i686-mingw32/bin/../lib/gcc/nios2-elf/4.1.2/../../../../nios2-elf/lib\libc.a(lib_a-lseekr.o)
 .data          0x0000dcbc        0x0 c:/altera/13.0sp1/nios2eds/bin/gnu/h-i686-mingw32/bin/../lib/gcc/nios2-elf/4.1.2/../../../../nios2-elf/lib\libc.a(lib_a-readr.o)
 .data          0x0000dcbc        0x0 ../p5_Temp_bsp/\libhal_bsp.a(alt_exit.o)
 .data          0x0000dcbc        0x0 ../p5_Temp_bsp/\libhal_bsp.a(alt_fstat.o)
 .data          0x0000dcbc        0x0 ../p5_Temp_bsp/\libhal_bsp.a(alt_isatty.o)
 .data          0x0000dcbc        0x0 ../p5_Temp_bsp/\libhal_bsp.a(alt_lseek.o)
 .data          0x0000dcbc        0x0 ../p5_Temp_bsp/\libhal_bsp.a(alt_malloc_lock.o)
 .data          0x0000dcbc        0x0 ../p5_Temp_bsp/\libhal_bsp.a(alt_read.o)
 .data          0x0000dcbc        0x0 ../p5_Temp_bsp/\libhal_bsp.a(alt_sbrk.o)
 .data          0x0000dcbc        0x0 ../p5_Temp_bsp/\libhal_bsp.a(alt_write.o)
                0x00015cbc                _gp = ABSOLUTE ((. + 0x8000))
                0x00015cbc                PROVIDE (gp, _gp)
 *(.rwdata .rwdata.*)
 *(.sdata .sdata.* .gnu.linkonce.s.*)
 .sdata         0x0000dcbc        0x4 ../p5_Temp_bsp/\libhal_bsp.a(alt_irq_vars.o)
                0x0000dcbc                alt_priority_mask
 .sdata         0x0000dcc0       0x14 ../p5_Temp_bsp/\libhal_bsp.a(alt_dev.o)
                0x0000dcc0                alt_fs_list
                0x0000dcc8                alt_dev_list
                0x0000dcd0                alt_max_fd
 .sdata         0x0000dcd4        0x4 ../p5_Temp_bsp/\libhal_bsp.a(alt_errno.o)
                0x0000dcd4                alt_errno
 .sdata         0x0000dcd8        0x8 ../p5_Temp_bsp/\libhal_bsp.a(alt_tick.o)
                0x0000dcd8                alt_alarm_list
 .sdata         0x0000dce0        0x8 c:/altera/13.0sp1/nios2eds/bin/gnu/h-i686-mingw32/bin/../lib/gcc/nios2-elf/4.1.2/../../../../nios2-elf/lib\libc.a(lib_a-impure.o)
                0x0000dce0                _impure_ptr
                0x0000dce4                _global_impure_ptr
 .sdata         0x0000dce8        0x8 c:/altera/13.0sp1/nios2eds/bin/gnu/h-i686-mingw32/bin/../lib/gcc/nios2-elf/4.1.2/../../../../nios2-elf/lib\libc.a(lib_a-mallocr.o)
                0x0000dce8                __malloc_trim_threshold
                0x0000dcec                __malloc_sbrk_base
 .sdata         0x0000dcf0        0x4 ../p5_Temp_bsp/\libhal_bsp.a(alt_sbrk.o)
 *(.sdata2 .sdata2.* .gnu.linkonce.s2.*)
                0x0000dcf4                . = ALIGN (0x4)
                0x0000dcf4                _edata = ABSOLUTE (.)
                0x0000dcf4                PROVIDE (edata, ABSOLUTE (.))
                0x0000dcf4                PROVIDE (__ram_rwdata_end, ABSOLUTE (.))
                0x0000dcf4                PROVIDE (__flash_rwdata_start, LOADADDR (.rwdata))

.bss            0x0000fd70   0x7a1664
                0x0000fd70                __bss_start = ABSOLUTE (.)
                0x0000fd70                PROVIDE (__sbss_start, ABSOLUTE (.))
                0x0000fd70                PROVIDE (___sbss_start, ABSOLUTE (.))
 *(.dynsbss)
 *(.sbss .sbss.* .gnu.linkonce.sb.*)
 .sbss          0x0000fd70       0x38 obj/default/globals.o
                0x0000fd70                byte2
                0x0000fd71                byte3
                0x0000fd74                Play_Index
                0x0000fd78                byte1
                0x0000fd79                local_b2
                0x0000fd7a                local_b1
                0x0000fd7c                Echo_End
                0x0000fd80                Echo_complete
                0x0000fd84                Play_Flag
                0x0000fd88                Clear_Play_Plot
                0x0000fd8c                End_Record
                0x0000fd90                timeout
                0x0000fd94                count
                0x0000fd98                buf_index_play
                0x0000fd9c                local_b3
                0x0000fda0                buf_index_record
                0x0000fda4                Click_Echo
 .sbss          0x0000fda8       0x3c obj/default/media_interrupt_HAL.o
                0x0000fda8                Echo
                0x0000fdac                anita0
                0x0000fdb0                anita1
                0x0000fdb4                anita2
                0x0000fdb8                XoverFlow
                0x0000fdbc                MiddleBtn
                0x0000fdc0                index_Echo
                0x0000fdc4                nibble_TempY
                0x0000fdc8                nibble_TempX
                0x0000fdcc                RightBtn
                0x0000fdd0                Xsign
                0x0000fdd4                Temp_Sign
                0x0000fdd8                LeftBtn
                0x0000fddc                YoverFlow
                0x0000fde0                Ysign
 .sbss          0x0000fde4        0x4 ../p5_Temp_bsp/\libhal_bsp.a(alt_irq_vars.o)
                0x0000fde4                alt_irq_active
 .sbss          0x0000fde8        0xc ../p5_Temp_bsp/\libhal_bsp.a(alt_main.o)
                0x0000fde8                alt_argc
                0x0000fdec                alt_argv
                0x0000fdf0                alt_envp
 .sbss          0x0000fdf4        0x8 ../p5_Temp_bsp/\libhal_bsp.a(alt_tick.o)
                0x0000fdf4                _alt_tick_rate
                0x0000fdf8                _alt_nticks
 .sbss          0x0000fdfc        0x4 c:/altera/13.0sp1/nios2eds/bin/gnu/h-i686-mingw32/bin/../lib/gcc/nios2-elf/4.1.2/../../../../nios2-elf/lib\libc.a(lib_a-int_errno.o)
                0x0000fdfc                errno
 .sbss          0x0000fe00        0xc c:/altera/13.0sp1/nios2eds/bin/gnu/h-i686-mingw32/bin/../lib/gcc/nios2-elf/4.1.2/../../../../nios2-elf/lib\libc.a(lib_a-mallocr.o)
                0x0000fe00                __malloc_top_pad
                0x0000fe04                __malloc_max_sbrked_mem
                0x0000fe08                __malloc_max_total_mem
 *(.sbss2 .sbss2.* .gnu.linkonce.sb2.*)
 *(.scommon)
                0x0000fe0c                PROVIDE (__sbss_end, ABSOLUTE (.))
                0x0000fe0c                PROVIDE (___sbss_end, ABSOLUTE (.))
 *(.dynbss)
 *(.bss .bss.* .gnu.linkonce.b.*)
 .bss           0x0000fe0c        0x0 ../p5_Temp_bsp//obj/HAL/src/crt0.o
 .bss           0x0000fe0c        0x0 obj/default/PS2_ISR.o
 .bss           0x0000fe0c        0x0 obj/default/audio_ISR.o
 .bss           0x0000fe0c        0x0 obj/default/globals.o
 .bss           0x0000fe0c        0x0 obj/default/interval_timer_ISR.o
 .bss           0x0000fe0c        0x0 obj/default/media_interrupt_HAL.o
 .bss           0x0000fe0c        0x0 obj/default/pushbutton_ISR.o
 .bss           0x0000fe0c        0x0 c:/altera/13.0sp1/nios2eds/bin/gnu/h-i686-mingw32/bin/../lib/gcc/nios2-elf/4.1.2\libgcc.a(_muldi3.o)
 .bss           0x0000fe0c        0x0 c:/altera/13.0sp1/nios2eds/bin/gnu/h-i686-mingw32/bin/../lib/gcc/nios2-elf/4.1.2\libgcc.a(_divdi3.o)
 .bss           0x0000fe0c        0x0 c:/altera/13.0sp1/nios2eds/bin/gnu/h-i686-mingw32/bin/../lib/gcc/nios2-elf/4.1.2\libgcc.a(lib2-divmod.o)
 .bss           0x0000fe0c        0x0 c:/altera/13.0sp1/nios2eds/bin/gnu/h-i686-mingw32/bin/../lib/gcc/nios2-elf/4.1.2\libgcc.a(_clz.o)
 .bss           0x0000fe0c        0x0 c:/altera/13.0sp1/nios2eds/bin/gnu/h-i686-mingw32/bin/../lib/gcc/nios2-elf/4.1.2/../../../../nios2-elf/lib\libc.a(lib_a-memcpy.o)
 .bss           0x0000fe0c        0x0 c:/altera/13.0sp1/nios2eds/bin/gnu/h-i686-mingw32/bin/../lib/gcc/nios2-elf/4.1.2/../../../../nios2-elf/lib\libc.a(lib_a-memset.o)
 .bss           0x0000fe0c        0x0 ../p5_Temp_bsp/\libhal_bsp.a(alt_irq_register.o)
 .bss           0x0000fe0c        0x0 ../p5_Temp_bsp/\libhal_bsp.a(alt_irq_vars.o)
 .bss           0x0000fe0c        0x0 ../p5_Temp_bsp/\libhal_bsp.a(alt_load.o)
 .bss           0x0000fe0c        0x0 ../p5_Temp_bsp/\libhal_bsp.a(alt_main.o)
 .bss           0x0000fe0c        0x0 ../p5_Temp_bsp/\libhal_bsp.a(alt_printf.o)
 .bss           0x0000fe0c        0x0 ../p5_Temp_bsp/\libhal_bsp.a(alt_putchar.o)
 .bss           0x0000fe0c        0x0 ../p5_Temp_bsp/\libhal_bsp.a(alt_sys_init.o)
 .bss           0x0000fe0c        0x0 ../p5_Temp_bsp/\libhal_bsp.a(altera_avalon_jtag_uart_fd.o)
 .bss           0x0000fe0c        0x0 ../p5_Temp_bsp/\libhal_bsp.a(altera_avalon_jtag_uart_init.o)
 .bss           0x0000fe0c        0x0 ../p5_Temp_bsp/\libhal_bsp.a(altera_avalon_jtag_uart_ioctl.o)
 .bss           0x0000fe0c        0x0 ../p5_Temp_bsp/\libhal_bsp.a(altera_avalon_jtag_uart_read.o)
 .bss           0x0000fe0c        0x0 ../p5_Temp_bsp/\libhal_bsp.a(altera_avalon_jtag_uart_write.o)
 .bss           0x0000fe0c        0x0 ../p5_Temp_bsp/\libhal_bsp.a(altera_avalon_timer_sc.o)
 .bss           0x0000fe0c        0x0 ../p5_Temp_bsp/\libhal_bsp.a(altera_up_avalon_audio.o)
 .bss           0x0000fe0c        0x0 ../p5_Temp_bsp/\libhal_bsp.a(altera_up_avalon_character_lcd.o)
 .bss           0x0000fe0c        0x0 ../p5_Temp_bsp/\libhal_bsp.a(altera_up_avalon_ethernet.o)
 .bss           0x0000fe0c        0x0 ../p5_Temp_bsp/\libhal_bsp.a(altera_up_avalon_ethernet_low_level_driver.o)
 .bss           0x0000fe0c        0x0 ../p5_Temp_bsp/\libhal_bsp.a(altera_up_avalon_irda.o)
 .bss           0x0000fe0c        0x0 ../p5_Temp_bsp/\libhal_bsp.a(altera_up_avalon_parallel_port.o)
 .bss           0x0000fe0c        0x0 ../p5_Temp_bsp/\libhal_bsp.a(altera_up_avalon_ps2.o)
 .bss           0x0000fe0c        0x0 ../p5_Temp_bsp/\libhal_bsp.a(altera_up_avalon_rs232.o)
 .bss           0x0000fe0c        0x0 ../p5_Temp_bsp/\libhal_bsp.a(altera_up_avalon_video_character_buffer_with_dma.o)
 .bss           0x0000fe0c        0x0 ../p5_Temp_bsp/\libhal_bsp.a(altera_up_avalon_video_pixel_buffer_dma.o)
 .bss           0x0000fe0c        0x0 ../p5_Temp_bsp/\libhal_bsp.a(alt_alarm_start.o)
 .bss           0x0000fe0c        0x0 ../p5_Temp_bsp/\libhal_bsp.a(alt_close.o)
 .bss           0x0000fe0c        0x0 ../p5_Temp_bsp/\libhal_bsp.a(alt_dcache_flush_all.o)
 .bss           0x0000fe0c        0x0 ../p5_Temp_bsp/\libhal_bsp.a(alt_dev.o)
 .bss           0x0000fe0c        0x0 ../p5_Temp_bsp/\libhal_bsp.a(alt_dev_llist_insert.o)
 .bss           0x0000fe0c        0x0 ../p5_Temp_bsp/\libhal_bsp.a(alt_do_ctors.o)
 .bss           0x0000fe0c        0x0 ../p5_Temp_bsp/\libhal_bsp.a(alt_do_dtors.o)
 .bss           0x0000fe0c        0x0 ../p5_Temp_bsp/\libhal_bsp.a(alt_errno.o)
 .bss           0x0000fe0c        0x0 ../p5_Temp_bsp/\libhal_bsp.a(alt_find_dev.o)
 .bss           0x0000fe0c        0x0 ../p5_Temp_bsp/\libhal_bsp.a(alt_icache_flush_all.o)
 .bss           0x0000fe0c        0x0 ../p5_Temp_bsp/\libhal_bsp.a(alt_io_redirect.o)
 .bss           0x0000fe0c        0x0 ../p5_Temp_bsp/\libhal_bsp.a(alt_irq_entry.o)
 .bss           0x0000fe0c        0x0 ../p5_Temp_bsp/\libhal_bsp.a(alt_irq_handler.o)
 .bss           0x0000fe0c        0x0 ../p5_Temp_bsp/\libhal_bsp.a(alt_open.o)
 .bss           0x0000fe0c        0x0 ../p5_Temp_bsp/\libhal_bsp.a(alt_release_fd.o)
 .bss           0x0000fe0c        0x0 ../p5_Temp_bsp/\libhal_bsp.a(alt_tick.o)
 .bss           0x0000fe0c        0x0 ../p5_Temp_bsp/\libhal_bsp.a(alt_usleep.o)
 .bss           0x0000fe0c        0x0 ../p5_Temp_bsp/\libhal_bsp.a(altera_nios2_qsys_irq.o)
 .bss           0x0000fe0c        0x0 ../p5_Temp_bsp/\libhal_bsp.a(alt_busy_sleep.o)
 .bss           0x0000fe0c        0x0 ../p5_Temp_bsp/\libhal_bsp.a(alt_exception_entry.o)
 .bss           0x0000fe0c        0x0 ../p5_Temp_bsp/\libhal_bsp.a(alt_find_file.o)
 .bss           0x0000fe0c        0x0 ../p5_Temp_bsp/\libhal_bsp.a(alt_get_fd.o)
 .bss           0x0000fe0c        0x0 ../p5_Temp_bsp/\libhal_bsp.a(alt_icache_flush.o)
 .bss           0x0000fe0c        0x0 c:/altera/13.0sp1/nios2eds/bin/gnu/h-i686-mingw32/bin/../lib/gcc/nios2-elf/4.1.2/../../../../nios2-elf/lib\libc.a(lib_a-atexit.o)
 .bss           0x0000fe0c        0x0 c:/altera/13.0sp1/nios2eds/bin/gnu/h-i686-mingw32/bin/../lib/gcc/nios2-elf/4.1.2/../../../../nios2-elf/lib\libc.a(lib_a-exit.o)
 .bss           0x0000fe0c        0x0 c:/altera/13.0sp1/nios2eds/bin/gnu/h-i686-mingw32/bin/../lib/gcc/nios2-elf/4.1.2/../../../../nios2-elf/lib\libc.a(lib_a-impure.o)
 .bss           0x0000fe0c        0x0 c:/altera/13.0sp1/nios2eds/bin/gnu/h-i686-mingw32/bin/../lib/gcc/nios2-elf/4.1.2/../../../../nios2-elf/lib\libc.a(lib_a-int_errno.o)
 .bss           0x0000fe0c        0x0 c:/altera/13.0sp1/nios2eds/bin/gnu/h-i686-mingw32/bin/../lib/gcc/nios2-elf/4.1.2/../../../../nios2-elf/lib\libc.a(lib_a-memcmp.o)
 .bss           0x0000fe0c        0x0 c:/altera/13.0sp1/nios2eds/bin/gnu/h-i686-mingw32/bin/../lib/gcc/nios2-elf/4.1.2/../../../../nios2-elf/lib\libc.a(lib_a-putc.o)
 .bss           0x0000fe0c        0x0 c:/altera/13.0sp1/nios2eds/bin/gnu/h-i686-mingw32/bin/../lib/gcc/nios2-elf/4.1.2/../../../../nios2-elf/lib\libc.a(lib_a-strcmp.o)
 .bss           0x0000fe0c        0x0 c:/altera/13.0sp1/nios2eds/bin/gnu/h-i686-mingw32/bin/../lib/gcc/nios2-elf/4.1.2/../../../../nios2-elf/lib\libc.a(lib_a-strlen.o)
 .bss           0x0000fe0c        0x0 c:/altera/13.0sp1/nios2eds/bin/gnu/h-i686-mingw32/bin/../lib/gcc/nios2-elf/4.1.2/../../../../nios2-elf/lib\libc.a(lib_a-wbuf.o)
 .bss           0x0000fe0c        0x0 c:/altera/13.0sp1/nios2eds/bin/gnu/h-i686-mingw32/bin/../lib/gcc/nios2-elf/4.1.2/../../../../nios2-elf/lib\libc.a(lib_a-wsetup.o)
 .bss           0x0000fe0c        0x0 c:/altera/13.0sp1/nios2eds/bin/gnu/h-i686-mingw32/bin/../lib/gcc/nios2-elf/4.1.2/../../../../nios2-elf/lib\libc.a(lib_a-__atexit.o)
 .bss           0x0000fe0c        0x0 c:/altera/13.0sp1/nios2eds/bin/gnu/h-i686-mingw32/bin/../lib/gcc/nios2-elf/4.1.2/../../../../nios2-elf/lib\libc.a(lib_a-__call_atexit.o)
 .bss           0x0000fe0c        0x0 c:/altera/13.0sp1/nios2eds/bin/gnu/h-i686-mingw32/bin/../lib/gcc/nios2-elf/4.1.2/../../../../nios2-elf/lib\libc.a(lib_a-fflush.o)
 .bss           0x0000fe0c        0x0 c:/altera/13.0sp1/nios2eds/bin/gnu/h-i686-mingw32/bin/../lib/gcc/nios2-elf/4.1.2/../../../../nios2-elf/lib\libc.a(lib_a-findfp.o)
 .bss           0x0000fe0c        0x0 c:/altera/13.0sp1/nios2eds/bin/gnu/h-i686-mingw32/bin/../lib/gcc/nios2-elf/4.1.2/../../../../nios2-elf/lib\libc.a(lib_a-freer.o)
 .bss           0x0000fe0c        0x0 c:/altera/13.0sp1/nios2eds/bin/gnu/h-i686-mingw32/bin/../lib/gcc/nios2-elf/4.1.2/../../../../nios2-elf/lib\libc.a(lib_a-fwalk.o)
 .bss           0x0000fe0c        0x0 c:/altera/13.0sp1/nios2eds/bin/gnu/h-i686-mingw32/bin/../lib/gcc/nios2-elf/4.1.2/../../../../nios2-elf/lib\libc.a(lib_a-makebuf.o)
 .bss           0x0000fe0c       0x28 c:/altera/13.0sp1/nios2eds/bin/gnu/h-i686-mingw32/bin/../lib/gcc/nios2-elf/4.1.2/../../../../nios2-elf/lib\libc.a(lib_a-mallocr.o)
                0x0000fe0c                __malloc_current_mallinfo
 .bss           0x0000fe34        0x0 c:/altera/13.0sp1/nios2eds/bin/gnu/h-i686-mingw32/bin/../lib/gcc/nios2-elf/4.1.2/../../../../nios2-elf/lib\libc.a(lib_a-sbrkr.o)
 .bss           0x0000fe34        0x0 c:/altera/13.0sp1/nios2eds/bin/gnu/h-i686-mingw32/bin/../lib/gcc/nios2-elf/4.1.2/../../../../nios2-elf/lib\libc.a(lib_a-stdio.o)
 .bss           0x0000fe34        0x0 c:/altera/13.0sp1/nios2eds/bin/gnu/h-i686-mingw32/bin/../lib/gcc/nios2-elf/4.1.2/../../../../nios2-elf/lib\libc.a(lib_a-writer.o)
 .bss           0x0000fe34        0x0 c:/altera/13.0sp1/nios2eds/bin/gnu/h-i686-mingw32/bin/../lib/gcc/nios2-elf/4.1.2/../../../../nios2-elf/lib\libc.a(lib_a-closer.o)
 .bss           0x0000fe34        0x0 c:/altera/13.0sp1/nios2eds/bin/gnu/h-i686-mingw32/bin/../lib/gcc/nios2-elf/4.1.2/../../../../nios2-elf/lib\libc.a(lib_a-fclose.o)
 .bss           0x0000fe34        0x0 c:/altera/13.0sp1/nios2eds/bin/gnu/h-i686-mingw32/bin/../lib/gcc/nios2-elf/4.1.2/../../../../nios2-elf/lib\libc.a(lib_a-fstatr.o)
 .bss           0x0000fe34        0x0 c:/altera/13.0sp1/nios2eds/bin/gnu/h-i686-mingw32/bin/../lib/gcc/nios2-elf/4.1.2/../../../../nios2-elf/lib\libc.a(lib_a-isattyr.o)
 .bss           0x0000fe34        0x0 c:/altera/13.0sp1/nios2eds/bin/gnu/h-i686-mingw32/bin/../lib/gcc/nios2-elf/4.1.2/../../../../nios2-elf/lib\libc.a(lib_a-lseekr.o)
 .bss           0x0000fe34        0x0 c:/altera/13.0sp1/nios2eds/bin/gnu/h-i686-mingw32/bin/../lib/gcc/nios2-elf/4.1.2/../../../../nios2-elf/lib\libc.a(lib_a-readr.o)
 .bss           0x0000fe34        0x0 ../p5_Temp_bsp/\libhal_bsp.a(alt_exit.o)
 .bss           0x0000fe34        0x0 ../p5_Temp_bsp/\libhal_bsp.a(alt_fstat.o)
 .bss           0x0000fe34        0x0 ../p5_Temp_bsp/\libhal_bsp.a(alt_isatty.o)
 .bss           0x0000fe34        0x0 ../p5_Temp_bsp/\libhal_bsp.a(alt_lseek.o)
 .bss           0x0000fe34        0x0 ../p5_Temp_bsp/\libhal_bsp.a(alt_malloc_lock.o)
 .bss           0x0000fe34        0x0 ../p5_Temp_bsp/\libhal_bsp.a(alt_read.o)
 .bss           0x0000fe34        0x0 ../p5_Temp_bsp/\libhal_bsp.a(alt_sbrk.o)
 .bss           0x0000fe34        0x0 ../p5_Temp_bsp/\libhal_bsp.a(alt_write.o)
 *(COMMON)
 COMMON         0x0000fe34   0x7a1220 obj/default/globals.o
                0x0000fe34                up_dev
                0x0000fe54                Echo_buf_l
                0x001f82d4                r_buf
                0x003e0754                Echo_buf_r
                0x005c8bd4                l_buf
 COMMON         0x007b1054       0xf0 obj/default/media_interrupt_HAL.o
                0x007b1054                Average
 COMMON         0x007b1144      0x100 ../p5_Temp_bsp/\libhal_bsp.a(alt_irq_handler.o)
                0x007b1144                alt_irq
 COMMON         0x007b1244      0x190 c:/altera/13.0sp1/nios2eds/bin/gnu/h-i686-mingw32/bin/../lib/gcc/nios2-elf/4.1.2/../../../../nios2-elf/lib\libc.a(lib_a-atexit.o)
                0x007b1244                _atexit0
                0x007b13d4                . = ALIGN (0x4)
                0x007b13d4                __bss_end = ABSOLUTE (.)

.SDRAM          0x007b13d4        0x0
                0x007b13d4                PROVIDE (_alt_partition_SDRAM_start, ABSOLUTE (.))
 *(.SDRAM. SDRAM.*)
                0x007b13d4                . = ALIGN (0x4)
                0x007b13d4                PROVIDE (_alt_partition_SDRAM_end, ABSOLUTE (.))
                0x007b13d4                _end = ABSOLUTE (.)
                0x007b13d4                end = ABSOLUTE (.)
                0x007b13d4                __alt_stack_base = ABSOLUTE (.)
                0x007b13d4                PROVIDE (_alt_partition_SDRAM_load_addr, LOADADDR (.SDRAM))

.Flash_flash_data
                0x0c000000        0x0 load address 0x007b13d4
                0x0c000000                PROVIDE (_alt_partition_Flash_flash_data_start, ABSOLUTE (.))
 *(.Flash_flash_data. Flash_flash_data.*)
                0x0c000000                . = ALIGN (0x4)
                0x0c000000                PROVIDE (_alt_partition_Flash_flash_data_end, ABSOLUTE (.))
                0x007b13d4                PROVIDE (_alt_partition_Flash_flash_data_load_addr, LOADADDR (.Flash_flash_data))

.stab
 *(.stab)

.stabstr
 *(.stabstr)

.stab.excl
 *(.stab.excl)

.stab.exclstr
 *(.stab.exclstr)

.stab.index
 *(.stab.index)

.stab.indexstr
 *(.stab.indexstr)

.comment        0x00000000       0x26
 *(.comment)
 .comment       0x00000000       0x26 obj/default/PS2_ISR.o
                                 0x27 (size before relaxing)
 .comment       0x00000000       0x27 obj/default/audio_ISR.o
 .comment       0x00000000       0x27 obj/default/globals.o
 .comment       0x00000000       0x27 obj/default/interval_timer_ISR.o
 .comment       0x00000000       0x27 obj/default/media_interrupt_HAL.o
 .comment       0x00000000       0x27 obj/default/pushbutton_ISR.o
 .comment       0x00000000       0x27 c:/altera/13.0sp1/nios2eds/bin/gnu/h-i686-mingw32/bin/../lib/gcc/nios2-elf/4.1.2\libgcc.a(_muldi3.o)
 .comment       0x00000000       0x27 c:/altera/13.0sp1/nios2eds/bin/gnu/h-i686-mingw32/bin/../lib/gcc/nios2-elf/4.1.2\libgcc.a(_divdi3.o)
 .comment       0x00000000       0x27 c:/altera/13.0sp1/nios2eds/bin/gnu/h-i686-mingw32/bin/../lib/gcc/nios2-elf/4.1.2\libgcc.a(lib2-divmod.o)
 .comment       0x00000000       0x27 c:/altera/13.0sp1/nios2eds/bin/gnu/h-i686-mingw32/bin/../lib/gcc/nios2-elf/4.1.2\libgcc.a(_clz.o)
 .comment       0x00000000       0x27 c:/altera/13.0sp1/nios2eds/bin/gnu/h-i686-mingw32/bin/../lib/gcc/nios2-elf/4.1.2/../../../../nios2-elf/lib\libc.a(lib_a-memcpy.o)
 .comment       0x00000000       0x27 c:/altera/13.0sp1/nios2eds/bin/gnu/h-i686-mingw32/bin/../lib/gcc/nios2-elf/4.1.2/../../../../nios2-elf/lib\libc.a(lib_a-memset.o)
 .comment       0x00000000       0x27 ../p5_Temp_bsp/\libhal_bsp.a(alt_irq_register.o)
 .comment       0x00000000       0x27 ../p5_Temp_bsp/\libhal_bsp.a(alt_irq_vars.o)
 .comment       0x00000000       0x27 ../p5_Temp_bsp/\libhal_bsp.a(alt_load.o)
 .comment       0x00000000       0x27 ../p5_Temp_bsp/\libhal_bsp.a(alt_main.o)
 .comment       0x00000000       0x27 ../p5_Temp_bsp/\libhal_bsp.a(alt_printf.o)
 .comment       0x00000000       0x27 ../p5_Temp_bsp/\libhal_bsp.a(alt_putchar.o)
 .comment       0x00000000       0x27 ../p5_Temp_bsp/\libhal_bsp.a(alt_sys_init.o)
 .comment       0x00000000       0x27 ../p5_Temp_bsp/\libhal_bsp.a(altera_avalon_jtag_uart_fd.o)
 .comment       0x00000000       0x27 ../p5_Temp_bsp/\libhal_bsp.a(altera_avalon_jtag_uart_init.o)
 .comment       0x00000000       0x27 ../p5_Temp_bsp/\libhal_bsp.a(altera_avalon_jtag_uart_ioctl.o)
 .comment       0x00000000       0x27 ../p5_Temp_bsp/\libhal_bsp.a(altera_avalon_jtag_uart_read.o)
 .comment       0x00000000       0x27 ../p5_Temp_bsp/\libhal_bsp.a(altera_avalon_jtag_uart_write.o)
 .comment       0x00000000       0x27 ../p5_Temp_bsp/\libhal_bsp.a(altera_avalon_timer_sc.o)
 .comment       0x00000000       0x27 ../p5_Temp_bsp/\libhal_bsp.a(altera_up_avalon_audio.o)
 .comment       0x00000000       0x27 ../p5_Temp_bsp/\libhal_bsp.a(altera_up_avalon_character_lcd.o)
 .comment       0x00000000       0x27 ../p5_Temp_bsp/\libhal_bsp.a(altera_up_avalon_ethernet.o)
 .comment       0x00000000       0x27 ../p5_Temp_bsp/\libhal_bsp.a(altera_up_avalon_ethernet_low_level_driver.o)
 .comment       0x00000000       0x27 ../p5_Temp_bsp/\libhal_bsp.a(altera_up_avalon_irda.o)
 .comment       0x00000000       0x27 ../p5_Temp_bsp/\libhal_bsp.a(altera_up_avalon_parallel_port.o)
 .comment       0x00000000       0x27 ../p5_Temp_bsp/\libhal_bsp.a(altera_up_avalon_ps2.o)
 .comment       0x00000000       0x27 ../p5_Temp_bsp/\libhal_bsp.a(altera_up_avalon_rs232.o)
 .comment       0x00000000       0x27 ../p5_Temp_bsp/\libhal_bsp.a(altera_up_avalon_video_character_buffer_with_dma.o)
 .comment       0x00000000       0x27 ../p5_Temp_bsp/\libhal_bsp.a(altera_up_avalon_video_pixel_buffer_dma.o)
 .comment       0x00000000       0x27 ../p5_Temp_bsp/\libhal_bsp.a(alt_alarm_start.o)
 .comment       0x00000000       0x27 ../p5_Temp_bsp/\libhal_bsp.a(alt_close.o)
 .comment       0x00000000       0x27 ../p5_Temp_bsp/\libhal_bsp.a(alt_dcache_flush_all.o)
 .comment       0x00000000       0x27 ../p5_Temp_bsp/\libhal_bsp.a(alt_dev.o)
 .comment       0x00000000       0x27 ../p5_Temp_bsp/\libhal_bsp.a(alt_dev_llist_insert.o)
 .comment       0x00000000       0x27 ../p5_Temp_bsp/\libhal_bsp.a(alt_do_ctors.o)
 .comment       0x00000000       0x27 ../p5_Temp_bsp/\libhal_bsp.a(alt_do_dtors.o)
 .comment       0x00000000       0x27 ../p5_Temp_bsp/\libhal_bsp.a(alt_errno.o)
 .comment       0x00000000       0x27 ../p5_Temp_bsp/\libhal_bsp.a(alt_find_dev.o)
 .comment       0x00000000       0x27 ../p5_Temp_bsp/\libhal_bsp.a(alt_icache_flush_all.o)
 .comment       0x00000000       0x27 ../p5_Temp_bsp/\libhal_bsp.a(alt_io_redirect.o)
 .comment       0x00000000       0x27 ../p5_Temp_bsp/\libhal_bsp.a(alt_irq_handler.o)
 .comment       0x00000000       0x27 ../p5_Temp_bsp/\libhal_bsp.a(alt_open.o)
 .comment       0x00000000       0x27 ../p5_Temp_bsp/\libhal_bsp.a(alt_release_fd.o)
 .comment       0x00000000       0x27 ../p5_Temp_bsp/\libhal_bsp.a(alt_tick.o)
 .comment       0x00000000       0x27 ../p5_Temp_bsp/\libhal_bsp.a(alt_usleep.o)
 .comment       0x00000000       0x27 ../p5_Temp_bsp/\libhal_bsp.a(altera_nios2_qsys_irq.o)
 .comment       0x00000000       0x27 ../p5_Temp_bsp/\libhal_bsp.a(alt_busy_sleep.o)
 .comment       0x00000000       0x27 ../p5_Temp_bsp/\libhal_bsp.a(alt_find_file.o)
 .comment       0x00000000       0x27 ../p5_Temp_bsp/\libhal_bsp.a(alt_get_fd.o)
 .comment       0x00000000       0x27 ../p5_Temp_bsp/\libhal_bsp.a(alt_icache_flush.o)
 .comment       0x00000000       0x27 c:/altera/13.0sp1/nios2eds/bin/gnu/h-i686-mingw32/bin/../lib/gcc/nios2-elf/4.1.2/../../../../nios2-elf/lib\libc.a(lib_a-atexit.o)
 .comment       0x00000000       0x27 c:/altera/13.0sp1/nios2eds/bin/gnu/h-i686-mingw32/bin/../lib/gcc/nios2-elf/4.1.2/../../../../nios2-elf/lib\libc.a(lib_a-exit.o)
 .comment       0x00000000       0x27 c:/altera/13.0sp1/nios2eds/bin/gnu/h-i686-mingw32/bin/../lib/gcc/nios2-elf/4.1.2/../../../../nios2-elf/lib\libc.a(lib_a-impure.o)
 .comment       0x00000000       0x27 c:/altera/13.0sp1/nios2eds/bin/gnu/h-i686-mingw32/bin/../lib/gcc/nios2-elf/4.1.2/../../../../nios2-elf/lib\libc.a(lib_a-int_errno.o)
 .comment       0x00000000       0x27 c:/altera/13.0sp1/nios2eds/bin/gnu/h-i686-mingw32/bin/../lib/gcc/nios2-elf/4.1.2/../../../../nios2-elf/lib\libc.a(lib_a-memcmp.o)
 .comment       0x00000000       0x27 c:/altera/13.0sp1/nios2eds/bin/gnu/h-i686-mingw32/bin/../lib/gcc/nios2-elf/4.1.2/../../../../nios2-elf/lib\libc.a(lib_a-putc.o)
 .comment       0x00000000       0x27 c:/altera/13.0sp1/nios2eds/bin/gnu/h-i686-mingw32/bin/../lib/gcc/nios2-elf/4.1.2/../../../../nios2-elf/lib\libc.a(lib_a-strcmp.o)
 .comment       0x00000000       0x27 c:/altera/13.0sp1/nios2eds/bin/gnu/h-i686-mingw32/bin/../lib/gcc/nios2-elf/4.1.2/../../../../nios2-elf/lib\libc.a(lib_a-strlen.o)
 .comment       0x00000000       0x27 c:/altera/13.0sp1/nios2eds/bin/gnu/h-i686-mingw32/bin/../lib/gcc/nios2-elf/4.1.2/../../../../nios2-elf/lib\libc.a(lib_a-wbuf.o)
 .comment       0x00000000       0x27 c:/altera/13.0sp1/nios2eds/bin/gnu/h-i686-mingw32/bin/../lib/gcc/nios2-elf/4.1.2/../../../../nios2-elf/lib\libc.a(lib_a-wsetup.o)
 .comment       0x00000000       0x27 c:/altera/13.0sp1/nios2eds/bin/gnu/h-i686-mingw32/bin/../lib/gcc/nios2-elf/4.1.2/../../../../nios2-elf/lib\libc.a(lib_a-__atexit.o)
 .comment       0x00000000       0x27 c:/altera/13.0sp1/nios2eds/bin/gnu/h-i686-mingw32/bin/../lib/gcc/nios2-elf/4.1.2/../../../../nios2-elf/lib\libc.a(lib_a-__call_atexit.o)
 .comment       0x00000000       0x27 c:/altera/13.0sp1/nios2eds/bin/gnu/h-i686-mingw32/bin/../lib/gcc/nios2-elf/4.1.2/../../../../nios2-elf/lib\libc.a(lib_a-fflush.o)
 .comment       0x00000000       0x27 c:/altera/13.0sp1/nios2eds/bin/gnu/h-i686-mingw32/bin/../lib/gcc/nios2-elf/4.1.2/../../../../nios2-elf/lib\libc.a(lib_a-findfp.o)
 .comment       0x00000000       0x27 c:/altera/13.0sp1/nios2eds/bin/gnu/h-i686-mingw32/bin/../lib/gcc/nios2-elf/4.1.2/../../../../nios2-elf/lib\libc.a(lib_a-freer.o)
 .comment       0x00000000       0x27 c:/altera/13.0sp1/nios2eds/bin/gnu/h-i686-mingw32/bin/../lib/gcc/nios2-elf/4.1.2/../../../../nios2-elf/lib\libc.a(lib_a-fwalk.o)
 .comment       0x00000000       0x27 c:/altera/13.0sp1/nios2eds/bin/gnu/h-i686-mingw32/bin/../lib/gcc/nios2-elf/4.1.2/../../../../nios2-elf/lib\libc.a(lib_a-makebuf.o)
 .comment       0x00000000       0x27 c:/altera/13.0sp1/nios2eds/bin/gnu/h-i686-mingw32/bin/../lib/gcc/nios2-elf/4.1.2/../../../../nios2-elf/lib\libc.a(lib_a-mallocr.o)
 .comment       0x00000000       0x27 c:/altera/13.0sp1/nios2eds/bin/gnu/h-i686-mingw32/bin/../lib/gcc/nios2-elf/4.1.2/../../../../nios2-elf/lib\libc.a(lib_a-sbrkr.o)
 .comment       0x00000000       0x27 c:/altera/13.0sp1/nios2eds/bin/gnu/h-i686-mingw32/bin/../lib/gcc/nios2-elf/4.1.2/../../../../nios2-elf/lib\libc.a(lib_a-stdio.o)
 .comment       0x00000000       0x27 c:/altera/13.0sp1/nios2eds/bin/gnu/h-i686-mingw32/bin/../lib/gcc/nios2-elf/4.1.2/../../../../nios2-elf/lib\libc.a(lib_a-writer.o)
 .comment       0x00000000       0x27 c:/altera/13.0sp1/nios2eds/bin/gnu/h-i686-mingw32/bin/../lib/gcc/nios2-elf/4.1.2/../../../../nios2-elf/lib\libc.a(lib_a-closer.o)
 .comment       0x00000000       0x27 c:/altera/13.0sp1/nios2eds/bin/gnu/h-i686-mingw32/bin/../lib/gcc/nios2-elf/4.1.2/../../../../nios2-elf/lib\libc.a(lib_a-fclose.o)
 .comment       0x00000000       0x27 c:/altera/13.0sp1/nios2eds/bin/gnu/h-i686-mingw32/bin/../lib/gcc/nios2-elf/4.1.2/../../../../nios2-elf/lib\libc.a(lib_a-fstatr.o)
 .comment       0x00000000       0x27 c:/altera/13.0sp1/nios2eds/bin/gnu/h-i686-mingw32/bin/../lib/gcc/nios2-elf/4.1.2/../../../../nios2-elf/lib\libc.a(lib_a-isattyr.o)
 .comment       0x00000000       0x27 c:/altera/13.0sp1/nios2eds/bin/gnu/h-i686-mingw32/bin/../lib/gcc/nios2-elf/4.1.2/../../../../nios2-elf/lib\libc.a(lib_a-lseekr.o)
 .comment       0x00000000       0x27 c:/altera/13.0sp1/nios2eds/bin/gnu/h-i686-mingw32/bin/../lib/gcc/nios2-elf/4.1.2/../../../../nios2-elf/lib\libc.a(lib_a-readr.o)
 .comment       0x00000000       0x27 ../p5_Temp_bsp/\libhal_bsp.a(alt_exit.o)
 .comment       0x00000000       0x27 ../p5_Temp_bsp/\libhal_bsp.a(alt_fstat.o)
 .comment       0x00000000       0x27 ../p5_Temp_bsp/\libhal_bsp.a(alt_isatty.o)
 .comment       0x00000000       0x27 ../p5_Temp_bsp/\libhal_bsp.a(alt_lseek.o)
 .comment       0x00000000       0x27 ../p5_Temp_bsp/\libhal_bsp.a(alt_malloc_lock.o)
 .comment       0x00000000       0x27 ../p5_Temp_bsp/\libhal_bsp.a(alt_read.o)
 .comment       0x00000000       0x27 ../p5_Temp_bsp/\libhal_bsp.a(alt_sbrk.o)
 .comment       0x00000000       0x27 ../p5_Temp_bsp/\libhal_bsp.a(alt_write.o)

.debug
 *(.debug)

.line
 *(.line)

.debug_srcinfo
 *(.debug_srcinfo)

.debug_sfnames
 *(.debug_sfnames)

.debug_aranges  0x00000000      0xb38
 *(.debug_aranges)
 .debug_aranges
                0x00000000       0x28 ../p5_Temp_bsp//obj/HAL/src/crt0.o
 .debug_aranges
                0x00000028       0x20 obj/default/PS2_ISR.o
 .debug_aranges
                0x00000048       0x20 obj/default/audio_ISR.o
 .debug_aranges
                0x00000068       0x20 obj/default/interval_timer_ISR.o
 .debug_aranges
                0x00000088       0x20 obj/default/media_interrupt_HAL.o
 .debug_aranges
                0x000000a8       0x20 obj/default/pushbutton_ISR.o
 .debug_aranges
                0x000000c8       0x20 c:/altera/13.0sp1/nios2eds/bin/gnu/h-i686-mingw32/bin/../lib/gcc/nios2-elf/4.1.2\libgcc.a(_muldi3.o)
 .debug_aranges
                0x000000e8       0x20 c:/altera/13.0sp1/nios2eds/bin/gnu/h-i686-mingw32/bin/../lib/gcc/nios2-elf/4.1.2\libgcc.a(_divdi3.o)
 .debug_aranges
                0x00000108       0x20 c:/altera/13.0sp1/nios2eds/bin/gnu/h-i686-mingw32/bin/../lib/gcc/nios2-elf/4.1.2\libgcc.a(lib2-divmod.o)
 .debug_aranges
                0x00000128       0x20 c:/altera/13.0sp1/nios2eds/bin/gnu/h-i686-mingw32/bin/../lib/gcc/nios2-elf/4.1.2/../../../../nios2-elf/lib\libc.a(lib_a-memcpy.o)
 .debug_aranges
                0x00000148       0x20 c:/altera/13.0sp1/nios2eds/bin/gnu/h-i686-mingw32/bin/../lib/gcc/nios2-elf/4.1.2/../../../../nios2-elf/lib\libc.a(lib_a-memset.o)
 .debug_aranges
                0x00000168       0x20 ../p5_Temp_bsp/\libhal_bsp.a(alt_irq_register.o)
 .debug_aranges
                0x00000188       0x20 ../p5_Temp_bsp/\libhal_bsp.a(alt_load.o)
 .debug_aranges
                0x000001a8       0x20 ../p5_Temp_bsp/\libhal_bsp.a(alt_main.o)
 .debug_aranges
                0x000001c8       0x20 ../p5_Temp_bsp/\libhal_bsp.a(alt_printf.o)
 .debug_aranges
                0x000001e8       0x20 ../p5_Temp_bsp/\libhal_bsp.a(alt_putchar.o)
 .debug_aranges
                0x00000208       0x20 ../p5_Temp_bsp/\libhal_bsp.a(alt_sys_init.o)
 .debug_aranges
                0x00000228       0x20 ../p5_Temp_bsp/\libhal_bsp.a(altera_avalon_jtag_uart_fd.o)
 .debug_aranges
                0x00000248       0x20 ../p5_Temp_bsp/\libhal_bsp.a(altera_avalon_jtag_uart_init.o)
 .debug_aranges
                0x00000268       0x20 ../p5_Temp_bsp/\libhal_bsp.a(altera_avalon_jtag_uart_ioctl.o)
 .debug_aranges
                0x00000288       0x20 ../p5_Temp_bsp/\libhal_bsp.a(altera_avalon_jtag_uart_read.o)
 .debug_aranges
                0x000002a8       0x20 ../p5_Temp_bsp/\libhal_bsp.a(altera_avalon_jtag_uart_write.o)
 .debug_aranges
                0x000002c8       0x20 ../p5_Temp_bsp/\libhal_bsp.a(altera_avalon_timer_sc.o)
 .debug_aranges
                0x000002e8       0x20 ../p5_Temp_bsp/\libhal_bsp.a(altera_up_avalon_audio.o)
 .debug_aranges
                0x00000308       0x20 ../p5_Temp_bsp/\libhal_bsp.a(altera_up_avalon_character_lcd.o)
 .debug_aranges
                0x00000328       0x20 ../p5_Temp_bsp/\libhal_bsp.a(altera_up_avalon_ethernet.o)
 .debug_aranges
                0x00000348       0x20 ../p5_Temp_bsp/\libhal_bsp.a(altera_up_avalon_ethernet_low_level_driver.o)
 .debug_aranges
                0x00000368       0x20 ../p5_Temp_bsp/\libhal_bsp.a(altera_up_avalon_irda.o)
 .debug_aranges
                0x00000388       0x20 ../p5_Temp_bsp/\libhal_bsp.a(altera_up_avalon_parallel_port.o)
 .debug_aranges
                0x000003a8       0x20 ../p5_Temp_bsp/\libhal_bsp.a(altera_up_avalon_ps2.o)
 .debug_aranges
                0x000003c8       0x20 ../p5_Temp_bsp/\libhal_bsp.a(altera_up_avalon_rs232.o)
 .debug_aranges
                0x000003e8       0x20 ../p5_Temp_bsp/\libhal_bsp.a(altera_up_avalon_video_character_buffer_with_dma.o)
 .debug_aranges
                0x00000408       0x20 ../p5_Temp_bsp/\libhal_bsp.a(altera_up_avalon_video_pixel_buffer_dma.o)
 .debug_aranges
                0x00000428       0x20 ../p5_Temp_bsp/\libhal_bsp.a(alt_alarm_start.o)
 .debug_aranges
                0x00000448       0x20 ../p5_Temp_bsp/\libhal_bsp.a(alt_close.o)
 .debug_aranges
                0x00000468       0x20 ../p5_Temp_bsp/\libhal_bsp.a(alt_dcache_flush_all.o)
 .debug_aranges
                0x00000488       0x20 ../p5_Temp_bsp/\libhal_bsp.a(alt_dev.o)
 .debug_aranges
                0x000004a8       0x20 ../p5_Temp_bsp/\libhal_bsp.a(alt_dev_llist_insert.o)
 .debug_aranges
                0x000004c8       0x20 ../p5_Temp_bsp/\libhal_bsp.a(alt_do_ctors.o)
 .debug_aranges
                0x000004e8       0x20 ../p5_Temp_bsp/\libhal_bsp.a(alt_do_dtors.o)
 .debug_aranges
                0x00000508       0x20 ../p5_Temp_bsp/\libhal_bsp.a(alt_find_dev.o)
 .debug_aranges
                0x00000528       0x20 ../p5_Temp_bsp/\libhal_bsp.a(alt_icache_flush_all.o)
 .debug_aranges
                0x00000548       0x20 ../p5_Temp_bsp/\libhal_bsp.a(alt_io_redirect.o)
 .debug_aranges
                0x00000568       0x30 ../p5_Temp_bsp/\libhal_bsp.a(alt_irq_entry.o)
 .debug_aranges
                0x00000598       0x28 ../p5_Temp_bsp/\libhal_bsp.a(alt_irq_handler.o)
 .debug_aranges
                0x000005c0       0x20 ../p5_Temp_bsp/\libhal_bsp.a(alt_open.o)
 .debug_aranges
                0x000005e0       0x20 ../p5_Temp_bsp/\libhal_bsp.a(alt_release_fd.o)
 .debug_aranges
                0x00000600       0x20 ../p5_Temp_bsp/\libhal_bsp.a(alt_tick.o)
 .debug_aranges
                0x00000620       0x20 ../p5_Temp_bsp/\libhal_bsp.a(alt_usleep.o)
 .debug_aranges
                0x00000640       0x20 ../p5_Temp_bsp/\libhal_bsp.a(altera_nios2_qsys_irq.o)
 .debug_aranges
                0x00000660       0x20 ../p5_Temp_bsp/\libhal_bsp.a(alt_busy_sleep.o)
 .debug_aranges
                0x00000680       0x38 ../p5_Temp_bsp/\libhal_bsp.a(alt_exception_entry.o)
 .debug_aranges
                0x000006b8       0x20 ../p5_Temp_bsp/\libhal_bsp.a(alt_find_file.o)
 .debug_aranges
                0x000006d8       0x20 ../p5_Temp_bsp/\libhal_bsp.a(alt_get_fd.o)
 .debug_aranges
                0x000006f8       0x20 ../p5_Temp_bsp/\libhal_bsp.a(alt_icache_flush.o)
 .debug_aranges
                0x00000718       0x20 c:/altera/13.0sp1/nios2eds/bin/gnu/h-i686-mingw32/bin/../lib/gcc/nios2-elf/4.1.2/../../../../nios2-elf/lib\libc.a(lib_a-atexit.o)
 .debug_aranges
                0x00000738       0x20 c:/altera/13.0sp1/nios2eds/bin/gnu/h-i686-mingw32/bin/../lib/gcc/nios2-elf/4.1.2/../../../../nios2-elf/lib\libc.a(lib_a-exit.o)
 .debug_aranges
                0x00000758       0x20 c:/altera/13.0sp1/nios2eds/bin/gnu/h-i686-mingw32/bin/../lib/gcc/nios2-elf/4.1.2/../../../../nios2-elf/lib\libc.a(lib_a-memcmp.o)
 .debug_aranges
                0x00000778       0x20 c:/altera/13.0sp1/nios2eds/bin/gnu/h-i686-mingw32/bin/../lib/gcc/nios2-elf/4.1.2/../../../../nios2-elf/lib\libc.a(lib_a-putc.o)
 .debug_aranges
                0x00000798       0x20 c:/altera/13.0sp1/nios2eds/bin/gnu/h-i686-mingw32/bin/../lib/gcc/nios2-elf/4.1.2/../../../../nios2-elf/lib\libc.a(lib_a-strcmp.o)
 .debug_aranges
                0x000007b8       0x20 c:/altera/13.0sp1/nios2eds/bin/gnu/h-i686-mingw32/bin/../lib/gcc/nios2-elf/4.1.2/../../../../nios2-elf/lib\libc.a(lib_a-strlen.o)
 .debug_aranges
                0x000007d8       0x20 c:/altera/13.0sp1/nios2eds/bin/gnu/h-i686-mingw32/bin/../lib/gcc/nios2-elf/4.1.2/../../../../nios2-elf/lib\libc.a(lib_a-wbuf.o)
 .debug_aranges
                0x000007f8       0x20 c:/altera/13.0sp1/nios2eds/bin/gnu/h-i686-mingw32/bin/../lib/gcc/nios2-elf/4.1.2/../../../../nios2-elf/lib\libc.a(lib_a-wsetup.o)
 .debug_aranges
                0x00000818       0x20 c:/altera/13.0sp1/nios2eds/bin/gnu/h-i686-mingw32/bin/../lib/gcc/nios2-elf/4.1.2/../../../../nios2-elf/lib\libc.a(lib_a-__atexit.o)
 .debug_aranges
                0x00000838       0x20 c:/altera/13.0sp1/nios2eds/bin/gnu/h-i686-mingw32/bin/../lib/gcc/nios2-elf/4.1.2/../../../../nios2-elf/lib\libc.a(lib_a-__call_atexit.o)
 .debug_aranges
                0x00000858       0x20 c:/altera/13.0sp1/nios2eds/bin/gnu/h-i686-mingw32/bin/../lib/gcc/nios2-elf/4.1.2/../../../../nios2-elf/lib\libc.a(lib_a-fflush.o)
 .debug_aranges
                0x00000878       0x20 c:/altera/13.0sp1/nios2eds/bin/gnu/h-i686-mingw32/bin/../lib/gcc/nios2-elf/4.1.2/../../../../nios2-elf/lib\libc.a(lib_a-findfp.o)
 .debug_aranges
                0x00000898       0x20 c:/altera/13.0sp1/nios2eds/bin/gnu/h-i686-mingw32/bin/../lib/gcc/nios2-elf/4.1.2/../../../../nios2-elf/lib\libc.a(lib_a-freer.o)
 .debug_aranges
                0x000008b8       0x20 c:/altera/13.0sp1/nios2eds/bin/gnu/h-i686-mingw32/bin/../lib/gcc/nios2-elf/4.1.2/../../../../nios2-elf/lib\libc.a(lib_a-fwalk.o)
 .debug_aranges
                0x000008d8       0x20 c:/altera/13.0sp1/nios2eds/bin/gnu/h-i686-mingw32/bin/../lib/gcc/nios2-elf/4.1.2/../../../../nios2-elf/lib\libc.a(lib_a-makebuf.o)
 .debug_aranges
                0x000008f8       0x20 c:/altera/13.0sp1/nios2eds/bin/gnu/h-i686-mingw32/bin/../lib/gcc/nios2-elf/4.1.2/../../../../nios2-elf/lib\libc.a(lib_a-mallocr.o)
 .debug_aranges
                0x00000918       0x20 c:/altera/13.0sp1/nios2eds/bin/gnu/h-i686-mingw32/bin/../lib/gcc/nios2-elf/4.1.2/../../../../nios2-elf/lib\libc.a(lib_a-sbrkr.o)
 .debug_aranges
                0x00000938       0x20 c:/altera/13.0sp1/nios2eds/bin/gnu/h-i686-mingw32/bin/../lib/gcc/nios2-elf/4.1.2/../../../../nios2-elf/lib\libc.a(lib_a-stdio.o)
 .debug_aranges
                0x00000958       0x20 c:/altera/13.0sp1/nios2eds/bin/gnu/h-i686-mingw32/bin/../lib/gcc/nios2-elf/4.1.2/../../../../nios2-elf/lib\libc.a(lib_a-writer.o)
 .debug_aranges
                0x00000978       0x20 c:/altera/13.0sp1/nios2eds/bin/gnu/h-i686-mingw32/bin/../lib/gcc/nios2-elf/4.1.2/../../../../nios2-elf/lib\libc.a(lib_a-closer.o)
 .debug_aranges
                0x00000998       0x20 c:/altera/13.0sp1/nios2eds/bin/gnu/h-i686-mingw32/bin/../lib/gcc/nios2-elf/4.1.2/../../../../nios2-elf/lib\libc.a(lib_a-fclose.o)
 .debug_aranges
                0x000009b8       0x20 c:/altera/13.0sp1/nios2eds/bin/gnu/h-i686-mingw32/bin/../lib/gcc/nios2-elf/4.1.2/../../../../nios2-elf/lib\libc.a(lib_a-fstatr.o)
 .debug_aranges
                0x000009d8       0x20 c:/altera/13.0sp1/nios2eds/bin/gnu/h-i686-mingw32/bin/../lib/gcc/nios2-elf/4.1.2/../../../../nios2-elf/lib\libc.a(lib_a-isattyr.o)
 .debug_aranges
                0x000009f8       0x20 c:/altera/13.0sp1/nios2eds/bin/gnu/h-i686-mingw32/bin/../lib/gcc/nios2-elf/4.1.2/../../../../nios2-elf/lib\libc.a(lib_a-lseekr.o)
 .debug_aranges
                0x00000a18       0x20 c:/altera/13.0sp1/nios2eds/bin/gnu/h-i686-mingw32/bin/../lib/gcc/nios2-elf/4.1.2/../../../../nios2-elf/lib\libc.a(lib_a-readr.o)
 .debug_aranges
                0x00000a38       0x20 ../p5_Temp_bsp/\libhal_bsp.a(alt_exit.o)
 .debug_aranges
                0x00000a58       0x20 ../p5_Temp_bsp/\libhal_bsp.a(alt_fstat.o)
 .debug_aranges
                0x00000a78       0x20 ../p5_Temp_bsp/\libhal_bsp.a(alt_isatty.o)
 .debug_aranges
                0x00000a98       0x20 ../p5_Temp_bsp/\libhal_bsp.a(alt_lseek.o)
 .debug_aranges
                0x00000ab8       0x20 ../p5_Temp_bsp/\libhal_bsp.a(alt_malloc_lock.o)
 .debug_aranges
                0x00000ad8       0x20 ../p5_Temp_bsp/\libhal_bsp.a(alt_read.o)
 .debug_aranges
                0x00000af8       0x20 ../p5_Temp_bsp/\libhal_bsp.a(alt_sbrk.o)
 .debug_aranges
                0x00000b18       0x20 ../p5_Temp_bsp/\libhal_bsp.a(alt_write.o)

.debug_pubnames
                0x00000000     0x1d55
 *(.debug_pubnames)
 .debug_pubnames
                0x00000000       0x1e obj/default/PS2_ISR.o
 .debug_pubnames
                0x0000001e       0x20 obj/default/audio_ISR.o
 .debug_pubnames
                0x0000003e      0x140 obj/default/globals.o
 .debug_pubnames
                0x0000017e       0x29 obj/default/interval_timer_ISR.o
 .debug_pubnames
                0x000001a7      0x15a obj/default/media_interrupt_HAL.o
 .debug_pubnames
                0x00000301       0x25 obj/default/pushbutton_ISR.o
 .debug_pubnames
                0x00000326       0x1f c:/altera/13.0sp1/nios2eds/bin/gnu/h-i686-mingw32/bin/../lib/gcc/nios2-elf/4.1.2\libgcc.a(_muldi3.o)
 .debug_pubnames
                0x00000345       0x1f c:/altera/13.0sp1/nios2eds/bin/gnu/h-i686-mingw32/bin/../lib/gcc/nios2-elf/4.1.2\libgcc.a(_divdi3.o)
 .debug_pubnames
                0x00000364       0x48 c:/altera/13.0sp1/nios2eds/bin/gnu/h-i686-mingw32/bin/../lib/gcc/nios2-elf/4.1.2\libgcc.a(lib2-divmod.o)
 .debug_pubnames
                0x000003ac       0x20 c:/altera/13.0sp1/nios2eds/bin/gnu/h-i686-mingw32/bin/../lib/gcc/nios2-elf/4.1.2\libgcc.a(_clz.o)
 .debug_pubnames
                0x000003cc       0x1d c:/altera/13.0sp1/nios2eds/bin/gnu/h-i686-mingw32/bin/../lib/gcc/nios2-elf/4.1.2/../../../../nios2-elf/lib\libc.a(lib_a-memcpy.o)
 .debug_pubnames
                0x000003e9       0x1d c:/altera/13.0sp1/nios2eds/bin/gnu/h-i686-mingw32/bin/../lib/gcc/nios2-elf/4.1.2/../../../../nios2-elf/lib\libc.a(lib_a-memset.o)
 .debug_pubnames
                0x00000406       0x27 ../p5_Temp_bsp/\libhal_bsp.a(alt_irq_register.o)
 .debug_pubnames
                0x0000042d       0x3b ../p5_Temp_bsp/\libhal_bsp.a(alt_irq_vars.o)
 .debug_pubnames
                0x00000468       0x1f ../p5_Temp_bsp/\libhal_bsp.a(alt_load.o)
 .debug_pubnames
                0x00000487       0x46 ../p5_Temp_bsp/\libhal_bsp.a(alt_main.o)
 .debug_pubnames
                0x000004cd       0x21 ../p5_Temp_bsp/\libhal_bsp.a(alt_printf.o)
 .debug_pubnames
                0x000004ee       0x22 ../p5_Temp_bsp/\libhal_bsp.a(alt_putchar.o)
 .debug_pubnames
                0x00000510       0x34 ../p5_Temp_bsp/\libhal_bsp.a(alt_sys_init.o)
 .debug_pubnames
                0x00000544       0xa5 ../p5_Temp_bsp/\libhal_bsp.a(altera_avalon_jtag_uart_fd.o)
 .debug_pubnames
                0x000005e9       0x55 ../p5_Temp_bsp/\libhal_bsp.a(altera_avalon_jtag_uart_init.o)
 .debug_pubnames
                0x0000063e       0x34 ../p5_Temp_bsp/\libhal_bsp.a(altera_avalon_jtag_uart_ioctl.o)
 .debug_pubnames
                0x00000672       0x33 ../p5_Temp_bsp/\libhal_bsp.a(altera_avalon_jtag_uart_read.o)
 .debug_pubnames
                0x000006a5       0x34 ../p5_Temp_bsp/\libhal_bsp.a(altera_avalon_jtag_uart_write.o)
 .debug_pubnames
                0x000006d9       0x2f ../p5_Temp_bsp/\libhal_bsp.a(altera_avalon_timer_sc.o)
 .debug_pubnames
                0x00000708      0x25e ../p5_Temp_bsp/\libhal_bsp.a(altera_up_avalon_audio.o)
 .debug_pubnames
                0x00000966      0x1cd ../p5_Temp_bsp/\libhal_bsp.a(altera_up_avalon_character_lcd.o)
 .debug_pubnames
                0x00000b33       0x48 ../p5_Temp_bsp/\libhal_bsp.a(altera_up_avalon_ethernet.o)
 .debug_pubnames
                0x00000b7b       0x90 ../p5_Temp_bsp/\libhal_bsp.a(altera_up_avalon_ethernet_low_level_driver.o)
 .debug_pubnames
                0x00000c0b      0x159 ../p5_Temp_bsp/\libhal_bsp.a(altera_up_avalon_irda.o)
 .debug_pubnames
                0x00000d64       0x34 ../p5_Temp_bsp/\libhal_bsp.a(altera_up_avalon_parallel_port.o)
 .debug_pubnames
                0x00000d98      0x1ed ../p5_Temp_bsp/\libhal_bsp.a(altera_up_avalon_ps2.o)
 .debug_pubnames
                0x00000f85      0x163 ../p5_Temp_bsp/\libhal_bsp.a(altera_up_avalon_rs232.o)
 .debug_pubnames
                0x000010e8       0xa5 ../p5_Temp_bsp/\libhal_bsp.a(altera_up_avalon_video_character_buffer_with_dma.o)
 .debug_pubnames
                0x0000118d      0x1f1 ../p5_Temp_bsp/\libhal_bsp.a(altera_up_avalon_video_pixel_buffer_dma.o)
 .debug_pubnames
                0x0000137e       0x26 ../p5_Temp_bsp/\libhal_bsp.a(alt_alarm_start.o)
 .debug_pubnames
                0x000013a4       0x1c ../p5_Temp_bsp/\libhal_bsp.a(alt_close.o)
 .debug_pubnames
                0x000013c0       0x2b ../p5_Temp_bsp/\libhal_bsp.a(alt_dcache_flush_all.o)
 .debug_pubnames
                0x000013eb       0x63 ../p5_Temp_bsp/\libhal_bsp.a(alt_dev.o)
 .debug_pubnames
                0x0000144e       0x2b ../p5_Temp_bsp/\libhal_bsp.a(alt_dev_llist_insert.o)
 .debug_pubnames
                0x00001479       0x20 ../p5_Temp_bsp/\libhal_bsp.a(alt_do_ctors.o)
 .debug_pubnames
                0x00001499       0x20 ../p5_Temp_bsp/\libhal_bsp.a(alt_do_dtors.o)
 .debug_pubnames
                0x000014b9       0x20 ../p5_Temp_bsp/\libhal_bsp.a(alt_errno.o)
 .debug_pubnames
                0x000014d9       0x23 ../p5_Temp_bsp/\libhal_bsp.a(alt_find_dev.o)
 .debug_pubnames
                0x000014fc       0x2b ../p5_Temp_bsp/\libhal_bsp.a(alt_icache_flush_all.o)
 .debug_pubnames
                0x00001527       0x26 ../p5_Temp_bsp/\libhal_bsp.a(alt_io_redirect.o)
 .debug_pubnames
                0x0000154d       0x32 ../p5_Temp_bsp/\libhal_bsp.a(alt_irq_handler.o)
 .debug_pubnames
                0x0000157f       0x1b ../p5_Temp_bsp/\libhal_bsp.a(alt_open.o)
 .debug_pubnames
                0x0000159a       0x25 ../p5_Temp_bsp/\libhal_bsp.a(alt_release_fd.o)
 .debug_pubnames
                0x000015bf       0x68 ../p5_Temp_bsp/\libhal_bsp.a(alt_tick.o)
 .debug_pubnames
                0x00001627       0x1d ../p5_Temp_bsp/\libhal_bsp.a(alt_usleep.o)
 .debug_pubnames
                0x00001644       0x31 ../p5_Temp_bsp/\libhal_bsp.a(altera_nios2_qsys_irq.o)
 .debug_pubnames
                0x00001675       0x25 ../p5_Temp_bsp/\libhal_bsp.a(alt_busy_sleep.o)
 .debug_pubnames
                0x0000169a       0x24 ../p5_Temp_bsp/\libhal_bsp.a(alt_find_file.o)
 .debug_pubnames
                0x000016be       0x21 ../p5_Temp_bsp/\libhal_bsp.a(alt_get_fd.o)
 .debug_pubnames
                0x000016df       0x27 ../p5_Temp_bsp/\libhal_bsp.a(alt_icache_flush.o)
 .debug_pubnames
                0x00001706       0x2a c:/altera/13.0sp1/nios2eds/bin/gnu/h-i686-mingw32/bin/../lib/gcc/nios2-elf/4.1.2/../../../../nios2-elf/lib\libc.a(lib_a-atexit.o)
 .debug_pubnames
                0x00001730       0x1b c:/altera/13.0sp1/nios2eds/bin/gnu/h-i686-mingw32/bin/../lib/gcc/nios2-elf/4.1.2/../../../../nios2-elf/lib\libc.a(lib_a-exit.o)
 .debug_pubnames
                0x0000174b       0x39 c:/altera/13.0sp1/nios2eds/bin/gnu/h-i686-mingw32/bin/../lib/gcc/nios2-elf/4.1.2/../../../../nios2-elf/lib\libc.a(lib_a-impure.o)
 .debug_pubnames
                0x00001784       0x1c c:/altera/13.0sp1/nios2eds/bin/gnu/h-i686-mingw32/bin/../lib/gcc/nios2-elf/4.1.2/../../../../nios2-elf/lib\libc.a(lib_a-int_errno.o)
 .debug_pubnames
                0x000017a0       0x1d c:/altera/13.0sp1/nios2eds/bin/gnu/h-i686-mingw32/bin/../lib/gcc/nios2-elf/4.1.2/../../../../nios2-elf/lib\libc.a(lib_a-memcmp.o)
 .debug_pubnames
                0x000017bd       0x27 c:/altera/13.0sp1/nios2eds/bin/gnu/h-i686-mingw32/bin/../lib/gcc/nios2-elf/4.1.2/../../../../nios2-elf/lib\libc.a(lib_a-putc.o)
 .debug_pubnames
                0x000017e4       0x1d c:/altera/13.0sp1/nios2eds/bin/gnu/h-i686-mingw32/bin/../lib/gcc/nios2-elf/4.1.2/../../../../nios2-elf/lib\libc.a(lib_a-strcmp.o)
 .debug_pubnames
                0x00001801       0x1d c:/altera/13.0sp1/nios2eds/bin/gnu/h-i686-mingw32/bin/../lib/gcc/nios2-elf/4.1.2/../../../../nios2-elf/lib\libc.a(lib_a-strlen.o)
 .debug_pubnames
                0x0000181e       0x2c c:/altera/13.0sp1/nios2eds/bin/gnu/h-i686-mingw32/bin/../lib/gcc/nios2-elf/4.1.2/../../../../nios2-elf/lib\libc.a(lib_a-wbuf.o)
 .debug_pubnames
                0x0000184a       0x22 c:/altera/13.0sp1/nios2eds/bin/gnu/h-i686-mingw32/bin/../lib/gcc/nios2-elf/4.1.2/../../../../nios2-elf/lib\libc.a(lib_a-wsetup.o)
 .debug_pubnames
                0x0000186c       0x2a c:/altera/13.0sp1/nios2eds/bin/gnu/h-i686-mingw32/bin/../lib/gcc/nios2-elf/4.1.2/../../../../nios2-elf/lib\libc.a(lib_a-__atexit.o)
 .debug_pubnames
                0x00001896       0x27 c:/altera/13.0sp1/nios2eds/bin/gnu/h-i686-mingw32/bin/../lib/gcc/nios2-elf/4.1.2/../../../../nios2-elf/lib\libc.a(lib_a-__call_atexit.o)
 .debug_pubnames
                0x000018bd       0x2b c:/altera/13.0sp1/nios2eds/bin/gnu/h-i686-mingw32/bin/../lib/gcc/nios2-elf/4.1.2/../../../../nios2-elf/lib\libc.a(lib_a-fflush.o)
 .debug_pubnames
                0x000018e8       0xdb c:/altera/13.0sp1/nios2eds/bin/gnu/h-i686-mingw32/bin/../lib/gcc/nios2-elf/4.1.2/../../../../nios2-elf/lib\libc.a(lib_a-findfp.o)
 .debug_pubnames
                0x000019c3       0x31 c:/altera/13.0sp1/nios2eds/bin/gnu/h-i686-mingw32/bin/../lib/gcc/nios2-elf/4.1.2/../../../../nios2-elf/lib\libc.a(lib_a-freer.o)
 .debug_pubnames
                0x000019f4       0x2e c:/altera/13.0sp1/nios2eds/bin/gnu/h-i686-mingw32/bin/../lib/gcc/nios2-elf/4.1.2/../../../../nios2-elf/lib\libc.a(lib_a-fwalk.o)
 .debug_pubnames
                0x00001a22       0x23 c:/altera/13.0sp1/nios2eds/bin/gnu/h-i686-mingw32/bin/../lib/gcc/nios2-elf/4.1.2/../../../../nios2-elf/lib\libc.a(lib_a-makebuf.o)
 .debug_pubnames
                0x00001a45       0xce c:/altera/13.0sp1/nios2eds/bin/gnu/h-i686-mingw32/bin/../lib/gcc/nios2-elf/4.1.2/../../../../nios2-elf/lib\libc.a(lib_a-mallocr.o)
 .debug_pubnames
                0x00001b13       0x1e c:/altera/13.0sp1/nios2eds/bin/gnu/h-i686-mingw32/bin/../lib/gcc/nios2-elf/4.1.2/../../../../nios2-elf/lib\libc.a(lib_a-sbrkr.o)
 .debug_pubnames
                0x00001b31       0x44 c:/altera/13.0sp1/nios2eds/bin/gnu/h-i686-mingw32/bin/../lib/gcc/nios2-elf/4.1.2/../../../../nios2-elf/lib\libc.a(lib_a-stdio.o)
 .debug_pubnames
                0x00001b75       0x1f c:/altera/13.0sp1/nios2eds/bin/gnu/h-i686-mingw32/bin/../lib/gcc/nios2-elf/4.1.2/../../../../nios2-elf/lib\libc.a(lib_a-writer.o)
 .debug_pubnames
                0x00001b94       0x1f c:/altera/13.0sp1/nios2eds/bin/gnu/h-i686-mingw32/bin/../lib/gcc/nios2-elf/4.1.2/../../../../nios2-elf/lib\libc.a(lib_a-closer.o)
 .debug_pubnames
                0x00001bb3       0x2b c:/altera/13.0sp1/nios2eds/bin/gnu/h-i686-mingw32/bin/../lib/gcc/nios2-elf/4.1.2/../../../../nios2-elf/lib\libc.a(lib_a-fclose.o)
 .debug_pubnames
                0x00001bde       0x1f c:/altera/13.0sp1/nios2eds/bin/gnu/h-i686-mingw32/bin/../lib/gcc/nios2-elf/4.1.2/../../../../nios2-elf/lib\libc.a(lib_a-fstatr.o)
 .debug_pubnames
                0x00001bfd       0x20 c:/altera/13.0sp1/nios2eds/bin/gnu/h-i686-mingw32/bin/../lib/gcc/nios2-elf/4.1.2/../../../../nios2-elf/lib\libc.a(lib_a-isattyr.o)
 .debug_pubnames
                0x00001c1d       0x1f c:/altera/13.0sp1/nios2eds/bin/gnu/h-i686-mingw32/bin/../lib/gcc/nios2-elf/4.1.2/../../../../nios2-elf/lib\libc.a(lib_a-lseekr.o)
 .debug_pubnames
                0x00001c3c       0x1e c:/altera/13.0sp1/nios2eds/bin/gnu/h-i686-mingw32/bin/../lib/gcc/nios2-elf/4.1.2/../../../../nios2-elf/lib\libc.a(lib_a-readr.o)
 .debug_pubnames
                0x00001c5a       0x1c ../p5_Temp_bsp/\libhal_bsp.a(alt_exit.o)
 .debug_pubnames
                0x00001c76       0x1c ../p5_Temp_bsp/\libhal_bsp.a(alt_fstat.o)
 .debug_pubnames
                0x00001c92       0x1d ../p5_Temp_bsp/\libhal_bsp.a(alt_isatty.o)
 .debug_pubnames
                0x00001caf       0x1c ../p5_Temp_bsp/\libhal_bsp.a(alt_lseek.o)
 .debug_pubnames
                0x00001ccb       0x38 ../p5_Temp_bsp/\libhal_bsp.a(alt_malloc_lock.o)
 .debug_pubnames
                0x00001d03       0x1b ../p5_Temp_bsp/\libhal_bsp.a(alt_read.o)
 .debug_pubnames
                0x00001d1e       0x1b ../p5_Temp_bsp/\libhal_bsp.a(alt_sbrk.o)
 .debug_pubnames
                0x00001d39       0x1c ../p5_Temp_bsp/\libhal_bsp.a(alt_write.o)

.debug_info     0x00000000    0x2369c
 *(.debug_info .gnu.linkonce.wi.*)
 .debug_info    0x00000000       0x63 ../p5_Temp_bsp//obj/HAL/src/crt0.o
 .debug_info    0x00000063      0x8ab obj/default/PS2_ISR.o
 .debug_info    0x0000090e      0x983 obj/default/audio_ISR.o
 .debug_info    0x00001291      0xa1f obj/default/globals.o
 .debug_info    0x00001cb0      0x870 obj/default/interval_timer_ISR.o
 .debug_info    0x00002520     0x11a4 obj/default/media_interrupt_HAL.o
 .debug_info    0x000036c4      0x882 obj/default/pushbutton_ISR.o
 .debug_info    0x00003f46      0x215 c:/altera/13.0sp1/nios2eds/bin/gnu/h-i686-mingw32/bin/../lib/gcc/nios2-elf/4.1.2\libgcc.a(_muldi3.o)
 .debug_info    0x0000415b      0x777 c:/altera/13.0sp1/nios2eds/bin/gnu/h-i686-mingw32/bin/../lib/gcc/nios2-elf/4.1.2\libgcc.a(_divdi3.o)
 .debug_info    0x000048d2      0x21c c:/altera/13.0sp1/nios2eds/bin/gnu/h-i686-mingw32/bin/../lib/gcc/nios2-elf/4.1.2\libgcc.a(lib2-divmod.o)
 .debug_info    0x00004aee       0xc9 c:/altera/13.0sp1/nios2eds/bin/gnu/h-i686-mingw32/bin/../lib/gcc/nios2-elf/4.1.2\libgcc.a(_clz.o)
 .debug_info    0x00004bb7      0x106 c:/altera/13.0sp1/nios2eds/bin/gnu/h-i686-mingw32/bin/../lib/gcc/nios2-elf/4.1.2/../../../../nios2-elf/lib\libc.a(lib_a-memcpy.o)
 .debug_info    0x00004cbd      0x113 c:/altera/13.0sp1/nios2eds/bin/gnu/h-i686-mingw32/bin/../lib/gcc/nios2-elf/4.1.2/../../../../nios2-elf/lib\libc.a(lib_a-memset.o)
 .debug_info    0x00004dd0      0x417 ../p5_Temp_bsp/\libhal_bsp.a(alt_irq_register.o)
 .debug_info    0x000051e7      0x14f ../p5_Temp_bsp/\libhal_bsp.a(alt_irq_vars.o)
 .debug_info    0x00005336      0x275 ../p5_Temp_bsp/\libhal_bsp.a(alt_load.o)
 .debug_info    0x000055ab      0x254 ../p5_Temp_bsp/\libhal_bsp.a(alt_main.o)
 .debug_info    0x000057ff      0x190 ../p5_Temp_bsp/\libhal_bsp.a(alt_printf.o)
 .debug_info    0x0000598f      0xbe4 ../p5_Temp_bsp/\libhal_bsp.a(alt_putchar.o)
 .debug_info    0x00006573      0xecb ../p5_Temp_bsp/\libhal_bsp.a(alt_sys_init.o)
 .debug_info    0x0000743e      0x7c1 ../p5_Temp_bsp/\libhal_bsp.a(altera_avalon_jtag_uart_fd.o)
 .debug_info    0x00007bff      0x629 ../p5_Temp_bsp/\libhal_bsp.a(altera_avalon_jtag_uart_init.o)
 .debug_info    0x00008228      0x42b ../p5_Temp_bsp/\libhal_bsp.a(altera_avalon_jtag_uart_ioctl.o)
 .debug_info    0x00008653      0x561 ../p5_Temp_bsp/\libhal_bsp.a(altera_avalon_jtag_uart_read.o)
 .debug_info    0x00008bb4      0x559 ../p5_Temp_bsp/\libhal_bsp.a(altera_avalon_jtag_uart_write.o)
 .debug_info    0x0000910d      0x3b3 ../p5_Temp_bsp/\libhal_bsp.a(altera_avalon_timer_sc.o)
 .debug_info    0x000094c0      0xabc ../p5_Temp_bsp/\libhal_bsp.a(altera_up_avalon_audio.o)
 .debug_info    0x00009f7c      0x8d1 ../p5_Temp_bsp/\libhal_bsp.a(altera_up_avalon_character_lcd.o)
 .debug_info    0x0000a84d      0x4d7 ../p5_Temp_bsp/\libhal_bsp.a(altera_up_avalon_ethernet.o)
 .debug_info    0x0000ad24      0x2c9 ../p5_Temp_bsp/\libhal_bsp.a(altera_up_avalon_ethernet_low_level_driver.o)
 .debug_info    0x0000afed      0x7bc ../p5_Temp_bsp/\libhal_bsp.a(altera_up_avalon_irda.o)
 .debug_info    0x0000b7a9      0x476 ../p5_Temp_bsp/\libhal_bsp.a(altera_up_avalon_parallel_port.o)
 .debug_info    0x0000bc1f      0xad5 ../p5_Temp_bsp/\libhal_bsp.a(altera_up_avalon_ps2.o)
 .debug_info    0x0000c6f4      0x7c7 ../p5_Temp_bsp/\libhal_bsp.a(altera_up_avalon_rs232.o)
 .debug_info    0x0000cebb      0x67a ../p5_Temp_bsp/\libhal_bsp.a(altera_up_avalon_video_character_buffer_with_dma.o)
 .debug_info    0x0000d535      0xe66 ../p5_Temp_bsp/\libhal_bsp.a(altera_up_avalon_video_pixel_buffer_dma.o)
 .debug_info    0x0000e39b      0x45d ../p5_Temp_bsp/\libhal_bsp.a(alt_alarm_start.o)
 .debug_info    0x0000e7f8      0x44f ../p5_Temp_bsp/\libhal_bsp.a(alt_close.o)
 .debug_info    0x0000ec47      0x144 ../p5_Temp_bsp/\libhal_bsp.a(alt_dcache_flush_all.o)
 .debug_info    0x0000ed8b      0x667 ../p5_Temp_bsp/\libhal_bsp.a(alt_dev.o)
 .debug_info    0x0000f3f2      0x29f ../p5_Temp_bsp/\libhal_bsp.a(alt_dev_llist_insert.o)
 .debug_info    0x0000f691       0xf7 ../p5_Temp_bsp/\libhal_bsp.a(alt_do_ctors.o)
 .debug_info    0x0000f788       0xf6 ../p5_Temp_bsp/\libhal_bsp.a(alt_do_dtors.o)
 .debug_info    0x0000f87e      0x14c ../p5_Temp_bsp/\libhal_bsp.a(alt_errno.o)
 .debug_info    0x0000f9ca      0x400 ../p5_Temp_bsp/\libhal_bsp.a(alt_find_dev.o)
 .debug_info    0x0000fdca      0x144 ../p5_Temp_bsp/\libhal_bsp.a(alt_icache_flush_all.o)
 .debug_info    0x0000ff0e      0x67d ../p5_Temp_bsp/\libhal_bsp.a(alt_io_redirect.o)
 .debug_info    0x0001058b       0x6c ../p5_Temp_bsp/\libhal_bsp.a(alt_irq_entry.o)
 .debug_info    0x000105f7      0x29a ../p5_Temp_bsp/\libhal_bsp.a(alt_irq_handler.o)
 .debug_info    0x00010891      0x50d ../p5_Temp_bsp/\libhal_bsp.a(alt_open.o)
 .debug_info    0x00010d9e      0x3da ../p5_Temp_bsp/\libhal_bsp.a(alt_release_fd.o)
 .debug_info    0x00011178      0x419 ../p5_Temp_bsp/\libhal_bsp.a(alt_tick.o)
 .debug_info    0x00011591      0x150 ../p5_Temp_bsp/\libhal_bsp.a(alt_usleep.o)
 .debug_info    0x000116e1      0x192 ../p5_Temp_bsp/\libhal_bsp.a(altera_nios2_qsys_irq.o)
 .debug_info    0x00011873      0x193 ../p5_Temp_bsp/\libhal_bsp.a(alt_busy_sleep.o)
 .debug_info    0x00011a06       0x72 ../p5_Temp_bsp/\libhal_bsp.a(alt_exception_entry.o)
 .debug_info    0x00011a78      0x407 ../p5_Temp_bsp/\libhal_bsp.a(alt_find_file.o)
 .debug_info    0x00011e7f      0x448 ../p5_Temp_bsp/\libhal_bsp.a(alt_get_fd.o)
 .debug_info    0x000122c7      0x18c ../p5_Temp_bsp/\libhal_bsp.a(alt_icache_flush.o)
 .debug_info    0x00012453      0x181 c:/altera/13.0sp1/nios2eds/bin/gnu/h-i686-mingw32/bin/../lib/gcc/nios2-elf/4.1.2/../../../../nios2-elf/lib\libc.a(lib_a-atexit.o)
 .debug_info    0x000125d4      0x93f c:/altera/13.0sp1/nios2eds/bin/gnu/h-i686-mingw32/bin/../lib/gcc/nios2-elf/4.1.2/../../../../nios2-elf/lib\libc.a(lib_a-exit.o)
 .debug_info    0x00012f13      0x93d c:/altera/13.0sp1/nios2eds/bin/gnu/h-i686-mingw32/bin/../lib/gcc/nios2-elf/4.1.2/../../../../nios2-elf/lib\libc.a(lib_a-impure.o)
 .debug_info    0x00013850       0x8c c:/altera/13.0sp1/nios2eds/bin/gnu/h-i686-mingw32/bin/../lib/gcc/nios2-elf/4.1.2/../../../../nios2-elf/lib\libc.a(lib_a-int_errno.o)
 .debug_info    0x000138dc      0x115 c:/altera/13.0sp1/nios2eds/bin/gnu/h-i686-mingw32/bin/../lib/gcc/nios2-elf/4.1.2/../../../../nios2-elf/lib\libc.a(lib_a-memcmp.o)
 .debug_info    0x000139f1      0x9c1 c:/altera/13.0sp1/nios2eds/bin/gnu/h-i686-mingw32/bin/../lib/gcc/nios2-elf/4.1.2/../../../../nios2-elf/lib\libc.a(lib_a-putc.o)
 .debug_info    0x000143b2       0xdd c:/altera/13.0sp1/nios2eds/bin/gnu/h-i686-mingw32/bin/../lib/gcc/nios2-elf/4.1.2/../../../../nios2-elf/lib\libc.a(lib_a-strcmp.o)
 .debug_info    0x0001448f       0xdb c:/altera/13.0sp1/nios2eds/bin/gnu/h-i686-mingw32/bin/../lib/gcc/nios2-elf/4.1.2/../../../../nios2-elf/lib\libc.a(lib_a-strlen.o)
 .debug_info    0x0001456a      0x9ae c:/altera/13.0sp1/nios2eds/bin/gnu/h-i686-mingw32/bin/../lib/gcc/nios2-elf/4.1.2/../../../../nios2-elf/lib\libc.a(lib_a-wbuf.o)
 .debug_info    0x00014f18      0x95d c:/altera/13.0sp1/nios2eds/bin/gnu/h-i686-mingw32/bin/../lib/gcc/nios2-elf/4.1.2/../../../../nios2-elf/lib\libc.a(lib_a-wsetup.o)
 .debug_info    0x00015875      0x99c c:/altera/13.0sp1/nios2eds/bin/gnu/h-i686-mingw32/bin/../lib/gcc/nios2-elf/4.1.2/../../../../nios2-elf/lib\libc.a(lib_a-__atexit.o)
 .debug_info    0x00016211      0x9e2 c:/altera/13.0sp1/nios2eds/bin/gnu/h-i686-mingw32/bin/../lib/gcc/nios2-elf/4.1.2/../../../../nios2-elf/lib\libc.a(lib_a-__call_atexit.o)
 .debug_info    0x00016bf3      0x9fe c:/altera/13.0sp1/nios2eds/bin/gnu/h-i686-mingw32/bin/../lib/gcc/nios2-elf/4.1.2/../../../../nios2-elf/lib\libc.a(lib_a-fflush.o)
 .debug_info    0x000175f1      0xb72 c:/altera/13.0sp1/nios2eds/bin/gnu/h-i686-mingw32/bin/../lib/gcc/nios2-elf/4.1.2/../../../../nios2-elf/lib\libc.a(lib_a-findfp.o)
 .debug_info    0x00018163      0xbc9 c:/altera/13.0sp1/nios2eds/bin/gnu/h-i686-mingw32/bin/../lib/gcc/nios2-elf/4.1.2/../../../../nios2-elf/lib\libc.a(lib_a-freer.o)
 .debug_info    0x00018d2c      0xaed c:/altera/13.0sp1/nios2eds/bin/gnu/h-i686-mingw32/bin/../lib/gcc/nios2-elf/4.1.2/../../../../nios2-elf/lib\libc.a(lib_a-fwalk.o)
 .debug_info    0x00019819      0xb1a c:/altera/13.0sp1/nios2eds/bin/gnu/h-i686-mingw32/bin/../lib/gcc/nios2-elf/4.1.2/../../../../nios2-elf/lib\libc.a(lib_a-makebuf.o)
 .debug_info    0x0001a333      0xcd0 c:/altera/13.0sp1/nios2eds/bin/gnu/h-i686-mingw32/bin/../lib/gcc/nios2-elf/4.1.2/../../../../nios2-elf/lib\libc.a(lib_a-mallocr.o)
 .debug_info    0x0001b003      0x962 c:/altera/13.0sp1/nios2eds/bin/gnu/h-i686-mingw32/bin/../lib/gcc/nios2-elf/4.1.2/../../../../nios2-elf/lib\libc.a(lib_a-sbrkr.o)
 .debug_info    0x0001b965      0xaac c:/altera/13.0sp1/nios2eds/bin/gnu/h-i686-mingw32/bin/../lib/gcc/nios2-elf/4.1.2/../../../../nios2-elf/lib\libc.a(lib_a-stdio.o)
 .debug_info    0x0001c411      0x993 c:/altera/13.0sp1/nios2eds/bin/gnu/h-i686-mingw32/bin/../lib/gcc/nios2-elf/4.1.2/../../../../nios2-elf/lib\libc.a(lib_a-writer.o)
 .debug_info    0x0001cda4      0x958 c:/altera/13.0sp1/nios2eds/bin/gnu/h-i686-mingw32/bin/../lib/gcc/nios2-elf/4.1.2/../../../../nios2-elf/lib\libc.a(lib_a-closer.o)
 .debug_info    0x0001d6fc      0x994 c:/altera/13.0sp1/nios2eds/bin/gnu/h-i686-mingw32/bin/../lib/gcc/nios2-elf/4.1.2/../../../../nios2-elf/lib\libc.a(lib_a-fclose.o)
 .debug_info    0x0001e090      0xafc c:/altera/13.0sp1/nios2eds/bin/gnu/h-i686-mingw32/bin/../lib/gcc/nios2-elf/4.1.2/../../../../nios2-elf/lib\libc.a(lib_a-fstatr.o)
 .debug_info    0x0001eb8c      0x958 c:/altera/13.0sp1/nios2eds/bin/gnu/h-i686-mingw32/bin/../lib/gcc/nios2-elf/4.1.2/../../../../nios2-elf/lib\libc.a(lib_a-isattyr.o)
 .debug_info    0x0001f4e4      0x981 c:/altera/13.0sp1/nios2eds/bin/gnu/h-i686-mingw32/bin/../lib/gcc/nios2-elf/4.1.2/../../../../nios2-elf/lib\libc.a(lib_a-lseekr.o)
 .debug_info    0x0001fe65      0x98c c:/altera/13.0sp1/nios2eds/bin/gnu/h-i686-mingw32/bin/../lib/gcc/nios2-elf/4.1.2/../../../../nios2-elf/lib\libc.a(lib_a-readr.o)
 .debug_info    0x000207f1      0x1c0 ../p5_Temp_bsp/\libhal_bsp.a(alt_exit.o)
 .debug_info    0x000209b1      0x648 ../p5_Temp_bsp/\libhal_bsp.a(alt_fstat.o)
 .debug_info    0x00020ff9      0x64e ../p5_Temp_bsp/\libhal_bsp.a(alt_isatty.o)
 .debug_info    0x00021647      0x482 ../p5_Temp_bsp/\libhal_bsp.a(alt_lseek.o)
 .debug_info    0x00021ac9      0xc00 ../p5_Temp_bsp/\libhal_bsp.a(alt_malloc_lock.o)
 .debug_info    0x000226c9      0x672 ../p5_Temp_bsp/\libhal_bsp.a(alt_read.o)
 .debug_info    0x00022d3b      0x2e6 ../p5_Temp_bsp/\libhal_bsp.a(alt_sbrk.o)
 .debug_info    0x00023021      0x67b ../p5_Temp_bsp/\libhal_bsp.a(alt_write.o)

.debug_abbrev   0x00000000     0x64c6
 *(.debug_abbrev)
 .debug_abbrev  0x00000000       0x12 ../p5_Temp_bsp//obj/HAL/src/crt0.o
 .debug_abbrev  0x00000012      0x115 obj/default/PS2_ISR.o
 .debug_abbrev  0x00000127      0x127 obj/default/audio_ISR.o
 .debug_abbrev  0x0000024e      0x103 obj/default/globals.o
 .debug_abbrev  0x00000351      0x115 obj/default/interval_timer_ISR.o
 .debug_abbrev  0x00000466      0x1a5 obj/default/media_interrupt_HAL.o
 .debug_abbrev  0x0000060b      0x124 obj/default/pushbutton_ISR.o
 .debug_abbrev  0x0000072f       0xee c:/altera/13.0sp1/nios2eds/bin/gnu/h-i686-mingw32/bin/../lib/gcc/nios2-elf/4.1.2\libgcc.a(_muldi3.o)
 .debug_abbrev  0x0000081d      0x183 c:/altera/13.0sp1/nios2eds/bin/gnu/h-i686-mingw32/bin/../lib/gcc/nios2-elf/4.1.2\libgcc.a(_divdi3.o)
 .debug_abbrev  0x000009a0       0xe0 c:/altera/13.0sp1/nios2eds/bin/gnu/h-i686-mingw32/bin/../lib/gcc/nios2-elf/4.1.2\libgcc.a(lib2-divmod.o)
 .debug_abbrev  0x00000a80       0x61 c:/altera/13.0sp1/nios2eds/bin/gnu/h-i686-mingw32/bin/../lib/gcc/nios2-elf/4.1.2\libgcc.a(_clz.o)
 .debug_abbrev  0x00000ae1       0xb5 c:/altera/13.0sp1/nios2eds/bin/gnu/h-i686-mingw32/bin/../lib/gcc/nios2-elf/4.1.2/../../../../nios2-elf/lib\libc.a(lib_a-memcpy.o)
 .debug_abbrev  0x00000b96       0xb8 c:/altera/13.0sp1/nios2eds/bin/gnu/h-i686-mingw32/bin/../lib/gcc/nios2-elf/4.1.2/../../../../nios2-elf/lib\libc.a(lib_a-memset.o)
 .debug_abbrev  0x00000c4e      0x180 ../p5_Temp_bsp/\libhal_bsp.a(alt_irq_register.o)
 .debug_abbrev  0x00000dce       0x44 ../p5_Temp_bsp/\libhal_bsp.a(alt_irq_vars.o)
 .debug_abbrev  0x00000e12       0x88 ../p5_Temp_bsp/\libhal_bsp.a(alt_load.o)
 .debug_abbrev  0x00000e9a       0xbe ../p5_Temp_bsp/\libhal_bsp.a(alt_main.o)
 .debug_abbrev  0x00000f58       0x91 ../p5_Temp_bsp/\libhal_bsp.a(alt_printf.o)
 .debug_abbrev  0x00000fe9      0x17f ../p5_Temp_bsp/\libhal_bsp.a(alt_putchar.o)
 .debug_abbrev  0x00001168      0x18f ../p5_Temp_bsp/\libhal_bsp.a(alt_sys_init.o)
 .debug_abbrev  0x000012f7       0xf7 ../p5_Temp_bsp/\libhal_bsp.a(altera_avalon_jtag_uart_fd.o)
 .debug_abbrev  0x000013ee      0x17c ../p5_Temp_bsp/\libhal_bsp.a(altera_avalon_jtag_uart_init.o)
 .debug_abbrev  0x0000156a       0xf0 ../p5_Temp_bsp/\libhal_bsp.a(altera_avalon_jtag_uart_ioctl.o)
 .debug_abbrev  0x0000165a      0x191 ../p5_Temp_bsp/\libhal_bsp.a(altera_avalon_jtag_uart_read.o)
 .debug_abbrev  0x000017eb      0x18d ../p5_Temp_bsp/\libhal_bsp.a(altera_avalon_jtag_uart_write.o)
 .debug_abbrev  0x00001978      0x137 ../p5_Temp_bsp/\libhal_bsp.a(altera_avalon_timer_sc.o)
 .debug_abbrev  0x00001aaf      0x164 ../p5_Temp_bsp/\libhal_bsp.a(altera_up_avalon_audio.o)
 .debug_abbrev  0x00001c13      0x127 ../p5_Temp_bsp/\libhal_bsp.a(altera_up_avalon_character_lcd.o)
 .debug_abbrev  0x00001d3a      0x114 ../p5_Temp_bsp/\libhal_bsp.a(altera_up_avalon_ethernet.o)
 .debug_abbrev  0x00001e4e       0x8d ../p5_Temp_bsp/\libhal_bsp.a(altera_up_avalon_ethernet_low_level_driver.o)
 .debug_abbrev  0x00001edb      0x120 ../p5_Temp_bsp/\libhal_bsp.a(altera_up_avalon_irda.o)
 .debug_abbrev  0x00001ffb       0xf2 ../p5_Temp_bsp/\libhal_bsp.a(altera_up_avalon_parallel_port.o)
 .debug_abbrev  0x000020ed      0x16d ../p5_Temp_bsp/\libhal_bsp.a(altera_up_avalon_ps2.o)
 .debug_abbrev  0x0000225a      0x120 ../p5_Temp_bsp/\libhal_bsp.a(altera_up_avalon_rs232.o)
 .debug_abbrev  0x0000237a      0x111 ../p5_Temp_bsp/\libhal_bsp.a(altera_up_avalon_video_character_buffer_with_dma.o)
 .debug_abbrev  0x0000248b      0x196 ../p5_Temp_bsp/\libhal_bsp.a(altera_up_avalon_video_pixel_buffer_dma.o)
 .debug_abbrev  0x00002621      0x172 ../p5_Temp_bsp/\libhal_bsp.a(alt_alarm_start.o)
 .debug_abbrev  0x00002793       0xfb ../p5_Temp_bsp/\libhal_bsp.a(alt_close.o)
 .debug_abbrev  0x0000288e       0x3f ../p5_Temp_bsp/\libhal_bsp.a(alt_dcache_flush_all.o)
 .debug_abbrev  0x000028cd       0xc7 ../p5_Temp_bsp/\libhal_bsp.a(alt_dev.o)
 .debug_abbrev  0x00002994       0xf6 ../p5_Temp_bsp/\libhal_bsp.a(alt_dev_llist_insert.o)
 .debug_abbrev  0x00002a8a       0x76 ../p5_Temp_bsp/\libhal_bsp.a(alt_do_ctors.o)
 .debug_abbrev  0x00002b00       0x76 ../p5_Temp_bsp/\libhal_bsp.a(alt_do_dtors.o)
 .debug_abbrev  0x00002b76       0x5e ../p5_Temp_bsp/\libhal_bsp.a(alt_errno.o)
 .debug_abbrev  0x00002bd4       0xcf ../p5_Temp_bsp/\libhal_bsp.a(alt_find_dev.o)
 .debug_abbrev  0x00002ca3       0x3f ../p5_Temp_bsp/\libhal_bsp.a(alt_icache_flush_all.o)
 .debug_abbrev  0x00002ce2       0xf0 ../p5_Temp_bsp/\libhal_bsp.a(alt_io_redirect.o)
 .debug_abbrev  0x00002dd2       0x12 ../p5_Temp_bsp/\libhal_bsp.a(alt_irq_entry.o)
 .debug_abbrev  0x00002de4      0x124 ../p5_Temp_bsp/\libhal_bsp.a(alt_irq_handler.o)
 .debug_abbrev  0x00002f08      0x112 ../p5_Temp_bsp/\libhal_bsp.a(alt_open.o)
 .debug_abbrev  0x0000301a       0xc1 ../p5_Temp_bsp/\libhal_bsp.a(alt_release_fd.o)
 .debug_abbrev  0x000030db      0x161 ../p5_Temp_bsp/\libhal_bsp.a(alt_tick.o)
 .debug_abbrev  0x0000323c       0x5d ../p5_Temp_bsp/\libhal_bsp.a(alt_usleep.o)
 .debug_abbrev  0x00003299       0x64 ../p5_Temp_bsp/\libhal_bsp.a(altera_nios2_qsys_irq.o)
 .debug_abbrev  0x000032fd       0x6c ../p5_Temp_bsp/\libhal_bsp.a(alt_busy_sleep.o)
 .debug_abbrev  0x00003369       0x12 ../p5_Temp_bsp/\libhal_bsp.a(alt_exception_entry.o)
 .debug_abbrev  0x0000337b       0xcf ../p5_Temp_bsp/\libhal_bsp.a(alt_find_file.o)
 .debug_abbrev  0x0000344a       0xfb ../p5_Temp_bsp/\libhal_bsp.a(alt_get_fd.o)
 .debug_abbrev  0x00003545       0x7a ../p5_Temp_bsp/\libhal_bsp.a(alt_icache_flush.o)
 .debug_abbrev  0x000035bf       0xb7 c:/altera/13.0sp1/nios2eds/bin/gnu/h-i686-mingw32/bin/../lib/gcc/nios2-elf/4.1.2/../../../../nios2-elf/lib\libc.a(lib_a-atexit.o)
 .debug_abbrev  0x00003676      0x16e c:/altera/13.0sp1/nios2eds/bin/gnu/h-i686-mingw32/bin/../lib/gcc/nios2-elf/4.1.2/../../../../nios2-elf/lib\libc.a(lib_a-exit.o)
 .debug_abbrev  0x000037e4      0x157 c:/altera/13.0sp1/nios2eds/bin/gnu/h-i686-mingw32/bin/../lib/gcc/nios2-elf/4.1.2/../../../../nios2-elf/lib\libc.a(lib_a-impure.o)
 .debug_abbrev  0x0000393b       0x3b c:/altera/13.0sp1/nios2eds/bin/gnu/h-i686-mingw32/bin/../lib/gcc/nios2-elf/4.1.2/../../../../nios2-elf/lib\libc.a(lib_a-int_errno.o)
 .debug_abbrev  0x00003976       0x7c c:/altera/13.0sp1/nios2eds/bin/gnu/h-i686-mingw32/bin/../lib/gcc/nios2-elf/4.1.2/../../../../nios2-elf/lib\libc.a(lib_a-memcmp.o)
 .debug_abbrev  0x000039f2      0x17f c:/altera/13.0sp1/nios2eds/bin/gnu/h-i686-mingw32/bin/../lib/gcc/nios2-elf/4.1.2/../../../../nios2-elf/lib\libc.a(lib_a-putc.o)
 .debug_abbrev  0x00003b71       0x80 c:/altera/13.0sp1/nios2eds/bin/gnu/h-i686-mingw32/bin/../lib/gcc/nios2-elf/4.1.2/../../../../nios2-elf/lib\libc.a(lib_a-strcmp.o)
 .debug_abbrev  0x00003bf1       0x8b c:/altera/13.0sp1/nios2eds/bin/gnu/h-i686-mingw32/bin/../lib/gcc/nios2-elf/4.1.2/../../../../nios2-elf/lib\libc.a(lib_a-strlen.o)
 .debug_abbrev  0x00003c7c      0x198 c:/altera/13.0sp1/nios2eds/bin/gnu/h-i686-mingw32/bin/../lib/gcc/nios2-elf/4.1.2/../../../../nios2-elf/lib\libc.a(lib_a-wbuf.o)
 .debug_abbrev  0x00003e14      0x170 c:/altera/13.0sp1/nios2eds/bin/gnu/h-i686-mingw32/bin/../lib/gcc/nios2-elf/4.1.2/../../../../nios2-elf/lib\libc.a(lib_a-wsetup.o)
 .debug_abbrev  0x00003f84      0x1ae c:/altera/13.0sp1/nios2eds/bin/gnu/h-i686-mingw32/bin/../lib/gcc/nios2-elf/4.1.2/../../../../nios2-elf/lib\libc.a(lib_a-__atexit.o)
 .debug_abbrev  0x00004132      0x1de c:/altera/13.0sp1/nios2eds/bin/gnu/h-i686-mingw32/bin/../lib/gcc/nios2-elf/4.1.2/../../../../nios2-elf/lib\libc.a(lib_a-__call_atexit.o)
 .debug_abbrev  0x00004310      0x1c6 c:/altera/13.0sp1/nios2eds/bin/gnu/h-i686-mingw32/bin/../lib/gcc/nios2-elf/4.1.2/../../../../nios2-elf/lib\libc.a(lib_a-fflush.o)
 .debug_abbrev  0x000044d6      0x24c c:/altera/13.0sp1/nios2eds/bin/gnu/h-i686-mingw32/bin/../lib/gcc/nios2-elf/4.1.2/../../../../nios2-elf/lib\libc.a(lib_a-findfp.o)
 .debug_abbrev  0x00004722      0x1d9 c:/altera/13.0sp1/nios2eds/bin/gnu/h-i686-mingw32/bin/../lib/gcc/nios2-elf/4.1.2/../../../../nios2-elf/lib\libc.a(lib_a-freer.o)
 .debug_abbrev  0x000048fb      0x1e3 c:/altera/13.0sp1/nios2eds/bin/gnu/h-i686-mingw32/bin/../lib/gcc/nios2-elf/4.1.2/../../../../nios2-elf/lib\libc.a(lib_a-fwalk.o)
 .debug_abbrev  0x00004ade      0x197 c:/altera/13.0sp1/nios2eds/bin/gnu/h-i686-mingw32/bin/../lib/gcc/nios2-elf/4.1.2/../../../../nios2-elf/lib\libc.a(lib_a-makebuf.o)
 .debug_abbrev  0x00004c75      0x216 c:/altera/13.0sp1/nios2eds/bin/gnu/h-i686-mingw32/bin/../lib/gcc/nios2-elf/4.1.2/../../../../nios2-elf/lib\libc.a(lib_a-mallocr.o)
 .debug_abbrev  0x00004e8b      0x18c c:/altera/13.0sp1/nios2eds/bin/gnu/h-i686-mingw32/bin/../lib/gcc/nios2-elf/4.1.2/../../../../nios2-elf/lib\libc.a(lib_a-sbrkr.o)
 .debug_abbrev  0x00005017      0x1c9 c:/altera/13.0sp1/nios2eds/bin/gnu/h-i686-mingw32/bin/../lib/gcc/nios2-elf/4.1.2/../../../../nios2-elf/lib\libc.a(lib_a-stdio.o)
 .debug_abbrev  0x000051e0      0x184 c:/altera/13.0sp1/nios2eds/bin/gnu/h-i686-mingw32/bin/../lib/gcc/nios2-elf/4.1.2/../../../../nios2-elf/lib\libc.a(lib_a-writer.o)
 .debug_abbrev  0x00005364      0x17f c:/altera/13.0sp1/nios2eds/bin/gnu/h-i686-mingw32/bin/../lib/gcc/nios2-elf/4.1.2/../../../../nios2-elf/lib\libc.a(lib_a-closer.o)
 .debug_abbrev  0x000054e3      0x1a7 c:/altera/13.0sp1/nios2eds/bin/gnu/h-i686-mingw32/bin/../lib/gcc/nios2-elf/4.1.2/../../../../nios2-elf/lib\libc.a(lib_a-fclose.o)
 .debug_abbrev  0x0000568a      0x18e c:/altera/13.0sp1/nios2eds/bin/gnu/h-i686-mingw32/bin/../lib/gcc/nios2-elf/4.1.2/../../../../nios2-elf/lib\libc.a(lib_a-fstatr.o)
 .debug_abbrev  0x00005818      0x17f c:/altera/13.0sp1/nios2eds/bin/gnu/h-i686-mingw32/bin/../lib/gcc/nios2-elf/4.1.2/../../../../nios2-elf/lib\libc.a(lib_a-isattyr.o)
 .debug_abbrev  0x00005997      0x18e c:/altera/13.0sp1/nios2eds/bin/gnu/h-i686-mingw32/bin/../lib/gcc/nios2-elf/4.1.2/../../../../nios2-elf/lib\libc.a(lib_a-lseekr.o)
 .debug_abbrev  0x00005b25      0x17f c:/altera/13.0sp1/nios2eds/bin/gnu/h-i686-mingw32/bin/../lib/gcc/nios2-elf/4.1.2/../../../../nios2-elf/lib\libc.a(lib_a-readr.o)
 .debug_abbrev  0x00005ca4       0x99 ../p5_Temp_bsp/\libhal_bsp.a(alt_exit.o)
 .debug_abbrev  0x00005d3d       0xfb ../p5_Temp_bsp/\libhal_bsp.a(alt_fstat.o)
 .debug_abbrev  0x00005e38       0xfb ../p5_Temp_bsp/\libhal_bsp.a(alt_isatty.o)
 .debug_abbrev  0x00005f33       0xfb ../p5_Temp_bsp/\libhal_bsp.a(alt_lseek.o)
 .debug_abbrev  0x0000602e      0x181 ../p5_Temp_bsp/\libhal_bsp.a(alt_malloc_lock.o)
 .debug_abbrev  0x000061af       0xfb ../p5_Temp_bsp/\libhal_bsp.a(alt_read.o)
 .debug_abbrev  0x000062aa      0x11c ../p5_Temp_bsp/\libhal_bsp.a(alt_sbrk.o)
 .debug_abbrev  0x000063c6      0x100 ../p5_Temp_bsp/\libhal_bsp.a(alt_write.o)

.debug_line     0x00000000    0x11a1d
 *(.debug_line)
 .debug_line    0x00000000       0x6c ../p5_Temp_bsp//obj/HAL/src/crt0.o
 .debug_line    0x0000006c      0x3b2 obj/default/PS2_ISR.o
 .debug_line    0x0000041e      0x470 obj/default/audio_ISR.o
 .debug_line    0x0000088e      0x340 obj/default/globals.o
 .debug_line    0x00000bce      0x37d obj/default/interval_timer_ISR.o
 .debug_line    0x00000f4b      0xd26 obj/default/media_interrupt_HAL.o
 .debug_line    0x00001c71      0x3b1 obj/default/pushbutton_ISR.o
 .debug_line    0x00002022      0x11f c:/altera/13.0sp1/nios2eds/bin/gnu/h-i686-mingw32/bin/../lib/gcc/nios2-elf/4.1.2\libgcc.a(_muldi3.o)
 .debug_line    0x00002141      0x367 c:/altera/13.0sp1/nios2eds/bin/gnu/h-i686-mingw32/bin/../lib/gcc/nios2-elf/4.1.2\libgcc.a(_divdi3.o)
 .debug_line    0x000024a8      0x24f c:/altera/13.0sp1/nios2eds/bin/gnu/h-i686-mingw32/bin/../lib/gcc/nios2-elf/4.1.2\libgcc.a(lib2-divmod.o)
 .debug_line    0x000026f7       0xaa c:/altera/13.0sp1/nios2eds/bin/gnu/h-i686-mingw32/bin/../lib/gcc/nios2-elf/4.1.2\libgcc.a(_clz.o)
 .debug_line    0x000027a1      0x1ac c:/altera/13.0sp1/nios2eds/bin/gnu/h-i686-mingw32/bin/../lib/gcc/nios2-elf/4.1.2/../../../../nios2-elf/lib\libc.a(lib_a-memcpy.o)
 .debug_line    0x0000294d      0x301 c:/altera/13.0sp1/nios2eds/bin/gnu/h-i686-mingw32/bin/../lib/gcc/nios2-elf/4.1.2/../../../../nios2-elf/lib\libc.a(lib_a-memset.o)
 .debug_line    0x00002c4e      0x303 ../p5_Temp_bsp/\libhal_bsp.a(alt_irq_register.o)
 .debug_line    0x00002f51       0x72 ../p5_Temp_bsp/\libhal_bsp.a(alt_irq_vars.o)
 .debug_line    0x00002fc3      0x217 ../p5_Temp_bsp/\libhal_bsp.a(alt_load.o)
 .debug_line    0x000031da      0x2de ../p5_Temp_bsp/\libhal_bsp.a(alt_main.o)
 .debug_line    0x000034b8      0x1da ../p5_Temp_bsp/\libhal_bsp.a(alt_printf.o)
 .debug_line    0x00003692      0x1ca ../p5_Temp_bsp/\libhal_bsp.a(alt_putchar.o)
 .debug_line    0x0000385c      0x556 ../p5_Temp_bsp/\libhal_bsp.a(alt_sys_init.o)
 .debug_line    0x00003db2      0x217 ../p5_Temp_bsp/\libhal_bsp.a(altera_avalon_jtag_uart_fd.o)
 .debug_line    0x00003fc9      0x4bf ../p5_Temp_bsp/\libhal_bsp.a(altera_avalon_jtag_uart_init.o)
 .debug_line    0x00004488      0x317 ../p5_Temp_bsp/\libhal_bsp.a(altera_avalon_jtag_uart_ioctl.o)
 .debug_line    0x0000479f      0x40b ../p5_Temp_bsp/\libhal_bsp.a(altera_avalon_jtag_uart_read.o)
 .debug_line    0x00004baa      0x419 ../p5_Temp_bsp/\libhal_bsp.a(altera_avalon_jtag_uart_write.o)
 .debug_line    0x00004fc3      0x2ca ../p5_Temp_bsp/\libhal_bsp.a(altera_avalon_timer_sc.o)
 .debug_line    0x0000528d      0x575 ../p5_Temp_bsp/\libhal_bsp.a(altera_up_avalon_audio.o)
 .debug_line    0x00005802      0x486 ../p5_Temp_bsp/\libhal_bsp.a(altera_up_avalon_character_lcd.o)
 .debug_line    0x00005c88      0x2e9 ../p5_Temp_bsp/\libhal_bsp.a(altera_up_avalon_ethernet.o)
 .debug_line    0x00005f71      0x2f0 ../p5_Temp_bsp/\libhal_bsp.a(altera_up_avalon_ethernet_low_level_driver.o)
 .debug_line    0x00006261      0x3df ../p5_Temp_bsp/\libhal_bsp.a(altera_up_avalon_irda.o)
 .debug_line    0x00006640      0x276 ../p5_Temp_bsp/\libhal_bsp.a(altera_up_avalon_parallel_port.o)
 .debug_line    0x000068b6      0x5f5 ../p5_Temp_bsp/\libhal_bsp.a(altera_up_avalon_ps2.o)
 .debug_line    0x00006eab      0x3e9 ../p5_Temp_bsp/\libhal_bsp.a(altera_up_avalon_rs232.o)
 .debug_line    0x00007294      0x395 ../p5_Temp_bsp/\libhal_bsp.a(altera_up_avalon_video_character_buffer_with_dma.o)
 .debug_line    0x00007629      0xb8b ../p5_Temp_bsp/\libhal_bsp.a(altera_up_avalon_video_pixel_buffer_dma.o)
 .debug_line    0x000081b4      0x2f5 ../p5_Temp_bsp/\libhal_bsp.a(alt_alarm_start.o)
 .debug_line    0x000084a9      0x299 ../p5_Temp_bsp/\libhal_bsp.a(alt_close.o)
 .debug_line    0x00008742      0x1b5 ../p5_Temp_bsp/\libhal_bsp.a(alt_dcache_flush_all.o)
 .debug_line    0x000088f7      0x254 ../p5_Temp_bsp/\libhal_bsp.a(alt_dev.o)
 .debug_line    0x00008b4b      0x25a ../p5_Temp_bsp/\libhal_bsp.a(alt_dev_llist_insert.o)
 .debug_line    0x00008da5       0x83 ../p5_Temp_bsp/\libhal_bsp.a(alt_do_ctors.o)
 .debug_line    0x00008e28       0x83 ../p5_Temp_bsp/\libhal_bsp.a(alt_do_dtors.o)
 .debug_line    0x00008eab      0x1aa ../p5_Temp_bsp/\libhal_bsp.a(alt_errno.o)
 .debug_line    0x00009055      0x26b ../p5_Temp_bsp/\libhal_bsp.a(alt_find_dev.o)
 .debug_line    0x000092c0      0x1bd ../p5_Temp_bsp/\libhal_bsp.a(alt_icache_flush_all.o)
 .debug_line    0x0000947d      0x2b4 ../p5_Temp_bsp/\libhal_bsp.a(alt_io_redirect.o)
 .debug_line    0x00009731       0x6b ../p5_Temp_bsp/\libhal_bsp.a(alt_irq_entry.o)
 .debug_line    0x0000979c      0x261 ../p5_Temp_bsp/\libhal_bsp.a(alt_irq_handler.o)
 .debug_line    0x000099fd      0x2ff ../p5_Temp_bsp/\libhal_bsp.a(alt_open.o)
 .debug_line    0x00009cfc       0xed ../p5_Temp_bsp/\libhal_bsp.a(alt_release_fd.o)
 .debug_line    0x00009de9      0x2f5 ../p5_Temp_bsp/\libhal_bsp.a(alt_tick.o)
 .debug_line    0x0000a0de      0x202 ../p5_Temp_bsp/\libhal_bsp.a(alt_usleep.o)
 .debug_line    0x0000a2e0      0x1e7 ../p5_Temp_bsp/\libhal_bsp.a(altera_nios2_qsys_irq.o)
 .debug_line    0x0000a4c7      0x25c ../p5_Temp_bsp/\libhal_bsp.a(alt_busy_sleep.o)
 .debug_line    0x0000a723       0xab ../p5_Temp_bsp/\libhal_bsp.a(alt_exception_entry.o)
 .debug_line    0x0000a7ce      0x27c ../p5_Temp_bsp/\libhal_bsp.a(alt_find_file.o)
 .debug_line    0x0000aa4a      0x297 ../p5_Temp_bsp/\libhal_bsp.a(alt_get_fd.o)
 .debug_line    0x0000ace1      0x1f9 ../p5_Temp_bsp/\libhal_bsp.a(alt_icache_flush.o)
 .debug_line    0x0000aeda      0x200 c:/altera/13.0sp1/nios2eds/bin/gnu/h-i686-mingw32/bin/../lib/gcc/nios2-elf/4.1.2/../../../../nios2-elf/lib\libc.a(lib_a-atexit.o)
 .debug_line    0x0000b0da      0x238 c:/altera/13.0sp1/nios2eds/bin/gnu/h-i686-mingw32/bin/../lib/gcc/nios2-elf/4.1.2/../../../../nios2-elf/lib\libc.a(lib_a-exit.o)
 .debug_line    0x0000b312      0x22d c:/altera/13.0sp1/nios2eds/bin/gnu/h-i686-mingw32/bin/../lib/gcc/nios2-elf/4.1.2/../../../../nios2-elf/lib\libc.a(lib_a-impure.o)
 .debug_line    0x0000b53f      0x1df c:/altera/13.0sp1/nios2eds/bin/gnu/h-i686-mingw32/bin/../lib/gcc/nios2-elf/4.1.2/../../../../nios2-elf/lib\libc.a(lib_a-int_errno.o)
 .debug_line    0x0000b71e      0x29f c:/altera/13.0sp1/nios2eds/bin/gnu/h-i686-mingw32/bin/../lib/gcc/nios2-elf/4.1.2/../../../../nios2-elf/lib\libc.a(lib_a-memcmp.o)
 .debug_line    0x0000b9bd      0x2c4 c:/altera/13.0sp1/nios2eds/bin/gnu/h-i686-mingw32/bin/../lib/gcc/nios2-elf/4.1.2/../../../../nios2-elf/lib\libc.a(lib_a-putc.o)
 .debug_line    0x0000bc81      0x2d5 c:/altera/13.0sp1/nios2eds/bin/gnu/h-i686-mingw32/bin/../lib/gcc/nios2-elf/4.1.2/../../../../nios2-elf/lib\libc.a(lib_a-strcmp.o)
 .debug_line    0x0000bf56      0x26d c:/altera/13.0sp1/nios2eds/bin/gnu/h-i686-mingw32/bin/../lib/gcc/nios2-elf/4.1.2/../../../../nios2-elf/lib\libc.a(lib_a-strlen.o)
 .debug_line    0x0000c1c3      0x350 c:/altera/13.0sp1/nios2eds/bin/gnu/h-i686-mingw32/bin/../lib/gcc/nios2-elf/4.1.2/../../../../nios2-elf/lib\libc.a(lib_a-wbuf.o)
 .debug_line    0x0000c513      0x2f0 c:/altera/13.0sp1/nios2eds/bin/gnu/h-i686-mingw32/bin/../lib/gcc/nios2-elf/4.1.2/../../../../nios2-elf/lib\libc.a(lib_a-wsetup.o)
 .debug_line    0x0000c803      0x313 c:/altera/13.0sp1/nios2eds/bin/gnu/h-i686-mingw32/bin/../lib/gcc/nios2-elf/4.1.2/../../../../nios2-elf/lib\libc.a(lib_a-__atexit.o)
 .debug_line    0x0000cb16      0x367 c:/altera/13.0sp1/nios2eds/bin/gnu/h-i686-mingw32/bin/../lib/gcc/nios2-elf/4.1.2/../../../../nios2-elf/lib\libc.a(lib_a-__call_atexit.o)
 .debug_line    0x0000ce7d      0x40d c:/altera/13.0sp1/nios2eds/bin/gnu/h-i686-mingw32/bin/../lib/gcc/nios2-elf/4.1.2/../../../../nios2-elf/lib\libc.a(lib_a-fflush.o)
 .debug_line    0x0000d28a      0x601 c:/altera/13.0sp1/nios2eds/bin/gnu/h-i686-mingw32/bin/../lib/gcc/nios2-elf/4.1.2/../../../../nios2-elf/lib\libc.a(lib_a-findfp.o)
 .debug_line    0x0000d88b      0x5eb c:/altera/13.0sp1/nios2eds/bin/gnu/h-i686-mingw32/bin/../lib/gcc/nios2-elf/4.1.2/../../../../nios2-elf/lib\libc.a(lib_a-freer.o)
 .debug_line    0x0000de76      0x34a c:/altera/13.0sp1/nios2eds/bin/gnu/h-i686-mingw32/bin/../lib/gcc/nios2-elf/4.1.2/../../../../nios2-elf/lib\libc.a(lib_a-fwalk.o)
 .debug_line    0x0000e1c0      0x3c3 c:/altera/13.0sp1/nios2eds/bin/gnu/h-i686-mingw32/bin/../lib/gcc/nios2-elf/4.1.2/../../../../nios2-elf/lib\libc.a(lib_a-makebuf.o)
 .debug_line    0x0000e583      0x80a c:/altera/13.0sp1/nios2eds/bin/gnu/h-i686-mingw32/bin/../lib/gcc/nios2-elf/4.1.2/../../../../nios2-elf/lib\libc.a(lib_a-mallocr.o)
 .debug_line    0x0000ed8d      0x299 c:/altera/13.0sp1/nios2eds/bin/gnu/h-i686-mingw32/bin/../lib/gcc/nios2-elf/4.1.2/../../../../nios2-elf/lib\libc.a(lib_a-sbrkr.o)
 .debug_line    0x0000f026      0x38c c:/altera/13.0sp1/nios2eds/bin/gnu/h-i686-mingw32/bin/../lib/gcc/nios2-elf/4.1.2/../../../../nios2-elf/lib\libc.a(lib_a-stdio.o)
 .debug_line    0x0000f3b2      0x29a c:/altera/13.0sp1/nios2eds/bin/gnu/h-i686-mingw32/bin/../lib/gcc/nios2-elf/4.1.2/../../../../nios2-elf/lib\libc.a(lib_a-writer.o)
 .debug_line    0x0000f64c      0x29a c:/altera/13.0sp1/nios2eds/bin/gnu/h-i686-mingw32/bin/../lib/gcc/nios2-elf/4.1.2/../../../../nios2-elf/lib\libc.a(lib_a-closer.o)
 .debug_line    0x0000f8e6      0x2e8 c:/altera/13.0sp1/nios2eds/bin/gnu/h-i686-mingw32/bin/../lib/gcc/nios2-elf/4.1.2/../../../../nios2-elf/lib\libc.a(lib_a-fclose.o)
 .debug_line    0x0000fbce      0x264 c:/altera/13.0sp1/nios2eds/bin/gnu/h-i686-mingw32/bin/../lib/gcc/nios2-elf/4.1.2/../../../../nios2-elf/lib\libc.a(lib_a-fstatr.o)
 .debug_line    0x0000fe32      0x29b c:/altera/13.0sp1/nios2eds/bin/gnu/h-i686-mingw32/bin/../lib/gcc/nios2-elf/4.1.2/../../../../nios2-elf/lib\libc.a(lib_a-isattyr.o)
 .debug_line    0x000100cd      0x29a c:/altera/13.0sp1/nios2eds/bin/gnu/h-i686-mingw32/bin/../lib/gcc/nios2-elf/4.1.2/../../../../nios2-elf/lib\libc.a(lib_a-lseekr.o)
 .debug_line    0x00010367      0x299 c:/altera/13.0sp1/nios2eds/bin/gnu/h-i686-mingw32/bin/../lib/gcc/nios2-elf/4.1.2/../../../../nios2-elf/lib\libc.a(lib_a-readr.o)
 .debug_line    0x00010600      0x21f ../p5_Temp_bsp/\libhal_bsp.a(alt_exit.o)
 .debug_line    0x0001081f      0x2a1 ../p5_Temp_bsp/\libhal_bsp.a(alt_fstat.o)
 .debug_line    0x00010ac0      0x2a2 ../p5_Temp_bsp/\libhal_bsp.a(alt_isatty.o)
 .debug_line    0x00010d62      0x2a1 ../p5_Temp_bsp/\libhal_bsp.a(alt_lseek.o)
 .debug_line    0x00011003      0x20f ../p5_Temp_bsp/\libhal_bsp.a(alt_malloc_lock.o)
 .debug_line    0x00011212      0x2c8 ../p5_Temp_bsp/\libhal_bsp.a(alt_read.o)
 .debug_line    0x000114da      0x27a ../p5_Temp_bsp/\libhal_bsp.a(alt_sbrk.o)
 .debug_line    0x00011754      0x2c9 ../p5_Temp_bsp/\libhal_bsp.a(alt_write.o)

.debug_frame    0x00000000     0x1ce0
 *(.debug_frame)
 .debug_frame   0x00000000       0x2c obj/default/PS2_ISR.o
 .debug_frame   0x0000002c       0x2c obj/default/audio_ISR.o
 .debug_frame   0x00000058       0x2c obj/default/interval_timer_ISR.o
 .debug_frame   0x00000084       0xc0 obj/default/media_interrupt_HAL.o
 .debug_frame   0x00000144       0x2c obj/default/pushbutton_ISR.o
 .debug_frame   0x00000170       0x2c c:/altera/13.0sp1/nios2eds/bin/gnu/h-i686-mingw32/bin/../lib/gcc/nios2-elf/4.1.2\libgcc.a(_muldi3.o)
 .debug_frame   0x0000019c       0x38 c:/altera/13.0sp1/nios2eds/bin/gnu/h-i686-mingw32/bin/../lib/gcc/nios2-elf/4.1.2\libgcc.a(_divdi3.o)
 .debug_frame   0x000001d4       0x70 c:/altera/13.0sp1/nios2eds/bin/gnu/h-i686-mingw32/bin/../lib/gcc/nios2-elf/4.1.2\libgcc.a(lib2-divmod.o)
 .debug_frame   0x00000244       0x20 c:/altera/13.0sp1/nios2eds/bin/gnu/h-i686-mingw32/bin/../lib/gcc/nios2-elf/4.1.2/../../../../nios2-elf/lib\libc.a(lib_a-memcpy.o)
 .debug_frame   0x00000264       0x20 c:/altera/13.0sp1/nios2eds/bin/gnu/h-i686-mingw32/bin/../lib/gcc/nios2-elf/4.1.2/../../../../nios2-elf/lib\libc.a(lib_a-memset.o)
 .debug_frame   0x00000284       0x2c ../p5_Temp_bsp/\libhal_bsp.a(alt_irq_register.o)
 .debug_frame   0x000002b0       0x48 ../p5_Temp_bsp/\libhal_bsp.a(alt_load.o)
 .debug_frame   0x000002f8       0x2c ../p5_Temp_bsp/\libhal_bsp.a(alt_main.o)
 .debug_frame   0x00000324       0x2c ../p5_Temp_bsp/\libhal_bsp.a(alt_printf.o)
 .debug_frame   0x00000350       0x2c ../p5_Temp_bsp/\libhal_bsp.a(alt_putchar.o)
 .debug_frame   0x0000037c       0x64 ../p5_Temp_bsp/\libhal_bsp.a(alt_sys_init.o)
 .debug_frame   0x000003e0       0x80 ../p5_Temp_bsp/\libhal_bsp.a(altera_avalon_jtag_uart_fd.o)
 .debug_frame   0x00000460       0x80 ../p5_Temp_bsp/\libhal_bsp.a(altera_avalon_jtag_uart_init.o)
 .debug_frame   0x000004e0       0x2c ../p5_Temp_bsp/\libhal_bsp.a(altera_avalon_jtag_uart_ioctl.o)
 .debug_frame   0x0000050c       0x2c ../p5_Temp_bsp/\libhal_bsp.a(altera_avalon_jtag_uart_read.o)
 .debug_frame   0x00000538       0x2c ../p5_Temp_bsp/\libhal_bsp.a(altera_avalon_jtag_uart_write.o)
 .debug_frame   0x00000564       0x48 ../p5_Temp_bsp/\libhal_bsp.a(altera_avalon_timer_sc.o)
 .debug_frame   0x000005ac      0x208 ../p5_Temp_bsp/\libhal_bsp.a(altera_up_avalon_audio.o)
 .debug_frame   0x000007b4      0x17c ../p5_Temp_bsp/\libhal_bsp.a(altera_up_avalon_character_lcd.o)
 .debug_frame   0x00000930       0x48 ../p5_Temp_bsp/\libhal_bsp.a(altera_up_avalon_ethernet.o)
 .debug_frame   0x00000978       0x80 ../p5_Temp_bsp/\libhal_bsp.a(altera_up_avalon_ethernet_low_level_driver.o)
 .debug_frame   0x000009f8      0x128 ../p5_Temp_bsp/\libhal_bsp.a(altera_up_avalon_irda.o)
 .debug_frame   0x00000b20       0x2c ../p5_Temp_bsp/\libhal_bsp.a(altera_up_avalon_parallel_port.o)
 .debug_frame   0x00000b4c      0x208 ../p5_Temp_bsp/\libhal_bsp.a(altera_up_avalon_ps2.o)
 .debug_frame   0x00000d54      0x128 ../p5_Temp_bsp/\libhal_bsp.a(altera_up_avalon_rs232.o)
 .debug_frame   0x00000e7c       0x9c ../p5_Temp_bsp/\libhal_bsp.a(altera_up_avalon_video_character_buffer_with_dma.o)
 .debug_frame   0x00000f18      0x160 ../p5_Temp_bsp/\libhal_bsp.a(altera_up_avalon_video_pixel_buffer_dma.o)
 .debug_frame   0x00001078       0x2c ../p5_Temp_bsp/\libhal_bsp.a(alt_alarm_start.o)
 .debug_frame   0x000010a4       0x48 ../p5_Temp_bsp/\libhal_bsp.a(alt_close.o)
 .debug_frame   0x000010ec       0x2c ../p5_Temp_bsp/\libhal_bsp.a(alt_dcache_flush_all.o)
 .debug_frame   0x00001118       0x2c ../p5_Temp_bsp/\libhal_bsp.a(alt_dev.o)
 .debug_frame   0x00001144       0x48 ../p5_Temp_bsp/\libhal_bsp.a(alt_dev_llist_insert.o)
 .debug_frame   0x0000118c       0x2c ../p5_Temp_bsp/\libhal_bsp.a(alt_do_ctors.o)
 .debug_frame   0x000011b8       0x2c ../p5_Temp_bsp/\libhal_bsp.a(alt_do_dtors.o)
 .debug_frame   0x000011e4       0x2c ../p5_Temp_bsp/\libhal_bsp.a(alt_find_dev.o)
 .debug_frame   0x00001210       0x2c ../p5_Temp_bsp/\libhal_bsp.a(alt_icache_flush_all.o)
 .debug_frame   0x0000123c       0x48 ../p5_Temp_bsp/\libhal_bsp.a(alt_io_redirect.o)
 .debug_frame   0x00001284       0x2c ../p5_Temp_bsp/\libhal_bsp.a(alt_irq_handler.o)
 .debug_frame   0x000012b0       0x64 ../p5_Temp_bsp/\libhal_bsp.a(alt_open.o)
 .debug_frame   0x00001314       0x2c ../p5_Temp_bsp/\libhal_bsp.a(alt_release_fd.o)
 .debug_frame   0x00001340       0x48 ../p5_Temp_bsp/\libhal_bsp.a(alt_tick.o)
 .debug_frame   0x00001388       0x2c ../p5_Temp_bsp/\libhal_bsp.a(alt_usleep.o)
 .debug_frame   0x000013b4       0x2c ../p5_Temp_bsp/\libhal_bsp.a(altera_nios2_qsys_irq.o)
 .debug_frame   0x000013e0       0x2c ../p5_Temp_bsp/\libhal_bsp.a(alt_busy_sleep.o)
 .debug_frame   0x0000140c       0x2c ../p5_Temp_bsp/\libhal_bsp.a(alt_find_file.o)
 .debug_frame   0x00001438       0x2c ../p5_Temp_bsp/\libhal_bsp.a(alt_get_fd.o)
 .debug_frame   0x00001464       0x2c ../p5_Temp_bsp/\libhal_bsp.a(alt_icache_flush.o)
 .debug_frame   0x00001490       0x20 c:/altera/13.0sp1/nios2eds/bin/gnu/h-i686-mingw32/bin/../lib/gcc/nios2-elf/4.1.2/../../../../nios2-elf/lib\libc.a(lib_a-atexit.o)
 .debug_frame   0x000014b0       0x28 c:/altera/13.0sp1/nios2eds/bin/gnu/h-i686-mingw32/bin/../lib/gcc/nios2-elf/4.1.2/../../../../nios2-elf/lib\libc.a(lib_a-exit.o)
 .debug_frame   0x000014d8       0x20 c:/altera/13.0sp1/nios2eds/bin/gnu/h-i686-mingw32/bin/../lib/gcc/nios2-elf/4.1.2/../../../../nios2-elf/lib\libc.a(lib_a-memcmp.o)
 .debug_frame   0x000014f8       0x4c c:/altera/13.0sp1/nios2eds/bin/gnu/h-i686-mingw32/bin/../lib/gcc/nios2-elf/4.1.2/../../../../nios2-elf/lib\libc.a(lib_a-putc.o)
 .debug_frame   0x00001544       0x20 c:/altera/13.0sp1/nios2eds/bin/gnu/h-i686-mingw32/bin/../lib/gcc/nios2-elf/4.1.2/../../../../nios2-elf/lib\libc.a(lib_a-strcmp.o)
 .debug_frame   0x00001564       0x20 c:/altera/13.0sp1/nios2eds/bin/gnu/h-i686-mingw32/bin/../lib/gcc/nios2-elf/4.1.2/../../../../nios2-elf/lib\libc.a(lib_a-strlen.o)
 .debug_frame   0x00001584       0x3c c:/altera/13.0sp1/nios2eds/bin/gnu/h-i686-mingw32/bin/../lib/gcc/nios2-elf/4.1.2/../../../../nios2-elf/lib\libc.a(lib_a-wbuf.o)
 .debug_frame   0x000015c0       0x2c c:/altera/13.0sp1/nios2eds/bin/gnu/h-i686-mingw32/bin/../lib/gcc/nios2-elf/4.1.2/../../../../nios2-elf/lib\libc.a(lib_a-wsetup.o)
 .debug_frame   0x000015ec       0x34 c:/altera/13.0sp1/nios2eds/bin/gnu/h-i686-mingw32/bin/../lib/gcc/nios2-elf/4.1.2/../../../../nios2-elf/lib\libc.a(lib_a-__atexit.o)
 .debug_frame   0x00001620       0x4c c:/altera/13.0sp1/nios2eds/bin/gnu/h-i686-mingw32/bin/../lib/gcc/nios2-elf/4.1.2/../../../../nios2-elf/lib\libc.a(lib_a-__call_atexit.o)
 .debug_frame   0x0000166c       0x40 c:/altera/13.0sp1/nios2eds/bin/gnu/h-i686-mingw32/bin/../lib/gcc/nios2-elf/4.1.2/../../../../nios2-elf/lib\libc.a(lib_a-fflush.o)
 .debug_frame   0x000016ac      0x118 c:/altera/13.0sp1/nios2eds/bin/gnu/h-i686-mingw32/bin/../lib/gcc/nios2-elf/4.1.2/../../../../nios2-elf/lib\libc.a(lib_a-findfp.o)
 .debug_frame   0x000017c4       0x4c c:/altera/13.0sp1/nios2eds/bin/gnu/h-i686-mingw32/bin/../lib/gcc/nios2-elf/4.1.2/../../../../nios2-elf/lib\libc.a(lib_a-freer.o)
 .debug_frame   0x00001810       0x60 c:/altera/13.0sp1/nios2eds/bin/gnu/h-i686-mingw32/bin/../lib/gcc/nios2-elf/4.1.2/../../../../nios2-elf/lib\libc.a(lib_a-fwalk.o)
 .debug_frame   0x00001870       0x2c c:/altera/13.0sp1/nios2eds/bin/gnu/h-i686-mingw32/bin/../lib/gcc/nios2-elf/4.1.2/../../../../nios2-elf/lib\libc.a(lib_a-makebuf.o)
 .debug_frame   0x0000189c       0x38 c:/altera/13.0sp1/nios2eds/bin/gnu/h-i686-mingw32/bin/../lib/gcc/nios2-elf/4.1.2/../../../../nios2-elf/lib\libc.a(lib_a-mallocr.o)
 .debug_frame   0x000018d4       0x2c c:/altera/13.0sp1/nios2eds/bin/gnu/h-i686-mingw32/bin/../lib/gcc/nios2-elf/4.1.2/../../../../nios2-elf/lib\libc.a(lib_a-sbrkr.o)
 .debug_frame   0x00001900       0x78 c:/altera/13.0sp1/nios2eds/bin/gnu/h-i686-mingw32/bin/../lib/gcc/nios2-elf/4.1.2/../../../../nios2-elf/lib\libc.a(lib_a-stdio.o)
 .debug_frame   0x00001978       0x2c c:/altera/13.0sp1/nios2eds/bin/gnu/h-i686-mingw32/bin/../lib/gcc/nios2-elf/4.1.2/../../../../nios2-elf/lib\libc.a(lib_a-writer.o)
 .debug_frame   0x000019a4       0x2c c:/altera/13.0sp1/nios2eds/bin/gnu/h-i686-mingw32/bin/../lib/gcc/nios2-elf/4.1.2/../../../../nios2-elf/lib\libc.a(lib_a-closer.o)
 .debug_frame   0x000019d0       0x3c c:/altera/13.0sp1/nios2eds/bin/gnu/h-i686-mingw32/bin/../lib/gcc/nios2-elf/4.1.2/../../../../nios2-elf/lib\libc.a(lib_a-fclose.o)
 .debug_frame   0x00001a0c       0x2c c:/altera/13.0sp1/nios2eds/bin/gnu/h-i686-mingw32/bin/../lib/gcc/nios2-elf/4.1.2/../../../../nios2-elf/lib\libc.a(lib_a-fstatr.o)
 .debug_frame   0x00001a38       0x2c c:/altera/13.0sp1/nios2eds/bin/gnu/h-i686-mingw32/bin/../lib/gcc/nios2-elf/4.1.2/../../../../nios2-elf/lib\libc.a(lib_a-isattyr.o)
 .debug_frame   0x00001a64       0x2c c:/altera/13.0sp1/nios2eds/bin/gnu/h-i686-mingw32/bin/../lib/gcc/nios2-elf/4.1.2/../../../../nios2-elf/lib\libc.a(lib_a-lseekr.o)
 .debug_frame   0x00001a90       0x2c c:/altera/13.0sp1/nios2eds/bin/gnu/h-i686-mingw32/bin/../lib/gcc/nios2-elf/4.1.2/../../../../nios2-elf/lib\libc.a(lib_a-readr.o)
 .debug_frame   0x00001abc       0x48 ../p5_Temp_bsp/\libhal_bsp.a(alt_exit.o)
 .debug_frame   0x00001b04       0x48 ../p5_Temp_bsp/\libhal_bsp.a(alt_fstat.o)
 .debug_frame   0x00001b4c       0x48 ../p5_Temp_bsp/\libhal_bsp.a(alt_isatty.o)
 .debug_frame   0x00001b94       0x48 ../p5_Temp_bsp/\libhal_bsp.a(alt_lseek.o)
 .debug_frame   0x00001bdc       0x48 ../p5_Temp_bsp/\libhal_bsp.a(alt_malloc_lock.o)
 .debug_frame   0x00001c24       0x48 ../p5_Temp_bsp/\libhal_bsp.a(alt_read.o)
 .debug_frame   0x00001c6c       0x2c ../p5_Temp_bsp/\libhal_bsp.a(alt_sbrk.o)
 .debug_frame   0x00001c98       0x48 ../p5_Temp_bsp/\libhal_bsp.a(alt_write.o)

.debug_str      0x00000000     0x2068
 *(.debug_str)
 .debug_str     0x00000000       0xe9 obj/default/PS2_ISR.o
 .debug_str     0x000000e9       0xe9 obj/default/audio_ISR.o
 .debug_str     0x000001d2       0xe9 obj/default/globals.o
 .debug_str     0x000002bb       0xe9 obj/default/interval_timer_ISR.o
 .debug_str     0x000003a4      0x13d obj/default/media_interrupt_HAL.o
 .debug_str     0x000004e1       0xf3 obj/default/pushbutton_ISR.o
 .debug_str     0x000005d4      0x158 c:/altera/13.0sp1/nios2eds/bin/gnu/h-i686-mingw32/bin/../lib/gcc/nios2-elf/4.1.2\libgcc.a(_muldi3.o)
                                0x1ac (size before relaxing)
 .debug_str     0x0000072c       0x5d c:/altera/13.0sp1/nios2eds/bin/gnu/h-i686-mingw32/bin/../lib/gcc/nios2-elf/4.1.2\libgcc.a(_divdi3.o)
                                0x200 (size before relaxing)
 .debug_str     0x00000789       0x6c c:/altera/13.0sp1/nios2eds/bin/gnu/h-i686-mingw32/bin/../lib/gcc/nios2-elf/4.1.2\libgcc.a(lib2-divmod.o)
                                0x1b4 (size before relaxing)
 .debug_str     0x00000000      0x161 c:/altera/13.0sp1/nios2eds/bin/gnu/h-i686-mingw32/bin/../lib/gcc/nios2-elf/4.1.2\libgcc.a(_clz.o)
 .debug_str     0x000007f5       0xf5 c:/altera/13.0sp1/nios2eds/bin/gnu/h-i686-mingw32/bin/../lib/gcc/nios2-elf/4.1.2/../../../../nios2-elf/lib\libc.a(lib_a-memcpy.o)
                                0x128 (size before relaxing)
 .debug_str     0x000008ea       0x56 c:/altera/13.0sp1/nios2eds/bin/gnu/h-i686-mingw32/bin/../lib/gcc/nios2-elf/4.1.2/../../../../nios2-elf/lib\libc.a(lib_a-memset.o)
                                0x17e (size before relaxing)
 .debug_str     0x00000940       0x21 ../p5_Temp_bsp/\libhal_bsp.a(alt_irq_register.o)
 .debug_str     0x00000961       0x12 ../p5_Temp_bsp/\libhal_bsp.a(alt_load.o)
 .debug_str     0x00000973       0x12 ../p5_Temp_bsp/\libhal_bsp.a(alt_main.o)
 .debug_str     0x00000985       0x20 ../p5_Temp_bsp/\libhal_bsp.a(alt_putchar.o)
 .debug_str     0x000009a5      0x15a ../p5_Temp_bsp/\libhal_bsp.a(alt_sys_init.o)
 .debug_str     0x00000aff       0x12 ../p5_Temp_bsp/\libhal_bsp.a(altera_avalon_jtag_uart_fd.o)
 .debug_str     0x00000b11       0x1a ../p5_Temp_bsp/\libhal_bsp.a(altera_avalon_jtag_uart_init.o)
 .debug_str     0x00000b2b       0x12 ../p5_Temp_bsp/\libhal_bsp.a(altera_avalon_jtag_uart_ioctl.o)
 .debug_str     0x00000b3d       0x1a ../p5_Temp_bsp/\libhal_bsp.a(altera_avalon_jtag_uart_read.o)
 .debug_str     0x00000b57       0x1a ../p5_Temp_bsp/\libhal_bsp.a(altera_avalon_jtag_uart_write.o)
 .debug_str     0x00000b71       0x12 ../p5_Temp_bsp/\libhal_bsp.a(altera_avalon_timer_sc.o)
 .debug_str     0x00000b83       0x4f ../p5_Temp_bsp/\libhal_bsp.a(altera_up_avalon_audio.o)
 .debug_str     0x00000bd2       0x55 ../p5_Temp_bsp/\libhal_bsp.a(altera_up_avalon_character_lcd.o)
 .debug_str     0x00000c27       0x26 ../p5_Temp_bsp/\libhal_bsp.a(altera_up_avalon_ethernet.o)
 .debug_str     0x00000c4d       0x12 ../p5_Temp_bsp/\libhal_bsp.a(altera_up_avalon_ethernet_low_level_driver.o)
 .debug_str     0x00000c5f       0x46 ../p5_Temp_bsp/\libhal_bsp.a(altera_up_avalon_irda.o)
 .debug_str     0x00000ca5       0x2b ../p5_Temp_bsp/\libhal_bsp.a(altera_up_avalon_parallel_port.o)
 .debug_str     0x00000cd0       0x3a ../p5_Temp_bsp/\libhal_bsp.a(altera_up_avalon_ps2.o)
 .debug_str     0x00000d0a       0x48 ../p5_Temp_bsp/\libhal_bsp.a(altera_up_avalon_rs232.o)
 .debug_str     0x00000d52       0x35 ../p5_Temp_bsp/\libhal_bsp.a(altera_up_avalon_video_character_buffer_with_dma.o)
 .debug_str     0x00000d87       0x93 ../p5_Temp_bsp/\libhal_bsp.a(altera_up_avalon_video_pixel_buffer_dma.o)
 .debug_str     0x00000e1a       0x23 ../p5_Temp_bsp/\libhal_bsp.a(alt_alarm_start.o)
 .debug_str     0x00000e3d       0x12 ../p5_Temp_bsp/\libhal_bsp.a(alt_close.o)
 .debug_str     0x00000e4f       0x12 ../p5_Temp_bsp/\libhal_bsp.a(alt_dcache_flush_all.o)
 .debug_str     0x00000e61       0x12 ../p5_Temp_bsp/\libhal_bsp.a(alt_dev.o)
 .debug_str     0x00000e73       0x12 ../p5_Temp_bsp/\libhal_bsp.a(alt_dev_llist_insert.o)
 .debug_str     0x00000e85       0x12 ../p5_Temp_bsp/\libhal_bsp.a(alt_errno.o)
 .debug_str     0x00000e97       0x12 ../p5_Temp_bsp/\libhal_bsp.a(alt_find_dev.o)
 .debug_str     0x00000ea9       0x12 ../p5_Temp_bsp/\libhal_bsp.a(alt_icache_flush_all.o)
 .debug_str     0x00000ebb       0x12 ../p5_Temp_bsp/\libhal_bsp.a(alt_io_redirect.o)
 .debug_str     0x00000ecd       0x12 ../p5_Temp_bsp/\libhal_bsp.a(alt_irq_handler.o)
 .debug_str     0x00000edf       0x12 ../p5_Temp_bsp/\libhal_bsp.a(alt_open.o)
 .debug_str     0x00000ef1       0x1a ../p5_Temp_bsp/\libhal_bsp.a(alt_tick.o)
 .debug_str     0x00000f0b       0x12 ../p5_Temp_bsp/\libhal_bsp.a(alt_usleep.o)
 .debug_str     0x00000f1d       0x12 ../p5_Temp_bsp/\libhal_bsp.a(altera_nios2_qsys_irq.o)
 .debug_str     0x00000f2f       0x12 ../p5_Temp_bsp/\libhal_bsp.a(alt_busy_sleep.o)
 .debug_str     0x00000f41       0x12 ../p5_Temp_bsp/\libhal_bsp.a(alt_find_file.o)
 .debug_str     0x00000f53       0x12 ../p5_Temp_bsp/\libhal_bsp.a(alt_get_fd.o)
 .debug_str     0x00000f65       0x12 ../p5_Temp_bsp/\libhal_bsp.a(alt_icache_flush.o)
 .debug_str     0x00000f77      0x11d c:/altera/13.0sp1/nios2eds/bin/gnu/h-i686-mingw32/bin/../lib/gcc/nios2-elf/4.1.2/../../../../nios2-elf/lib\libc.a(lib_a-atexit.o)
                                0x1bf (size before relaxing)
 .debug_str     0x00001094      0x362 c:/altera/13.0sp1/nios2eds/bin/gnu/h-i686-mingw32/bin/../lib/gcc/nios2-elf/4.1.2/../../../../nios2-elf/lib\libc.a(lib_a-exit.o)
                                0x50c (size before relaxing)
 .debug_str     0x000013f6       0xd1 c:/altera/13.0sp1/nios2eds/bin/gnu/h-i686-mingw32/bin/../lib/gcc/nios2-elf/4.1.2/../../../../nios2-elf/lib\libc.a(lib_a-impure.o)
                                0x51a (size before relaxing)
 .debug_str     0x000014c7       0x3d c:/altera/13.0sp1/nios2eds/bin/gnu/h-i686-mingw32/bin/../lib/gcc/nios2-elf/4.1.2/../../../../nios2-elf/lib\libc.a(lib_a-int_errno.o)
                                0x163 (size before relaxing)
 .debug_str     0x00001504       0x42 c:/altera/13.0sp1/nios2eds/bin/gnu/h-i686-mingw32/bin/../lib/gcc/nios2-elf/4.1.2/../../../../nios2-elf/lib\libc.a(lib_a-memcmp.o)
                                0x16a (size before relaxing)
 .debug_str     0x00001546       0xd0 c:/altera/13.0sp1/nios2eds/bin/gnu/h-i686-mingw32/bin/../lib/gcc/nios2-elf/4.1.2/../../../../nios2-elf/lib\libc.a(lib_a-putc.o)
                                0x512 (size before relaxing)
 .debug_str     0x00001616       0x42 c:/altera/13.0sp1/nios2eds/bin/gnu/h-i686-mingw32/bin/../lib/gcc/nios2-elf/4.1.2/../../../../nios2-elf/lib\libc.a(lib_a-strcmp.o)
                                0x163 (size before relaxing)
 .debug_str     0x00001658       0x42 c:/altera/13.0sp1/nios2eds/bin/gnu/h-i686-mingw32/bin/../lib/gcc/nios2-elf/4.1.2/../../../../nios2-elf/lib\libc.a(lib_a-strlen.o)
                                0x17d (size before relaxing)
 .debug_str     0x0000169a       0x4a c:/altera/13.0sp1/nios2eds/bin/gnu/h-i686-mingw32/bin/../lib/gcc/nios2-elf/4.1.2/../../../../nios2-elf/lib\libc.a(lib_a-wbuf.o)
                                0x510 (size before relaxing)
 .debug_str     0x000016e4       0x46 c:/altera/13.0sp1/nios2eds/bin/gnu/h-i686-mingw32/bin/../lib/gcc/nios2-elf/4.1.2/../../../../nios2-elf/lib\libc.a(lib_a-wsetup.o)
                                0x50c (size before relaxing)
 .debug_str     0x0000172a       0x51 c:/altera/13.0sp1/nios2eds/bin/gnu/h-i686-mingw32/bin/../lib/gcc/nios2-elf/4.1.2/../../../../nios2-elf/lib\libc.a(lib_a-__atexit.o)
                                0x524 (size before relaxing)
 .debug_str     0x0000177b       0x7b c:/altera/13.0sp1/nios2eds/bin/gnu/h-i686-mingw32/bin/../lib/gcc/nios2-elf/4.1.2/../../../../nios2-elf/lib\libc.a(lib_a-__call_atexit.o)
                                0x54e (size before relaxing)
 .debug_str     0x000017f6       0x52 c:/altera/13.0sp1/nios2eds/bin/gnu/h-i686-mingw32/bin/../lib/gcc/nios2-elf/4.1.2/../../../../nios2-elf/lib\libc.a(lib_a-fflush.o)
                                0x532 (size before relaxing)
 .debug_str     0x00001848      0x102 c:/altera/13.0sp1/nios2eds/bin/gnu/h-i686-mingw32/bin/../lib/gcc/nios2-elf/4.1.2/../../../../nios2-elf/lib\libc.a(lib_a-findfp.o)
                                0x5f4 (size before relaxing)
 .debug_str     0x0000194a      0x15b c:/altera/13.0sp1/nios2eds/bin/gnu/h-i686-mingw32/bin/../lib/gcc/nios2-elf/4.1.2/../../../../nios2-elf/lib\libc.a(lib_a-freer.o)
                                0x643 (size before relaxing)
 .debug_str     0x00001aa5       0x5e c:/altera/13.0sp1/nios2eds/bin/gnu/h-i686-mingw32/bin/../lib/gcc/nios2-elf/4.1.2/../../../../nios2-elf/lib\libc.a(lib_a-fwalk.o)
                                0x535 (size before relaxing)
 .debug_str     0x00001b03      0x123 c:/altera/13.0sp1/nios2eds/bin/gnu/h-i686-mingw32/bin/../lib/gcc/nios2-elf/4.1.2/../../../../nios2-elf/lib\libc.a(lib_a-makebuf.o)
                                0x606 (size before relaxing)
 .debug_str     0x00001c26       0xef c:/altera/13.0sp1/nios2eds/bin/gnu/h-i686-mingw32/bin/../lib/gcc/nios2-elf/4.1.2/../../../../nios2-elf/lib\libc.a(lib_a-mallocr.o)
                                0x6f1 (size before relaxing)
 .debug_str     0x00001d15       0x50 c:/altera/13.0sp1/nios2eds/bin/gnu/h-i686-mingw32/bin/../lib/gcc/nios2-elf/4.1.2/../../../../nios2-elf/lib\libc.a(lib_a-sbrkr.o)
                                0x50b (size before relaxing)
 .debug_str     0x00001d65       0x62 c:/altera/13.0sp1/nios2eds/bin/gnu/h-i686-mingw32/bin/../lib/gcc/nios2-elf/4.1.2/../../../../nios2-elf/lib\libc.a(lib_a-stdio.o)
                                0x531 (size before relaxing)
 .debug_str     0x00001dc7       0x4c c:/altera/13.0sp1/nios2eds/bin/gnu/h-i686-mingw32/bin/../lib/gcc/nios2-elf/4.1.2/../../../../nios2-elf/lib\libc.a(lib_a-writer.o)
                                0x50e (size before relaxing)
 .debug_str     0x00001e13       0x43 c:/altera/13.0sp1/nios2eds/bin/gnu/h-i686-mingw32/bin/../lib/gcc/nios2-elf/4.1.2/../../../../nios2-elf/lib\libc.a(lib_a-closer.o)
                                0x4fe (size before relaxing)
 .debug_str     0x00001e56       0x50 c:/altera/13.0sp1/nios2eds/bin/gnu/h-i686-mingw32/bin/../lib/gcc/nios2-elf/4.1.2/../../../../nios2-elf/lib\libc.a(lib_a-fclose.o)
                                0x516 (size before relaxing)
 .debug_str     0x00001ea6       0x49 c:/altera/13.0sp1/nios2eds/bin/gnu/h-i686-mingw32/bin/../lib/gcc/nios2-elf/4.1.2/../../../../nios2-elf/lib\libc.a(lib_a-fstatr.o)
                                0x5f1 (size before relaxing)
 .debug_str     0x00001eef       0x45 c:/altera/13.0sp1/nios2eds/bin/gnu/h-i686-mingw32/bin/../lib/gcc/nios2-elf/4.1.2/../../../../nios2-elf/lib\libc.a(lib_a-isattyr.o)
                                0x500 (size before relaxing)
 .debug_str     0x00001f34       0x43 c:/altera/13.0sp1/nios2eds/bin/gnu/h-i686-mingw32/bin/../lib/gcc/nios2-elf/4.1.2/../../../../nios2-elf/lib\libc.a(lib_a-lseekr.o)
                                0x50c (size before relaxing)
 .debug_str     0x00001f77       0x41 c:/altera/13.0sp1/nios2eds/bin/gnu/h-i686-mingw32/bin/../lib/gcc/nios2-elf/4.1.2/../../../../nios2-elf/lib\libc.a(lib_a-readr.o)
                                0x50c (size before relaxing)
 .debug_str     0x00001fb8       0x1c ../p5_Temp_bsp/\libhal_bsp.a(alt_exit.o)
 .debug_str     0x00001fd4       0x12 ../p5_Temp_bsp/\libhal_bsp.a(alt_fstat.o)
 .debug_str     0x00001fe6       0x12 ../p5_Temp_bsp/\libhal_bsp.a(alt_isatty.o)
 .debug_str     0x00001ff8       0x12 ../p5_Temp_bsp/\libhal_bsp.a(alt_lseek.o)
 .debug_str     0x0000200a       0x20 ../p5_Temp_bsp/\libhal_bsp.a(alt_malloc_lock.o)
 .debug_str     0x0000202a       0x12 ../p5_Temp_bsp/\libhal_bsp.a(alt_read.o)
 .debug_str     0x0000203c       0x1a ../p5_Temp_bsp/\libhal_bsp.a(alt_sbrk.o)
 .debug_str     0x00002056       0x12 ../p5_Temp_bsp/\libhal_bsp.a(alt_write.o)

.debug_loc      0x00000000     0x52f9
 *(.debug_loc)
 .debug_loc     0x00000000       0x2b obj/default/PS2_ISR.o
 .debug_loc     0x0000002b       0x2b obj/default/audio_ISR.o
 .debug_loc     0x00000056       0x2b obj/default/interval_timer_ISR.o
 .debug_loc     0x00000081      0x104 obj/default/media_interrupt_HAL.o
 .debug_loc     0x00000185       0x2b obj/default/pushbutton_ISR.o
 .debug_loc     0x000001b0       0xc4 c:/altera/13.0sp1/nios2eds/bin/gnu/h-i686-mingw32/bin/../lib/gcc/nios2-elf/4.1.2\libgcc.a(_muldi3.o)
 .debug_loc     0x00000274      0xdce c:/altera/13.0sp1/nios2eds/bin/gnu/h-i686-mingw32/bin/../lib/gcc/nios2-elf/4.1.2\libgcc.a(_divdi3.o)
 .debug_loc     0x00001042      0x1d2 c:/altera/13.0sp1/nios2eds/bin/gnu/h-i686-mingw32/bin/../lib/gcc/nios2-elf/4.1.2\libgcc.a(lib2-divmod.o)
 .debug_loc     0x00001214       0xca c:/altera/13.0sp1/nios2eds/bin/gnu/h-i686-mingw32/bin/../lib/gcc/nios2-elf/4.1.2/../../../../nios2-elf/lib\libc.a(lib_a-memcpy.o)
 .debug_loc     0x000012de       0xa1 c:/altera/13.0sp1/nios2eds/bin/gnu/h-i686-mingw32/bin/../lib/gcc/nios2-elf/4.1.2/../../../../nios2-elf/lib\libc.a(lib_a-memset.o)
 .debug_loc     0x0000137f       0x2c ../p5_Temp_bsp/\libhal_bsp.a(alt_irq_register.o)
 .debug_loc     0x000013ab       0x56 ../p5_Temp_bsp/\libhal_bsp.a(alt_load.o)
 .debug_loc     0x00001401       0x2b ../p5_Temp_bsp/\libhal_bsp.a(alt_main.o)
 .debug_loc     0x0000142c       0x2b ../p5_Temp_bsp/\libhal_bsp.a(alt_printf.o)
 .debug_loc     0x00001457       0x2b ../p5_Temp_bsp/\libhal_bsp.a(alt_putchar.o)
 .debug_loc     0x00001482       0x81 ../p5_Temp_bsp/\libhal_bsp.a(alt_sys_init.o)
 .debug_loc     0x00001503       0xac ../p5_Temp_bsp/\libhal_bsp.a(altera_avalon_jtag_uart_fd.o)
 .debug_loc     0x000015af       0xac ../p5_Temp_bsp/\libhal_bsp.a(altera_avalon_jtag_uart_init.o)
 .debug_loc     0x0000165b       0x2b ../p5_Temp_bsp/\libhal_bsp.a(altera_avalon_jtag_uart_ioctl.o)
 .debug_loc     0x00001686       0x2b ../p5_Temp_bsp/\libhal_bsp.a(altera_avalon_jtag_uart_read.o)
 .debug_loc     0x000016b1       0x2b ../p5_Temp_bsp/\libhal_bsp.a(altera_avalon_jtag_uart_write.o)
 .debug_loc     0x000016dc       0x56 ../p5_Temp_bsp/\libhal_bsp.a(altera_avalon_timer_sc.o)
 .debug_loc     0x00001732      0x306 ../p5_Temp_bsp/\libhal_bsp.a(altera_up_avalon_audio.o)
 .debug_loc     0x00001a38      0x22f ../p5_Temp_bsp/\libhal_bsp.a(altera_up_avalon_character_lcd.o)
 .debug_loc     0x00001c67       0x56 ../p5_Temp_bsp/\libhal_bsp.a(altera_up_avalon_ethernet.o)
 .debug_loc     0x00001cbd       0xac ../p5_Temp_bsp/\libhal_bsp.a(altera_up_avalon_ethernet_low_level_driver.o)
 .debug_loc     0x00001d69      0x1ae ../p5_Temp_bsp/\libhal_bsp.a(altera_up_avalon_irda.o)
 .debug_loc     0x00001f17       0x2b ../p5_Temp_bsp/\libhal_bsp.a(altera_up_avalon_parallel_port.o)
 .debug_loc     0x00001f42      0x306 ../p5_Temp_bsp/\libhal_bsp.a(altera_up_avalon_ps2.o)
 .debug_loc     0x00002248      0x1ae ../p5_Temp_bsp/\libhal_bsp.a(altera_up_avalon_rs232.o)
 .debug_loc     0x000023f6       0xd7 ../p5_Temp_bsp/\libhal_bsp.a(altera_up_avalon_video_character_buffer_with_dma.o)
 .debug_loc     0x000024cd      0x206 ../p5_Temp_bsp/\libhal_bsp.a(altera_up_avalon_video_pixel_buffer_dma.o)
 .debug_loc     0x000026d3       0x2b ../p5_Temp_bsp/\libhal_bsp.a(alt_alarm_start.o)
 .debug_loc     0x000026fe       0x56 ../p5_Temp_bsp/\libhal_bsp.a(alt_close.o)
 .debug_loc     0x00002754       0x2b ../p5_Temp_bsp/\libhal_bsp.a(alt_dcache_flush_all.o)
 .debug_loc     0x0000277f       0x2b ../p5_Temp_bsp/\libhal_bsp.a(alt_dev.o)
 .debug_loc     0x000027aa       0x56 ../p5_Temp_bsp/\libhal_bsp.a(alt_dev_llist_insert.o)
 .debug_loc     0x00002800       0x2b ../p5_Temp_bsp/\libhal_bsp.a(alt_do_ctors.o)
 .debug_loc     0x0000282b       0x2b ../p5_Temp_bsp/\libhal_bsp.a(alt_do_dtors.o)
 .debug_loc     0x00002856       0x2b ../p5_Temp_bsp/\libhal_bsp.a(alt_find_dev.o)
 .debug_loc     0x00002881       0x2b ../p5_Temp_bsp/\libhal_bsp.a(alt_icache_flush_all.o)
 .debug_loc     0x000028ac       0x56 ../p5_Temp_bsp/\libhal_bsp.a(alt_io_redirect.o)
 .debug_loc     0x00002902       0x2b ../p5_Temp_bsp/\libhal_bsp.a(alt_irq_handler.o)
 .debug_loc     0x0000292d       0x81 ../p5_Temp_bsp/\libhal_bsp.a(alt_open.o)
 .debug_loc     0x000029ae       0x2b ../p5_Temp_bsp/\libhal_bsp.a(alt_release_fd.o)
 .debug_loc     0x000029d9       0x56 ../p5_Temp_bsp/\libhal_bsp.a(alt_tick.o)
 .debug_loc     0x00002a2f       0x2b ../p5_Temp_bsp/\libhal_bsp.a(alt_usleep.o)
 .debug_loc     0x00002a5a       0x2b ../p5_Temp_bsp/\libhal_bsp.a(altera_nios2_qsys_irq.o)
 .debug_loc     0x00002a85       0x2b ../p5_Temp_bsp/\libhal_bsp.a(alt_busy_sleep.o)
 .debug_loc     0x00002ab0       0x2b ../p5_Temp_bsp/\libhal_bsp.a(alt_find_file.o)
 .debug_loc     0x00002adb       0x2b ../p5_Temp_bsp/\libhal_bsp.a(alt_get_fd.o)
 .debug_loc     0x00002b06       0x2b ../p5_Temp_bsp/\libhal_bsp.a(alt_icache_flush.o)
 .debug_loc     0x00002b31       0x1e c:/altera/13.0sp1/nios2eds/bin/gnu/h-i686-mingw32/bin/../lib/gcc/nios2-elf/4.1.2/../../../../nios2-elf/lib\libc.a(lib_a-atexit.o)
 .debug_loc     0x00002b4f       0x3d c:/altera/13.0sp1/nios2eds/bin/gnu/h-i686-mingw32/bin/../lib/gcc/nios2-elf/4.1.2/../../../../nios2-elf/lib\libc.a(lib_a-exit.o)
 .debug_loc     0x00002b8c      0x114 c:/altera/13.0sp1/nios2eds/bin/gnu/h-i686-mingw32/bin/../lib/gcc/nios2-elf/4.1.2/../../../../nios2-elf/lib\libc.a(lib_a-memcmp.o)
 .debug_loc     0x00002ca0      0x20d c:/altera/13.0sp1/nios2eds/bin/gnu/h-i686-mingw32/bin/../lib/gcc/nios2-elf/4.1.2/../../../../nios2-elf/lib\libc.a(lib_a-putc.o)
 .debug_loc     0x00002ead       0x65 c:/altera/13.0sp1/nios2eds/bin/gnu/h-i686-mingw32/bin/../lib/gcc/nios2-elf/4.1.2/../../../../nios2-elf/lib\libc.a(lib_a-strcmp.o)
 .debug_loc     0x00002f12       0x3c c:/altera/13.0sp1/nios2eds/bin/gnu/h-i686-mingw32/bin/../lib/gcc/nios2-elf/4.1.2/../../../../nios2-elf/lib\libc.a(lib_a-strlen.o)
 .debug_loc     0x00002f4e      0x157 c:/altera/13.0sp1/nios2eds/bin/gnu/h-i686-mingw32/bin/../lib/gcc/nios2-elf/4.1.2/../../../../nios2-elf/lib\libc.a(lib_a-wbuf.o)
 .debug_loc     0x000030a5       0x7c c:/altera/13.0sp1/nios2eds/bin/gnu/h-i686-mingw32/bin/../lib/gcc/nios2-elf/4.1.2/../../../../nios2-elf/lib\libc.a(lib_a-wsetup.o)
 .debug_loc     0x00003121      0x120 c:/altera/13.0sp1/nios2eds/bin/gnu/h-i686-mingw32/bin/../lib/gcc/nios2-elf/4.1.2/../../../../nios2-elf/lib\libc.a(lib_a-__atexit.o)
 .debug_loc     0x00003241      0x1cb c:/altera/13.0sp1/nios2eds/bin/gnu/h-i686-mingw32/bin/../lib/gcc/nios2-elf/4.1.2/../../../../nios2-elf/lib\libc.a(lib_a-__call_atexit.o)
 .debug_loc     0x0000340c      0x1f6 c:/altera/13.0sp1/nios2eds/bin/gnu/h-i686-mingw32/bin/../lib/gcc/nios2-elf/4.1.2/../../../../nios2-elf/lib\libc.a(lib_a-fflush.o)
 .debug_loc     0x00003602      0x19f c:/altera/13.0sp1/nios2eds/bin/gnu/h-i686-mingw32/bin/../lib/gcc/nios2-elf/4.1.2/../../../../nios2-elf/lib\libc.a(lib_a-findfp.o)
 .debug_loc     0x000037a1      0x4a7 c:/altera/13.0sp1/nios2eds/bin/gnu/h-i686-mingw32/bin/../lib/gcc/nios2-elf/4.1.2/../../../../nios2-elf/lib\libc.a(lib_a-freer.o)
 .debug_loc     0x00003c48      0x1d2 c:/altera/13.0sp1/nios2eds/bin/gnu/h-i686-mingw32/bin/../lib/gcc/nios2-elf/4.1.2/../../../../nios2-elf/lib\libc.a(lib_a-fwalk.o)
 .debug_loc     0x00003e1a      0x11c c:/altera/13.0sp1/nios2eds/bin/gnu/h-i686-mingw32/bin/../lib/gcc/nios2-elf/4.1.2/../../../../nios2-elf/lib\libc.a(lib_a-makebuf.o)
 .debug_loc     0x00003f36      0xaeb c:/altera/13.0sp1/nios2eds/bin/gnu/h-i686-mingw32/bin/../lib/gcc/nios2-elf/4.1.2/../../../../nios2-elf/lib\libc.a(lib_a-mallocr.o)
 .debug_loc     0x00004a21       0x5b c:/altera/13.0sp1/nios2eds/bin/gnu/h-i686-mingw32/bin/../lib/gcc/nios2-elf/4.1.2/../../../../nios2-elf/lib\libc.a(lib_a-sbrkr.o)
 .debug_loc     0x00004a7c      0x21f c:/altera/13.0sp1/nios2eds/bin/gnu/h-i686-mingw32/bin/../lib/gcc/nios2-elf/4.1.2/../../../../nios2-elf/lib\libc.a(lib_a-stdio.o)
 .debug_loc     0x00004c9b       0x97 c:/altera/13.0sp1/nios2eds/bin/gnu/h-i686-mingw32/bin/../lib/gcc/nios2-elf/4.1.2/../../../../nios2-elf/lib\libc.a(lib_a-writer.o)
 .debug_loc     0x00004d32       0x5b c:/altera/13.0sp1/nios2eds/bin/gnu/h-i686-mingw32/bin/../lib/gcc/nios2-elf/4.1.2/../../../../nios2-elf/lib\libc.a(lib_a-closer.o)
 .debug_loc     0x00004d8d       0xe4 c:/altera/13.0sp1/nios2eds/bin/gnu/h-i686-mingw32/bin/../lib/gcc/nios2-elf/4.1.2/../../../../nios2-elf/lib\libc.a(lib_a-fclose.o)
 .debug_loc     0x00004e71       0x79 c:/altera/13.0sp1/nios2eds/bin/gnu/h-i686-mingw32/bin/../lib/gcc/nios2-elf/4.1.2/../../../../nios2-elf/lib\libc.a(lib_a-fstatr.o)
 .debug_loc     0x00004eea       0x5b c:/altera/13.0sp1/nios2eds/bin/gnu/h-i686-mingw32/bin/../lib/gcc/nios2-elf/4.1.2/../../../../nios2-elf/lib\libc.a(lib_a-isattyr.o)
 .debug_loc     0x00004f45       0x97 c:/altera/13.0sp1/nios2eds/bin/gnu/h-i686-mingw32/bin/../lib/gcc/nios2-elf/4.1.2/../../../../nios2-elf/lib\libc.a(lib_a-lseekr.o)
 .debug_loc     0x00004fdc       0x97 c:/altera/13.0sp1/nios2eds/bin/gnu/h-i686-mingw32/bin/../lib/gcc/nios2-elf/4.1.2/../../../../nios2-elf/lib\libc.a(lib_a-readr.o)
 .debug_loc     0x00005073       0x56 ../p5_Temp_bsp/\libhal_bsp.a(alt_exit.o)
 .debug_loc     0x000050c9       0x56 ../p5_Temp_bsp/\libhal_bsp.a(alt_fstat.o)
 .debug_loc     0x0000511f       0x57 ../p5_Temp_bsp/\libhal_bsp.a(alt_isatty.o)
 .debug_loc     0x00005176       0x56 ../p5_Temp_bsp/\libhal_bsp.a(alt_lseek.o)
 .debug_loc     0x000051cc       0x56 ../p5_Temp_bsp/\libhal_bsp.a(alt_malloc_lock.o)
 .debug_loc     0x00005222       0x56 ../p5_Temp_bsp/\libhal_bsp.a(alt_read.o)
 .debug_loc     0x00005278       0x2b ../p5_Temp_bsp/\libhal_bsp.a(alt_sbrk.o)
 .debug_loc     0x000052a3       0x56 ../p5_Temp_bsp/\libhal_bsp.a(alt_write.o)

.debug_macinfo
 *(.debug_macinfo)

.debug_weaknames
 *(.debug_weaknames)

.debug_funcnames
 *(.debug_funcnames)

.debug_typenames
 *(.debug_typenames)

.debug_varnames
 *(.debug_varnames)

.debug_alt_sim_info
                0x00000000       0x50
 *(.debug_alt_sim_info)
 .debug_alt_sim_info
                0x00000000       0x20 ../p5_Temp_bsp//obj/HAL/src/crt0.o
 .debug_alt_sim_info
                0x00000020       0x30 ../p5_Temp_bsp/\libhal_bsp.a(alt_busy_sleep.o)
                0x00800000                __alt_data_end = 0x800000
                0x00800000                PROVIDE (__alt_stack_pointer, __alt_data_end)
                0x007b13d4                PROVIDE (__alt_stack_limit, __alt_stack_base)
                0x007b13d4                PROVIDE (__alt_heap_start, end)
                0x00800000                PROVIDE (__alt_heap_limit, 0x800000)
OUTPUT(p5_Temp.elf elf32-littlenios2)

.debug_ranges   0x00000000      0x3d8
 .debug_ranges  0x00000000       0x20 ../p5_Temp_bsp//obj/HAL/src/crt0.o
 .debug_ranges  0x00000020       0x68 c:/altera/13.0sp1/nios2eds/bin/gnu/h-i686-mingw32/bin/../lib/gcc/nios2-elf/4.1.2\libgcc.a(_muldi3.o)
 .debug_ranges  0x00000088      0x1b0 c:/altera/13.0sp1/nios2eds/bin/gnu/h-i686-mingw32/bin/../lib/gcc/nios2-elf/4.1.2\libgcc.a(_divdi3.o)
 .debug_ranges  0x00000238       0x28 ../p5_Temp_bsp/\libhal_bsp.a(alt_irq_entry.o)
 .debug_ranges  0x00000260       0x30 ../p5_Temp_bsp/\libhal_bsp.a(alt_exception_entry.o)
 .debug_ranges  0x00000290       0x18 c:/altera/13.0sp1/nios2eds/bin/gnu/h-i686-mingw32/bin/../lib/gcc/nios2-elf/4.1.2/../../../../nios2-elf/lib\libc.a(lib_a-__call_atexit.o)
 .debug_ranges  0x000002a8       0x20 c:/altera/13.0sp1/nios2eds/bin/gnu/h-i686-mingw32/bin/../lib/gcc/nios2-elf/4.1.2/../../../../nios2-elf/lib\libc.a(lib_a-fflush.o)
 .debug_ranges  0x000002c8       0xa0 c:/altera/13.0sp1/nios2eds/bin/gnu/h-i686-mingw32/bin/../lib/gcc/nios2-elf/4.1.2/../../../../nios2-elf/lib\libc.a(lib_a-fwalk.o)
 .debug_ranges  0x00000368       0x70 c:/altera/13.0sp1/nios2eds/bin/gnu/h-i686-mingw32/bin/../lib/gcc/nios2-elf/4.1.2/../../../../nios2-elf/lib\libc.a(lib_a-mallocr.o)
